

; BLOCK 1 koala.xex

2000: 00        BYTE $00 $00 $00 $00 $00 $00 $00 $00
2008: 50        BYTE $50 $50 $50 $50 $50 $50 $50 $50
2010: 50        BYTE $50 $50 $50 $55 $50 $50 $50 $50
2018: AA        BYTE $AA $02 $02 $02 $02 $02 $02 $02
2020: 00        BYTE $00 $00 $00 $00 $00 $00 $00 $80
2028: 02        BYTE $02 $02 $02 $08 $08 $08 $20 $80
2030: 2A        BYTE $2A $80 $00 $00 $00 $00 $00 $00
2038: 00        BYTE $00 $80 $20 $08 $08 $08 $02 $02
2040: 2A        BYTE $2A $00 $00 $55 $00 $00 $00 $00
2048: 00        BYTE $00 $00 $00 $00 $02 $02 $82 $82
2050: 00        BYTE $00 $00 $00 $00 $02 $02 $0A $08
2058: 00        BYTE $00 $00 $00 $00 $00 $02 $0A $28
2060: 00        BYTE $00 $00 $00 $20 $A0 $80 $02 $2A
2068: 00        BYTE $00 $00 $00 $00 $00 $80 $80 $00
2070: 00        BYTE $00 $00 $82 $88 $88 $08 $20 $20
2078: 20        BYTE $20 $20 $20 $08 $08 $08 $02 $00
2080: 00        BYTE $00 $00 $00 $00 $00 $02 $0A $28
2088: 00        BYTE $00 $00 $00 $00 $00 $80 $A0 $20
2090: 80        BYTE $80 $80 $80 $80 $80 $80 $80 $80
2098: 00        BYTE $00 $00 $00 $02 $0A $08 $08 $08
20A0: 00        BYTE $00 $00 $A0 $80 $00 $00 $00 $00
20A8: 00        BYTE $00 $00 $00 $00 $00 $00 $08 $00
20B0: 00        BYTE $00 $00 $00 $00 $08 $00 $00 $00
20B8: 00        BYTE $00 $00 $00 $00 $00 $00 $08 $00
20C0: 0A        BYTE $0A $08 $08 $08 $08 $08 $08 $08
20C8: 82        BYTE $82 $82 $A2 $22 $22 $22 $2A $0A
20D0: 28        BYTE $28 $22 $AA $AA $AA $AA $AA $AA
20D8: A0        BYTE $A0 $8A $28 $A0 $0A $A8 $00 $AA
20E0: A0        BYTE $A0 $80 $00 $0A $A8 $00 $00 $AA
20E8: 00        BYTE $00 $00 $00 $80 $00 $00 $00 $00
20F0: 02        BYTE $02 $02 $0A $08 $28 $20 $A0 $80
20F8: 00        BYTE $00 $00 $00 $80 $80 $A0 $20 $20
2100: 20        BYTE $20 $28 $08 $0A $02 $02 $AA $28
2108: 20        BYTE $20 $28 $08 $0A $00 $00 $00 $00
2110: 28        BYTE $28 $AA $82 $82 $AA $A0 $2A $0A
2118: 08        BYTE $08 $08 $08 $08 $08 $28 $A0 $00
2120: 00        BYTE $00 $00 $00 $A8 $08 $08 $08 $08
2128: 80        BYTE $80 $00 $00 $00 $00 $02 $00 $00
2130: 20        BYTE $20 $00 $00 $00 $00 $00 $00 $00
2138: 00        BYTE $00 $00 $02 $80 $00 $00 $00 $80
2140: 02        BYTE $02 $00 $00 $00 $00 $00 $00 $08
2148: 00        BYTE $00 $00 $00 $0A $A8 $80 $00 $02
2150: 02        BYTE $02 $2A $A0 $80 $00 $00 $00 $AA
2158: A0        BYTE $A0 $00 $00 $00 $00 $00 $00 $A0
2160: 00        BYTE $00 $00 $00 $AA $00 $00 $00 $00
2168: 82        BYTE $82 $82 $8A $AA $A8 $A0 $A0 $80
2170: 80        BYTE $80 $00 $00 $AA $00 $00 $00 $00
2178: 28        BYTE $28 $08 $0A $AA $00 $00 $00 $00
2180: A5        BYTE $A5 $95 $95 $95 $95 $A5 $2A $00
2188: 55        BYTE $55 $55 $55 $55 $56 $AA $80 $00
2190: 55        BYTE $55 $55 $55 $55 $A5 $29 $0A $02
2198: 55        BYTE $55 $55 $55 $55 $56 $56 $5A $A8
21A0: 58        BYTE $58 $68 $60 $60 $A0 $00 $00 $00
21A8: 00        BYTE $00 $00 $00 $00 $00 $00 $02 $0A
21B0: 00        BYTE $00 $00 $00 $00 $00 $00 $AA $00
21B8: 00        BYTE $00 $02 $02 $02 $0A $A8 $80 $00
21C0: A8        BYTE $A8 $8A $02 $00 $00 $00 $00 $00
21C8: 00        BYTE $00 $00 $A0 $20 $28 $08 $08 $08
21D0: 80        BYTE $80 $80 $80 $80 $80 $80 $80 $AA
21D8: 02        BYTE $02 $02 $02 $02 $02 $02 $00 $AA
21E0: AA        BYTE $AA $08 $08 $08 $08 $AA $08 $A8
21E8: AA        BYTE $AA $08 $08 $08 $08 $AA $08 $0A
21F0: 82        BYTE $82 $82 $82 $82 $82 $82 $02 $AA
21F8: 00        BYTE $00 $00 $00 $AA $80 $80 $80 $80
2200: 55        BYTE $55 $55 $5F $5F $5F $5F $5F $5F
2208: 55        BYTE $55 $55 $FF $FF $FF $FF $FF $FF
2210: 05        BYTE $05 $05 $05 $05 $05 $05 $05 $05
2218: 05        BYTE $05 $05 $05 $55 $05 $05 $05 $05
2220: 10        BYTE $10 $10 $10 $50 $10 $10 $10 $10
2228: 10        BYTE $10 $10 $10 $55 $10 $10 $10 $10
2230: 00        BYTE $00 $00 $00 $55 $00 $00 $00 $00
2238: 55        BYTE $55 $55 $F5 $F5 $F5 $F5 $F5 $F5
2240: F5        BYTE $F5 $F5 $F5 $F5 $55 $55 $05 $05
2248: A8        BYTE $A8 $A8 $A8 $A8 $A8 $A8 $A8 $A8
2250: 00        BYTE $00 $80 $80 $80 $80 $80 $80 $80
2258: A8        BYTE $A8 $A8 $A8 $A0 $A0 $80 $80 $00
2260: 54        BYTE $54 $54 $54 $54 $54 $54 $54 $54
2268: 2A        BYTE $2A $2A $2A $2A $2A $2A $2A $2A
2270: AA        BYTE $AA $AA $AA $2A $2A $2A $0A $0A
2278: AA        BYTE $AA $AA $AA $AA $AA $AA $A8 $A8
2280: 5F        BYTE $5F $5F $5F $5F $55 $55 $50 $50
2288: FF        BYTE $FF $FF $FF $FF $55 $55 $00 $00
2290: FF        BYTE $FF $FF $FF $FF $55 $55 $10 $10
2298: 50        BYTE $50 $50 $50 $55 $55 $00 $00 $00
22A0: 00        BYTE $00 $00 $00 $55 $55 $00 $00 $00
22A8: 10        BYTE $10 $10 $10 $10 $10 $10 $10 $10
22B0: 10        BYTE $10 $10 $10 $55 $55 $00 $00 $00
22B8: 05        BYTE $05 $05 $05 $55 $55 $00 $00 $00
22C0: AA        BYTE $AA $AA $AA $AA $AA $00 $00 $00
22C8: 00        BYTE $00 $00 $00 $AA $AA $AA $AA $AA
22D0: 20        BYTE $20 $80 $80 $80 $20 $20 $0A $02
22D8: 20        BYTE $20 $08 $08 $08 $20 $20 $80 $00
22E0: 00        BYTE $00 $00 $00 $00 $00 $02 $0A $20
22E8: 00        BYTE $00 $02 $08 $08 $08 $02 $80 $20
22F0: A0        BYTE $A0 $AA $A0 $A0 $A0 $A0 $A0 $AA
22F8: AA        BYTE $AA $AA $AA $AA $AA $AA $AA $AA
2300: 00        BYTE $00 $00 $0A $0A $2A $2A $2A $AA
2308: 55        BYTE $55 $55 $FF $FF $FF $FF $C3 $FC
2310: 3C        BYTE $3C $3C $3C $FF $55 $55 $00 $00
2318: 55        BYTE $55 $55 $FF $FF $FF $FF $C0 $CC
2320: CC        BYTE $CC $CC $C0 $FF $55 $55 $00 $00
2328: C0        BYTE $C0 $CC $C0 $FF $55 $55 $00 $00
2330: F3        BYTE $F3 $F3 $F0 $FF $55 $55 $00 $00
2338: 3C        BYTE $3C $3C $3C $FF $55 $55 $00 $00
2340: F3        BYTE $F3 $F3 $F3 $FF $55 $55 $10 $10
2348: 55        BYTE $55 $55 $FF $FF $F3 $FF $F3 $F3
2350: CF        BYTE $CF $CC $C0 $FF $55 $55 $00 $00
2358: 55        BYTE $55 $55 $FF $FF $3C $33 $0F $03
2360: 55        BYTE $55 $55 $FF $FF $FF $F3 $F3 $F3
2368: 55        BYTE $55 $55 $FF $FF $3C $00 $00 $3C
2370: CF        BYTE $CF $CF $CF $FF $55 $55 $00 $00
2378: 55        BYTE $55 $55 $FF $FF $FF $FF $C0 $CC
2380: F3        BYTE $F3 $F3 $C0 $FF $55 $55 $00 $00
2388: CC        BYTE $CC $CC $C0 $FF $55 $55 $10 $10
2390: 55        BYTE $55 $55 $FF $FF $FF $FF $C0 $CC
2398: 55        BYTE $55 $55 $FF $FF $FF $FF $C0 $CF
23A0: 55        BYTE $55 $55 $FF $FF $FF $F3 $C0 $F3
23A8: 55        BYTE $55 $55 $FF $FF $FF $FF $CC $CC
23B0: 55        BYTE $55 $55 $FF $FF $C0 $F3 $F3 $F3
23B8: C0        BYTE $C0 $FC $C0 $FF $55 $55 $00 $00
23C0: F3        BYTE $F3 $F3 $F0 $FF $55 $55 $00 $00
23C8: F3        BYTE $F3 $F3 $F3 $FF $55 $55 $00 $00
23D0: 00        BYTE $00 $00 $A8 $A8 $AA $AA $AA $AA
23D8: AA        BYTE $AA $AA $AA $2A $2A $0A $0A $00
23E0: 80        BYTE $80 $82 $8A $0A $2A $0A $0A $02
23E8: 00        BYTE $00 $00 $00 $30 $30 $00 $00 $00
23F0: 00        BYTE $00 $00 $80 $80 $A0 $80 $80 $00
23F8: 00        BYTE $00 $00 $00 $00 $00 $00 $00 $00
2400: 00        BYTE $00 $00 $00 $00 $00 $00 $00 $00
2408: 50        BYTE $50 $50 $50 $50 $50 $50 $50 $50
2410: 00        BYTE $00 $00 $00 $55 $55 $00 $00 $30
2418: 00        BYTE $00 $00 $00 $3F $F1 $C4 $D1 $C4
2420: 00        BYTE $00 $00 $00 $C2 $F2 $4A $0A $48
2428: 0A        BYTE $0A $A8 $80 $85 $05 $05 $F0 $F0
2430: A0        BYTE $A0 $28 $08 $0A $02 $0E $FE $FC
2438: 00        BYTE $00 $00 $00 $00 $00 $80 $80 $80
2440: A0        BYTE $A0 $00 $00 $55 $55 $00 $00 $00
2448: 20        BYTE $20 $80 $20 $08 $20 $0A $02 $00
2450: 08        BYTE $08 $02 $08 $20 $08 $A0 $80 $00
2458: F0        BYTE $F0 $CC $CC $CC $CC $CC $F0 $00
2460: FC        BYTE $FC $CC $CC $FC $C0 $C0 $C0 $00
2468: C0        BYTE $C0 $C0 $C0 $C0 $C0 $C0 $FC $00
2470: CC        BYTE $CC $CC $F0 $F0 $CC $CC $CC $00
2478: FC        BYTE $FC $CC $CC $FC $F0 $CC $CC $00
2480: 00        BYTE $00 $00 $30 $CC $03 $CC $30 $00
2488: 00        BYTE $00 $00 $00 $00 $03 $00 $00 $00
2490: 30        BYTE $30 $00 $00 $55 $55 $00 $00 $00
2498: D1        BYTE $D1 $C4 $F3 $34 $31 $34 $0D $03
24A0: 08        BYTE $08 $48 $38 $7A $3A $42 $12 $FC
24A8: F0        BYTE $F0 $05 $05 $05 $50 $50 $93 $AF
24B0: C0        BYTE $C0 $C0 $C0 $C2 $C2 $C2 $CA $28
24B8: 80        BYTE $80 $80 $A0 $A8 $9A $A6 $29 $0A
24C0: 2A        BYTE $2A $00 $00 $55 $55 $00 $00 $00
24C8: 00        BYTE $00 $02 $0A $20 $08 $20 $80 $20
24D0: 00        BYTE $00 $80 $A0 $08 $20 $08 $02 $08
24D8: FC        BYTE $FC $C0 $C0 $F0 $C0 $C0 $C0 $00
24E0: F0        BYTE $F0 $CC $CC $F0 $CC $CC $F0 $00
24E8: FC        BYTE $FC $CC $C0 $C0 $C0 $CC $FC $00
24F0: FC        BYTE $FC $C0 $C0 $F0 $C0 $C0 $FC $00
24F8: FC        BYTE $FC $C0 $C0 $FC $0C $0C $FC $00
2500: 00        BYTE $00 $00 $00 $55 $55 $4C $4C $4F
2508: 00        BYTE $00 $00 $FC $CC $FC $CC $CC $00
2510: 00        BYTE $00 $00 $00 $55 $55 $CF $CC $CF
2518: 00        BYTE $00 $00 $FC $CC $C0 $CC $FC $00
2520: 00        BYTE $00 $00 $00 $55 $55 $30 $30 $30
2528: 00        BYTE $00 $00 $FC $CC $FC $C0 $FC $00
2530: 00        BYTE $00 $0C $30 $3C $30 $30 $30 $00
2538: 00        BYTE $00 $00 $FC $C0 $FC $CC $FC $00
2540: 00        BYTE $00 $00 $00 $55 $55 $FD $CD $FD
2548: 30        BYTE $30 $00 $30 $30 $30 $30 $30 $00
2550: 4C        BYTE $4C $4C $40 $40 $40 $40 $40 $40
2558: CC        BYTE $CC $CF $00 $00 $03 $00 $00 $00
2560: 00        BYTE $00 $30 $30 $30 $30 $30 $30 $00
2568: 00        BYTE $00 $00 $CC $FC $FC $CC $CC $00
2570: 00        BYTE $00 $00 $F0 $CC $CC $CC $CC $00
2578: 00        BYTE $00 $00 $FC $CC $CC $CC $FC $00
2580: 00        BYTE $00 $00 $00 $00 $3C $00 $00 $00
2588: 30        BYTE $30 $3C $00 $C0 $30 $30 $C0 $C0
2590: 00        BYTE $00 $00 $FC $CC $C0 $C0 $C0 $00
2598: 00        BYTE $00 $00 $FC $C0 $FC $0C $FC $00
25A0: 00        BYTE $00 $30 $FC $30 $30 $30 $30 $00
25A8: 00        BYTE $00 $00 $CC $CC $CC $CC $FC $00
25B0: C5        BYTE $C5 $C5 $05 $05 $05 $05 $05 $05
25B8: 00        BYTE $00 $00 $CC $CC $FC $FC $CC $00
25C0: 00        BYTE $00 $00 $CC $CC $30 $CC $CC $00
25C8: 00        BYTE $00 $00 $CC $CC $30 $30 $30 $00
25D0: 40        BYTE $40 $40 $40 $55 $55 $00 $00 $00
25D8: 00        BYTE $00 $C0 $00 $55 $55 $00 $00 $00
25E0: 00        BYTE $00 $00 $00 $00 $00 $00 $00 $00
25E8: 00        BYTE $00 $00 $00 $00 $00 $00 $00 $00
25F0: 00        BYTE $00 $00 $00 $00 $00 $00 $00 $00
25F8: 00        BYTE $00 $00 $00 $00 $00 $00 $00 $00
2600: CC        BYTE $CC $FC $FC $CC $CC $CC $CC $00
2608: 00        BYTE $00 $00 $00 $55 $55 $50 $50 $50
2610: 05        BYTE $05 $05 $05 $05 $05 $05 $05 $05
2618: 00        BYTE $00 $00 $00 $55 $55 $05 $05 $05
2620: 00        BYTE $00 $00 $00 $55 $55 $10 $10 $10
2628: 30        BYTE $30 $00 $00 $55 $55 $00 $00 $00
2630: 00        BYTE $00 $00 $00 $00 $0F $00 $00 $00
2638: 30        BYTE $30 $30 $30 $CC $03 $CC $30 $30
2640: 00        BYTE $00 $00 $00 $00 $C0 $00 $00 $00
2648: 00        BYTE $00 $00 $00 $00 $30 $00 $00 $00
2650: 00        BYTE $00 $00 $00 $3C $3C $3C $00 $00
2658: FF        BYTE $FF $FF $FF $FF $FF $FF $FF $FF
2660: 54        BYTE $54 $54 $54 $54 $54 $54 $54 $54
2668: 2A        BYTE $2A $2A $2A $2A $2A $2A $2A $2A
2670: 00        BYTE $00 $00 $03 $00 $00 $00 $C0 $00
2678: 0C        BYTE $0C $00 $00 $55 $55 $00 $00 $00
2680: C0        BYTE $C0 $00 $00 $00 $30 $00 $00 $00
2688: 30        BYTE $30 $30 $30 $30 $30 $30 $30 $30
2690: 00        BYTE $00 $00 $00 $00 $0F $00 $00 $00
2698: 50        BYTE $50 $50 $50 $55 $55 $00 $00 $00
26A0: 00        BYTE $00 $00 $00 $55 $55 $00 $00 $00
26A8: 10        BYTE $10 $10 $10 $10 $10 $10 $10 $10
26B0: 10        BYTE $10 $10 $10 $55 $55 $00 $00 $00
26B8: 05        BYTE $05 $05 $05 $55 $55 $00 $00 $00
26C0: 00        BYTE $00 $00 $00 $00 $FF $00 $00 $00
26C8: 00        BYTE $00 $00 $00 $00 $F0 $00 $00 $00
26D0: 00        BYTE $00 $00 $00 $00 $00 $00 $03 $0F
26D8: 00        BYTE $00 $00 $03 $0F $3C $F0 $C0 $00
26E0: 00        BYTE $00 $00 $C0 $00 $00 $00 $00 $00
26E8: 00        BYTE $00 $00 $00 $00 $00 $00 $00 $00
26F0: A0        BYTE $A0 $AA $A0 $A0 $A0 $A0 $A0 $AA
26F8: AA        BYTE $AA $AA $AA $AA $AA $AA $AA $AA
2700: AA        BYTE $AA $AA $AA $AA $AA $AA $A0 $80
2708: 00        BYTE $00 $00 $A8 $A8 $AA $AA $AA $AA
2710: 2A        BYTE $2A $2A $2A $0A $0A $02 $02 $00
2718: AA        BYTE $AA $AA $AA $A8 $A8 $A0 $A0 $00
2720: 00        BYTE $00 $00 $00 $00 $0A $0A $2A $2A
2728: 00        BYTE $00 $00 $FC $CC $FC $C0 $FC $00
2730: 00        BYTE $00 $00 $00 $00 $80 $80 $A0 $A0
2738: 00        BYTE $00 $00 $0A $0A $2A $2A $2A $AA
2740: 00        BYTE $00 $60 $60 $7C $66 $66 $66 $00
2748: 00        BYTE $00 $18 $00 $38 $18 $18 $3C $00
2750: 08        BYTE $08 $08 $0A $02 $02 $02 $00 $00
2758: 00        BYTE $00 $00 $00 $22 $02 $02 $80 $2A
2760: 15        BYTE $15 $05 $01 $00 $00 $00 $08 $A0
2768: 00        BYTE $00 $CC $FC $FC $CC $CC $CC $00
2770: 00        BYTE $00 $00 $F0 $CC $CC $CC $CC $00
2778: 54        BYTE $54 $55 $54 $50 $00 $00 $00 $00
2780: 00        BYTE $00 $00 $7C $66 $66 $7C $60 $60
2788: 40        BYTE $40 $00 $00 $00 $00 $00 $00 $00
2790: 00        BYTE $00 $00 $00 $02 $0A $08 $08 $08
2798: 00        BYTE $00 $00 $00 $A8 $0A $00 $00 $00
27A0: 00        BYTE $00 $00 $00 $00 $01 $05 $15 $15
27A8: 00        BYTE $00 $00 $CC $CC $CC $CC $FC $00
27B0: 03        BYTE $03 $0D $34 $D1 $47 $1D $44 $51
27B8: 47        BYTE $47 $1D $74 $D1 $47 $1D $74 $D0
27C0: 44        BYTE $44 $1C $74 $D0 $40 $00 $00 $00
27C8: 00        BYTE $00 $00 $00 $00 $00 $0D $34 $D1
27D0: 00        BYTE $00 $00 $00 $00 $00 $54 $54 $D4
27D8: AA        BYTE $AA $AA $A8 $AA $AA $AA $AA $2A
27E0: 80        BYTE $80 $80 $80 $00 $02 $00 $00 $00
27E8: 00        BYTE $00 $00 $00 $30 $30 $00 $00 $00
27F0: 00        BYTE $00 $20 $A8 $A8 $AA $A8 $A8 $20
27F8: 00        BYTE $00 $00 $00 $00 $00 $00 $00 $00
2800: 00        BYTE $00 $00 $00 $00 $00 $00 $00 $00
2808: 0C        BYTE $0C $33 $33 $33 $0C $00 $FF $FF
2810: 30        BYTE $30 $F0 $30 $30 $30 $00 $FF $FF
2818: 30        BYTE $30 $CC $0C $30 $FC $00 $FF $FF
2820: FC        BYTE $FC $0C $30 $0C $FC $00 $FF $FF
2828: 00        BYTE $00 $00 $00 $00 $00 $01 $05 $05
2830: 00        BYTE $00 $10 $54 $45 $55 $55 $55 $15
2838: 00        BYTE $00 $14 $55 $55 $40 $54 $55 $01
2840: 01        BYTE $01 $07 $0C $0C $0C $0C $07 $01
2848: 00        BYTE $00 $00 $00 $00 $00 $00 $00 $00
2850: 00        BYTE $00 $00 $00 $40 $40 $00 $00 $00
2858: 04        BYTE $04 $04 $00 $00 $00 $00 $00 $00
2860: 54        BYTE $54 $52 $50 $40 $40 $00 $00 $00
2868: 80        BYTE $80 $A0 $80 $20 $A8 $20 $08 $2A
2870: FF        BYTE $FF $FF $FF $CF $CF $FF $FF $FF
2878: 03        BYTE $03 $03 $0F $03 $0F $03 $00 $00
2880: F4        BYTE $F4 $0D $F3 $C3 $C3 $F3 $0D $F4
2888: 44        BYTE $44 $10 $44 $10 $44 $10 $44 $10
2890: 88        BYTE $88 $20 $88 $20 $88 $20 $88 $20
2898: CC        BYTE $CC $30 $CC $30 $CC $30 $CC $30
28A0: 64        BYTE $64 $98 $64 $98 $64 $98 $64 $98
28A8: 74        BYTE $74 $DC $74 $DC $74 $DC $74 $DC
28B0: EC        BYTE $EC $B8 $EC $B8 $EC $B8 $EC $B8
28B8: 20        BYTE $20 $44 $20 $44 $20 $44 $20 $44
28C0: CC        BYTE $CC $20 $CC $20 $CC $20 $CC $20
28C8: 74        BYTE $74 $98 $74 $98 $74 $98 $74 $98
28D0: 64        BYTE $64 $10 $64 $10 $64 $10 $64 $10
28D8: B8        BYTE $B8 $64 $B8 $64 $B8 $64 $B8 $64
28E0: B8        BYTE $B8 $20 $B8 $20 $B8 $20 $B8 $20
28E8: C8        BYTE $C8 $FA $E8 $EA $FA $FF $FF $3F
28F0: FC        BYTE $FC $BF $AC $AF $BC $FF $FC $F0
28F8: 00        BYTE $00 $00 $00 $00 $00 $00 $00 $F0
2900: 00        BYTE $00 $0C $30 $C0 $F0 $0C $0C $00
2908: 44        BYTE $44 $11 $44 $11 $44 $11 $44 $11
2910: 88        BYTE $88 $22 $88 $22 $88 $22 $88 $22
2918: CC        BYTE $CC $33 $CC $33 $CC $33 $CC $33
2920: 66        BYTE $66 $99 $66 $99 $66 $99 $66 $99
2928: 77        BYTE $77 $DD $77 $DD $77 $DD $77 $DD
2930: EE        BYTE $EE $BB $EE $BB $EE $BB $EE $BB
2938: 22        BYTE $22 $44 $22 $44 $22 $44 $22 $44
2940: CC        BYTE $CC $22 $CC $22 $CC $22 $CC $22
2948: 77        BYTE $77 $99 $77 $99 $77 $99 $77 $99
2950: 66        BYTE $66 $11 $66 $11 $66 $11 $66 $11
2958: BB        BYTE $BB $66 $BB $66 $BB $66 $BB $66
2960: BB        BYTE $BB $22 $BB $22 $BB $22 $BB $22
2968: 00        BYTE $00 $FC $CC $C0 $C0 $CC $FC $00
2970: 00        BYTE $00 $FC $C0 $C0 $CC $CC $FC $00
2978: 00        BYTE $00 $FC $30 $30 $30 $30 $FC $00
2980: 00        BYTE $00 $30 $F0 $30 $30 $30 $FC $00
2988: 00        BYTE $00 $FC $CC $FC $0C $0C $FC $00
2990: 00        BYTE $00 $FC $CC $FC $F0 $CC $CC $00
2998: 00        BYTE $00 $FC $C0 $FC $0C $0C $FC $00
29A0: 00        BYTE $00 $F0 $CC $CC $CC $CC $F0 $00
29A8: 00        BYTE $00 $C0 $C0 $C0 $C0 $C0 $FC $00
29B0: 00        BYTE $00 $FC $CC $FC $CC $CC $CC $00
29B8: 00        BYTE $00 $FC $C0 $FC $C0 $C0 $FC $00
29C0: 00        BYTE $00 $CC $FC $FC $CC $CC $CC $00
29C8: 00        BYTE $00 $CC $EC $FC $FC $DC $CC $00
29D0: 00        BYTE $00 $FC $CC $CC $CC $CC $FC $00
29D8: 00        BYTE $00 $FC $CC $FC $C0 $C0 $C0 $00
29E0: 00        BYTE $00 $FC $30 $30 $30 $30 $30 $00
29E8: 00        BYTE $00 $CC $CC $CC $CC $CC $FC $00
29F0: 00        BYTE $00 $FC $CC $FC $CC $CC $FC $00
29F8: 00        BYTE $00 $FC $0C $3C $0C $0C $FC $00
2A00: C0        BYTE $C0 $C0 $C0 $C0 $C0 $C0 $C0 $C0
2A08: FF        BYTE $FF $FF $FF $CF $CF $FF $FF $FF
2A10: 03        BYTE $03 $03 $03 $03 $03 $03 $03 $03
2A18: 55        BYTE $55 $55 $55 $55 $55 $55 $55 $55
2A20: 00        BYTE $00 $C0 $CF $C0 $CF $CC $CF $00
2A28: 57        BYTE $57 $57 $57 $57 $57 $57 $57 $57
2A30: 00        BYTE $00 $00 $C0 $C0 $C0 $C0 $C0 $00
2A38: AA        BYTE $AA $AA $AA $AA $AA $AA $AA $AA
2A40: AB        BYTE $AB $AB $AB $AB $AB $AB $AB $AB
2A48: FF        BYTE $FF $FF $FF $FF $FF $FF $FF $FF
2A50: FF        BYTE $FF $FF $FF $CF $CF $FF $FF $FF
2A58: 03        BYTE $03 $03 $00 $00 $00 $00 $00 $00
2A60: C0        BYTE $C0 $C0 $00 $00 $00 $00 $00 $00
2A68: FF        BYTE $FF $FF $00 $00 $00 $00 $00 $00
2A70: FF        BYTE $FF $FF $FF $CF $CF $FF $FF $FF
2A78: 00        BYTE $00 $00 $00 $00 $00 $00 $C0 $C0
2A80: 00        BYTE $00 $00 $00 $00 $00 $00 $03 $03
2A88: 00        BYTE $00 $00 $00 $00 $00 $00 $FF $FF
2A90: FF        BYTE $FF $FF $FF $CF $CF $FF $FF $FF
2A98: FF        BYTE $FF $FF $FF $CF $CF $FF $FF $FF
2AA0: FF        BYTE $FF $FF $FF $CF $CF $FF $FF $FF
2AA8: FF        BYTE $FF $FF $FF $CF $CF $FF $FF $FF
2AB0: FF        BYTE $FF $FF $FF $CF $CF $FF $FF $FF
2AB8: FF        BYTE $FF $FF $FF $CF $CF $FF $FF $FF
2AC0: FF        BYTE $FF $FF $FF $CF $CF $FF $FF $FF
2AC8: FF        BYTE $FF $FF $FF $CF $CF $FF $FF $FF
2AD0: FF        BYTE $FF $FF $FF $CF $CF $FF $FF $FF
2AD8: FF        BYTE $FF $FF $FF $CF $CF $FF $FF $FF
2AE0: 00        BYTE $00 $03 $03 $03 $03 $03 $03 $00
2AE8: 00        BYTE $00 $18 $18 $18 $7E $3C $18 $00
2AF0: 00        BYTE $00 $00 $0C $3C $FF $3C $0C $00
2AF8: 00        BYTE $00 $00 $C0 $F0 $FC $F0 $C0 $00
2B00: 00        BYTE $00 $30 $CC $30 $CF $CC $33 $00
2B08: 00        BYTE $00 $00 $FC $0C $FC $CC $FC $00
2B10: 00        BYTE $00 $C0 $C0 $FC $CC $CC $FC $00
2B18: 00        BYTE $00 $00 $FC $C0 $C0 $C0 $FC $00
2B20: 00        BYTE $00 $0C $0C $FC $CC $CC $FC $00
2B28: 00        BYTE $00 $00 $FC $CC $FC $C0 $FC $00
2B30: 00        BYTE $00 $3C $30 $FC $30 $30 $30 $00
2B38: 00        BYTE $00 $00 $FC $CC $CC $FC $0C $FC
2B40: 00        BYTE $00 $C0 $C0 $FC $CC $CC $CC $00
2B48: 00        BYTE $00 $30 $00 $30 $30 $30 $30 $00
2B50: 00        BYTE $00 $0C $00 $0C $0C $0C $CC $FC
2B58: 00        BYTE $00 $C0 $CC $F0 $CC $CC $CC $00
2B60: 00        BYTE $00 $30 $30 $30 $30 $30 $30 $00
2B68: 00        BYTE $00 $00 $CC $FC $FC $CC $CC $00
2B70: 00        BYTE $00 $00 $F0 $CC $CC $CC $CC $00
2B78: 00        BYTE $00 $00 $FC $CC $CC $CC $FC $00
2B80: 00        BYTE $00 $00 $FC $CC $CC $FC $C0 $C0
2B88: 00        BYTE $00 $00 $FC $CC $CC $FC $0C $0C
2B90: 00        BYTE $00 $00 $FC $CC $C0 $C0 $C0 $00
2B98: 00        BYTE $00 $00 $FC $C0 $FC $0C $FC $00
2BA0: 00        BYTE $00 $30 $FC $30 $30 $30 $30 $00
2BA8: 00        BYTE $00 $00 $CC $CC $CC $CC $3C $00
2BB0: 00        BYTE $00 $00 $CC $CC $CC $CC $30 $00
2BB8: 00        BYTE $00 $00 $CC $CC $FC $FC $CC $00
2BC0: 00        BYTE $00 $00 $CC $CC $30 $CC $CC $00
2BC8: 00        BYTE $00 $00 $CC $CC $CC $FC $0C $FC
2BD0: 00        BYTE $00 $00 $FC $0C $30 $C0 $FC $00
2BD8: FF        BYTE $FF $FF $FF $CF $CF $FF $FF $FF
2BE0: FF        BYTE $FF $FF $FF $CF $CF $FF $FF $FF
2BE8: FF        BYTE $FF $FF $FF $CF $CF $FF $FF $FF
2BF0: FF        BYTE $FF $FF $FF $CF $CF $FF $FF $FF
2BF8: 00        BYTE $00 $00 $00 $00 $00 $00 $00 $00
2C00: 00        BYTE $00 $00 $00 $00 $00 $00 $00 $00
2C08: 00        BYTE $00 $00 $3F $03 $3F $33 $3F $00
2C10: 00        BYTE $00 $00 $FF $FF $DF $CF $0F $0F
2C18: 00        BYTE $00 $00 $3F $33 $30 $33 $3F $00
2C20: 00        BYTE $00 $00 $00 $00 $00 $3F $3F $00
2C28: 00        BYTE $00 $00 $3F $33 $3F $30 $3F $00
2C30: 00        BYTE $00 $00 $C0 $C0 $C0 $C0 $FD $FF
2C38: 00        BYTE $00 $00 $3F $33 $33 $3F $03 $3F
2C40: 00        BYTE $00 $30 $30 $3F $33 $33 $33 $00
2C48: 0C        BYTE $0C $00 $3C $0C $0C $0C $3F $00
2C50: 0F        BYTE $0F $0F $0F $0F $0F $0F $3F $3F
2C58: 03        BYTE $03 $03 $03 $03 $03 $03 $C3 $C3
2C60: 00        BYTE $00 $3C $0C $0C $0C $0C $3F $00
2C68: D3        BYTE $D3 $C3 $C3 $C3 $C3 $C3 $C3 $C3
2C70: 00        BYTE $00 $00 $3C $33 $33 $33 $33 $00
2C78: 00        BYTE $00 $00 $3F $33 $33 $33 $3F $00
2C80: 00        BYTE $00 $00 $3F $33 $33 $3F $30 $30
2C88: CF        BYTE $CF $CD $CF $CF $CD $CF $C7 $C1
2C90: 00        BYTE $00 $00 $3F $33 $30 $30 $30 $00
2C98: 00        BYTE $00 $00 $3F $30 $3F $03 $3F $00
2CA0: 00        BYTE $00 $0C $3F $0C $0C $0C $0F $00
2CA8: 0F        BYTE $0F $07 $FF $FD $00 $00 $FC $FC
2CB0: 00        BYTE $00 $00 $00 $00 $00 $00 $01 $47
2CB8: 00        BYTE $00 $00 $F3 $F3 $73 $33 $03 $03
2CC0: 00        BYTE $00 $00 $00 $00 $00 $00 $F4 $FD
2CC8: 00        BYTE $00 $0F $3F $3D $3C $3D $3F $0F
2CD0: 3F        BYTE $3F $33 $30 $30 $30 $33 $3F $00
2CD8: 0F        BYTE $0F $FF $FF $0F $0F $0F $FF $FF
2CE0: 00        BYTE $00 $00 $00 $00 $00 $FC $FF $1F
2CE8: FF        BYTE $FF $FF $FF $FF $F3 $F3 $FF $FF
2CF0: 3F        BYTE $3F $3F $0C $0C $0C $0C $0C $00
2CF8: 10        BYTE $10 $18 $1C $1E $1C $18 $10 $00
2D00: 03        BYTE $03 $03 $03 $03 $03 $03 $03 $03
2D08: 3F        BYTE $3F $3F $3F $00 $00 $00 $00 $00
2D10: 00        BYTE $00 $00 $00 $00 $00 $00 $03 $03
2D18: 00        BYTE $00 $00 $00 $00 $00 $00 $F0 $FC
2D20: 03        BYTE $03 $03 $00 $00 $00 $00 $00 $03
2D28: FF        BYTE $FF $FF $00 $00 $00 $3F $FF $FF
2D30: FF        BYTE $FF $FF $FF $3F $3F $FF $FF $FF
2D38: FF        BYTE $FF $FC $F0 $F0 $F0 $F0 $FC $FF
2D40: FF        BYTE $FF $00 $00 $00 $00 $00 $00 $FF
2D48: FF        BYTE $FF $3F $3F $3F $3F $3F $3F $FF
2D50: 03        BYTE $03 $00 $00 $00 $00 $00 $00 $00
2D58: FF        BYTE $FF $FF $3F $00 $00 $00 $00 $00
2D60: C0        BYTE $C0 $C0 $C1 $C3 $C7 $CF $DF $FF
2D68: 7C        BYTE $7C $F4 $F0 $D0 $C0 $40 $F0 $FC
2D70: 3C        BYTE $3C $3C $3C $3C $3C $3C $3C $3C
2D78: 00        BYTE $00 $00 $00 $00 $00 $3F $FF $F4
2D80: 00        BYTE $00 $00 $00 $00 $00 $F0 $FC $7C
2D88: F0        BYTE $F0 $F0 $F0 $F0 $F0 $F4 $FF $3F
2D90: 3C        BYTE $3C $3C $3C $3C $3C $7C $FC $F0
2D98: 00        BYTE $00 $00 $00 $00 $00 $FF $FF $00
2DA0: 00        BYTE $00 $00 $00 $00 $00 $F0 $FC $7C
2DA8: 00        BYTE $00 $3F $FF $F4 $F0 $F4 $FF $3F
2DB0: 3C        BYTE $3C $FC $FC $3C $3C $3C $FC $FC
2DB8: FF        BYTE $FF $FF $FF $00 $00 $00 $00 $00
2DC0: C0        BYTE $C0 $C0 $C0 $C0 $C0 $C0 $C0 $C0
2DC8: FF        BYTE $FF $FF $FF $FF $F3 $F3 $FF $FF
2DD0: FF        BYTE $FF $FF $FF $FF $F3 $F3 $FF $FF
2DD8: FF        BYTE $FF $FF $FF $FF $F3 $F3 $FF $FF
2DE0: 00        BYTE $00 $00 $00 $00 $00 $FC $FF $1F
2DE8: FF        BYTE $FF $FF $FF $FF $F3 $F3 $FF $FF
2DF0: 00        BYTE $00 $00 $00 $00 $FC $30 $30 $30
2DF8: 00        BYTE $00 $00 $00 $00 $FC $FC $CC $CC
2E00: 40        BYTE $40 $41 $41 $41 $41 $41 $41 $41
2E08: 41        BYTE $41 $6B $6F $61 $6C $61 $41 $6D
2E10: 69        BYTE $69 $63 $72 $6F $41 $76 $6C $6C
2E18: 75        BYTE $75 $73 $74 $72 $61 $74 $6F $72
2E20: 41        BYTE $41 $41 $41 $41 $41 $41 $41 $47
2E28: 50        BYTE $50 $51 $51 $51 $51 $51 $51 $51
2E30: 52        BYTE $52 $62 $64 $65 $79 $65 $51 $67
2E38: 68        BYTE $68 $6A $6E $64 $51 $70 $66 $66
2E40: 71        BYTE $71 $77 $78 $6E $65 $78 $64 $6E
2E48: 52        BYTE $52 $51 $51 $51 $51 $51 $51 $48
2E50: 01        BYTE $01 $0B $32 $21 $37 $00 $00 $00
2E58: 55        BYTE $55 $0C $2F $29 $2E $34 $00 $00
2E60: 55        BYTE $55 $0D $29 $2E $25 $00 $00 $00
2E68: 55        BYTE $55 $0E $30 $2C $29 $2E $25 $00
2E70: 55        BYTE $55 $0F $21 $39 $33 $00 $00 $42
2E78: 01        BYTE $01 $00 $10 $11 $00 $13 $14 $00
2E80: 55        BYTE $55 $00 $15 $16 $15 $16 $00 $00
2E88: 55        BYTE $55 $00 $00 $00 $00 $00 $12 $00
2E90: 55        BYTE $55 $00 $00 $4A $1E $1F $00 $00
2E98: 55        BYTE $55 $00 $09 $0A $0B $0C $0D $42
2EA0: 01        BYTE $01 $00 $20 $21 $22 $23 $00 $00
2EA8: 55        BYTE $55 $00 $25 $26 $27 $28 $16 $00
2EB0: 55        BYTE $55 $00 $00 $29 $2A $2B $12 $00
2EB8: 55        BYTE $55 $00 $2C $2D $2E $2F $00 $00
2EC0: 55        BYTE $55 $00 $19 $1A $1B $1C $1D $42
2EC8: 02        BYTE $02 $46 $46 $46 $46 $46 $46 $46
2ED0: 45        BYTE $45 $46 $46 $46 $46 $46 $46 $46
2ED8: 45        BYTE $45 $46 $46 $46 $46 $46 $46 $46
2EE0: 45        BYTE $45 $46 $46 $46 $46 $46 $46 $46
2EE8: 45        BYTE $45 $46 $46 $46 $46 $46 $46 $43
2EF0: 01        BYTE $01 $1B $29 $2C $2C $00 $00 $00
2EF8: 55        BYTE $55 $1B $32 $21 $2D $25 $00 $00
2F00: 55        BYTE $55 $1C $2F $38 $00 $00 $00 $00
2F08: 55        BYTE $55 $1D $29 $32 $23 $2C $25 $00
2F10: 55        BYTE $55 $0B $29 $33 $23 $64 $66 $42
2F18: 01        BYTE $01 $00 $35 $36 $37 $38 $39 $00
2F20: 55        BYTE $55 $00 $3F $2C $24 $18 $03 $00
2F28: 55        BYTE $55 $00 $59 $59 $00 $58 $58 $00
2F30: 55        BYTE $55 $00 $5C $5D $0E $06 $07 $00
2F38: 55        BYTE $55 $00 $60 $7A $04 $7B $4B $42
2F40: 01        BYTE $01 $00 $30 $31 $32 $33 $34 $00
2F48: 55        BYTE $55 $00 $3A $3B $3C $3D $3E $00
2F50: 55        BYTE $55 $00 $58 $58 $4D $49 $00 $00
2F58: 55        BYTE $55 $00 $5A $5B $0F $04 $05 $00
2F60: 55        BYTE $55 $00 $4E $4F $7C $7E $00 $42
2F68: 02        BYTE $02 $46 $46 $46 $46 $46 $46 $46
2F70: 45        BYTE $45 $46 $46 $46 $46 $46 $46 $46
2F78: 45        BYTE $45 $46 $46 $46 $46 $46 $46 $46
2F80: 45        BYTE $45 $46 $46 $46 $46 $08 $46 $46
2F88: 45        BYTE $45 $46 $46 $46 $46 $46 $46 $43
2F90: 01        BYTE $01 $1E $32 $21 $33 $25 $79 $7A
2F98: 55        BYTE $55 $1F $34 $2F $32 $21 $27 $25
2FA0: 55        BYTE $55 $40 $29 $32 $32 $2F $32 $00
2FA8: 55        BYTE $55 $40 $21 $27 $2E $29 $26 $39
2FB0: 55        BYTE $55 $1D $2F $2C $2F $32 $00 $42
2FB8: 01        BYTE $01 $00 $72 $73 $74 $76 $77 $78
2FC0: 55        BYTE $55 $00 $00 $4D $60 $7B $00 $00
2FC8: 55        BYTE $55 $00 $00 $09 $00 $0A $00 $00
2FD0: 55        BYTE $55 $00 $03 $04 $05 $06 $07 $00
2FD8: 55        BYTE $55 $00 $40 $25 $2E $35 $00 $42
2FE0: 01        BYTE $01 $00 $6A $6B $6C $6F $71 $00
2FE8: 55        BYTE $55 $00 $00 $4D $5E $5F $00 $00
2FF0: 55        BYTE $55 $00 $00 $19 $00 $1A $00 $00
2FF8: 55        BYTE $55 $00 $13 $14 $15 $16 $17 $07
3000: 55        BYTE $55 $00 $00 $4D $4B $4C $00 $42
3008: 53        BYTE $53 $54 $54 $54 $54 $54 $54 $54
3010: 56        BYTE $56 $54 $54 $54 $54 $54 $54 $54
3018: 56        BYTE $56 $54 $54 $54 $54 $54 $54 $54
3020: 56        BYTE $56 $54 $54 $54 $18 $08 $54 $54
3028: 56        BYTE $56 $54 $54 $54 $54 $54 $54 $57
3030: 41        BYTE $41 $54 $54 $54 $44 $54 $54 $54
3038: 44        BYTE $44 $54 $54 $54 $44 $54 $54 $54
3040: 44        BYTE $44 $54 $54 $54 $44 $54 $02 $54
3048: 44        BYTE $44 $54 $54 $54 $44 $54 $54 $54
3050: 44        BYTE $44 $54 $54 $54 $20 $22 $24 $28
3058: 01        BYTE $01 $46 $47 $48 $55 $00 $49 $00
3060: 55        BYTE $55 $00 $4A $00 $55 $00 $4E $00
3068: 55        BYTE $55 $00 $50 $00 $55 $00 $51 $00
3070: 55        BYTE $55 $52 $58 $59 $55 $5A $5B $5C
3078: 55        BYTE $55 $11 $10 $00 $2A $2B $31 $36
3080: 53        BYTE $53 $54 $45 $54 $56 $54 $54 $54
3088: 56        BYTE $56 $54 $54 $54 $56 $54 $54 $54
3090: 56        BYTE $56 $54 $4F $54 $56 $54 $45 $54
3098: 56        BYTE $56 $54 $54 $54 $56 $54 $54 $54
30A0: 56        BYTE $56 $54 $54 $54 $3A $54 $3B $57
30A8: 00        BYTE $00 $D0 $D1 $D1 $D1 $D1 $D1 $D1
30B0: D1        BYTE $D1 $D1 $D1 $D1 $D1 $D1 $D1 $D1
30B8: D1        BYTE $D1 $D1 $D1 $D1 $D1 $D1 $D1 $D1
30C0: D1        BYTE $D1 $D1 $D1 $D1 $D1 $D1 $D1 $D1
30C8: D1        BYTE $D1 $D1 $D1 $D1 $D1 $D1 $CF $00
30D0: 00        BYTE $00 $C2 $00 $00 $00 $00 $00 $00
30D8: 00        BYTE $00 $00 $C2 $43 $43 $43 $43 $43
30E0: 43        BYTE $43 $43 $43 $C5 $47 $47 $47 $47
30E8: 47        BYTE $47 $47 $47 $47 $C8 $49 $49 $49
30F0: 49        BYTE $49 $49 $49 $49 $49 $49 $C0 $00
30F8: 00        BYTE $00 $CB $CD $CD $CD $CD $CD $CD
3100: CD        BYTE $CD $CD $CD $CD $CD $CD $CD $CD
3108: CD        BYTE $CD $CD $CD $CD $CD $CD $CD $CD
3110: CD        BYTE $CD $CD $CD $CD $CD $CD $CD $CD
3118: CD        BYTE $CD $CD $CD $CD $CD $CD $CC $00
3120: 00        BYTE $00 $00 $21 $21 $11 $22 $22 $12
3128: 23        BYTE $23 $23 $13 $24 $24 $14 $25 $25
3130: 15        BYTE $15 $26 $26 $16 $27 $27 $17 $28
3138: 28        BYTE $28 $18 $29 $29 $19 $2A $2A $1A
3140: 2B        BYTE $2B $2B $1B $2C $2C $1C $00 $00
3148: 00        BYTE $00 $00 $00 $00 $00 $00 $00 $00
3150: 00        BYTE $00 $00 $00 $00 $00 $00 $00 $00
3158: 00        BYTE $00 $00 $00 $00 $00 $00 $00 $00
3160: 00        BYTE $00 $00 $00 $00 $00 $00 $00 $00
3168: 00        BYTE $00 $00 $00 $00 $00 $00 $00 $00
3170: 65        BYTE $65 $6C $69 $6A $61 $00 $69 $63
3178: 6F        BYTE $6F $6E $6F $00 $79 $00 $70 $72
3180: 65        BYTE $65 $73 $69 $6F $6E $65 $00 $6C
3188: 61        BYTE $61 $00 $62 $61 $72 $72 $61 $00
3190: 65        BYTE $65 $73 $70 $61 $63 $69 $6F $00
3198: 70        BYTE $70 $70 $70 $70 $70 $70 $70 $44
31A0: CB        BYTE $CB $31 $44 $04 $32 $C4 $48 $32
31A8: D7        BYTE $D7 $6E $32 $70 $70 $70 $70 $70
31B0: 44        BYTE $44 $DF $31 $44 $19 $32 $70 $70
31B8: 42        BYTE $42 $81 $32 $70 $44 $A7 $32 $44
31C0: CA        BYTE $CA $32 $44 $ED $32 $44 $3E $32
31C8: 41        BYTE $41 $98 $31 $00 $00 $00 $00 $02
31D0: 17        BYTE $17 $06 $16 $23 $00 $20 $2C $2D
31D8: 2F        BYTE $2F $30 $33 $34 $2E $04 $3C $00
31E0: 00        BYTE $00 $00 $00 $00 $00 $00 $00 $00
31E8: 00        BYTE $00 $00 $00 $00 $00 $00 $00 $00
31F0: 00        BYTE $00 $00 $00 $70 $72 $69 $73 $6D
31F8: 61        BYTE $61 $00 $73 $6F $66 $74 $00 $00
3200: 00        BYTE $00 $00 $00 $00 $00 $00 $00 $00
3208: 0A        BYTE $0A $0B $0D $11 $15 $00 $20 $38
3210: 2E        BYTE $2E $31 $32 $35 $36 $2E $19 $1B
3218: 00        BYTE $00 $00 $00 $00 $00 $00 $00 $00
3220: 00        BYTE $00 $00 $00 $00 $00 $00 $00 $00
3228: 00        BYTE $00 $00 $00 $00 $00 $00 $00 $00
3230: 00        BYTE $00 $00 $00 $00 $00 $00 $00 $00
3238: 00        BYTE $00 $00 $00 $00 $00 $00 $00 $00
3240: 00        BYTE $00 $00 $00 $00 $8F $9D $9E $00
3248: 00        BYTE $00 $00 $00 $00 $00 $00 $00 $00
3250: 00        BYTE $00 $00 $00 $00 $00 $00 $00 $00
3258: 00        BYTE $00 $00 $00 $00 $00 $00 $00 $00
3260: 00        BYTE $00 $00 $00 $00 $00 $00 $00 $00
3268: 00        BYTE $00 $00 $00 $00 $3E $3F $00 $00
3270: AD        BYTE $AD $A9 $A3 $B2 $AF $00 $A9 $AC
3278: AC        BYTE $AC $B5 $B3 $B4 $B2 $A1 $B4 $AF
3280: B2        BYTE $B2 $00 $00 $6D $6F $64 $69 $66
3288: 69        BYTE $69 $65 $64 $00 $66 $6F $72 $00
3290: 63        BYTE $63 $61 $73 $73 $65 $74 $74 $65
3298: 00        BYTE $00 $62 $79 $00 $72 $61 $67 $6D
32A0: 61        BYTE $61 $6E $00 $74 $6D $00 $00 $00
32A8: 00        BYTE $00 $2D $6F $70 $79 $72 $69 $67
32B0: 68        BYTE $68 $74 $08 $10 $00 $30 $31 $3E
32B8: 3F        BYTE $3F $00 $00 $00 $00 $00 $00 $00
32C0: 00        BYTE $00 $00 $00 $00 $00 $00 $00 $00
32C8: 00        BYTE $00 $00 $00 $00 $00 $00 $00 $05
32D0: 06        BYTE $06 $07 $00 $00 $00 $2F $73 $6C
32D8: 61        BYTE $61 $6E $64 $00 $2E $72 $61 $70
32E0: 68        BYTE $68 $69 $63 $73 $00 $2D $6F $72
32E8: 70        BYTE $70 $00 $00 $00 $00 $00 $00 $00
32F0: 00        BYTE $00 $00 $0B $0C $0D $9F $00 $00
32F8: 00        BYTE $00 $00 $00 $00 $00 $00 $00 $00
3300: 00        BYTE $00 $36 $6C $6C $00 $32 $69 $67
3308: 68        BYTE $68 $74 $73 $00 $32 $65 $73 $65
3310: 72        BYTE $72 $76 $65 $64 $00
3315: 20 B6 48  jsr $48B6      ; L_48B6
3318: A9 0C     lda #$0C
331A: 85 FD     sta $FD        ; FLPTR+1
331C: 20 87 3F  jsr $3F87      ; L_3F87
331F: A9 60     lda #$60
3321: 85 FB     sta $FB        ; RADFLG
3323: A2 60     ldx #$60
3325: A9 0C     lda #$0C
3327: 9D 42 03  sta $0342,x    ; B0_ICCOM
332A: 20 56 E4  jsr $E456      ; CIOV
332D: A9 03     lda #$03
332F: 9D 42 03  sta $0342,x    ; B0_ICCOM
3332: A9 7B     lda #$7B
3334: 9D 44 03  sta $0344,x    ; B0_ICBAL
3337: A9 34     lda #$34
3339: 9D 45 03  sta $0345,x    ; B0_ICBAH
333C: A9 38     lda #$38
333E: 9D 4B 03  sta $034B,x    ; B0_ICAX2
3341: A5 FD     lda $FD        ; FLPTR+1
3343: 9D 4A 03  sta $034A,x    ; B0_ICAX1
3346: 20 56 E4  jsr $E456      ; CIOV
3349: A2 04     ldx #$04
334B: BD 9B 04  lda $049B,x
334E: 9D C4 02  sta $02C4,x    ; COLOR0
3351: CA        dex
3352: 10 F7     bpl $334B      ; L_334B
3354: A9 2C     lda #$2C
3356: 85 FD     sta $FD        ; FLPTR+1
3358: A9 07     lda #$07
335A: A0 03     ldy #$03
335C: A2 54     ldx #$54
335E: 20 5C E4  jsr $E45C      ; SETVBV
3361: A9 40     lda #$40
3363: 8D 0E D4  sta $D40E      ; NMIEN
3366: A9 FF     lda #$FF
3368: 8D 44 02  sta $0244      ; COLDST
336B: 4C A1 33  jmp $33A1      ; L_33A1
336E: AD 78 02  lda $0278      ; check JoyStick / STICK0
3371: C9 FF     cmp #$FF
3373: F0 F9     beq $336E      ; WAIT_STICK
3375: A2 FF     ldx #$FF
3377: 8E 78 02  stx $0278      ; STICK0
337A: A8        tay
337B: 29 01     and #$01       ; check JoyStick Y
337D: D0 02     bne $3381      ; L_3381
337F: C6 01     dec $01        ; STICK_Y
3381: 98        tya
3382: 29 02     and #$02
3384: D0 02     bne $3388      ; L_3388
3386: E6 01     inc $01        ; STICK_Y
3388: 98        tya
3389: 29 04     and #$04       ; check JoyStick X
338B: D0 02     bne $338F      ; L_338F
338D: C6 00     dec $00        ; STICK_X
338F: 98        tya
3390: 29 08     and #$08
3392: D0 02     bne $3396      ; L_3396
3394: E6 00     inc $00        ; STICK_X
3396: A0 00     ldy #$00
3398: 8A        txa
3399: C5 00     cmp $00        ; STICK_X
339B: D0 03     bne $33A0      ; L_33A0
339D: E6 00     inc $00        ; STICK_X
339F: C8        iny
33A0: 60        rts
33A1: A5 09     lda $09        ; BOOT
33A3: C9 01     cmp #$01
33A5: D0 03     bne $33AA      ; L_33AA
33A7: 20 E0 07  jsr $07E0
33AA: AD 30 02  lda $0230      ; SDLSTL
33AD: 85 BB     sta $BB        ; STOPLN+1
33AF: AD 31 02  lda $0231      ; SDLSTH
33B2: 85 BC     sta $BC        ; TRAPLN
33B4: 38        sec
33B5: E9 05     sbc #$05
33B7: 29 F8     and #$F8
33B9: 69 03     adc #$03
33BB: 85 F1     sta $F1        ; DIGRT
33BD: A9 00     lda #$00
33BF: 85 F0     sta $F0        ; FCHRFLG
33C1: 20 93 3D  jsr $3D93      ; L_3D93
33C4: A0 03     ldy #$03
33C6: B1 BB     lda ($BB),y    ; STOPLN+1
33C8: C9 4F     cmp #$4F
33CA: D0 08     bne $33D4      ; L_33D4
33CC: A9 4E     lda #$4E
33CE: 91 BB     sta ($BB),y    ; STOPLN+1
33D0: C8        iny
33D1: C8        iny
33D2: D0 08     bne $33DC      ; L_33DC
33D4: C9 0F     cmp #$0F
33D6: D0 04     bne $33DC      ; L_33DC
33D8: A9 0E     lda #$0E
33DA: 91 BB     sta ($BB),y    ; STOPLN+1
33DC: C8        iny
33DD: B1 BB     lda ($BB),y    ; STOPLN+1
33DF: C9 41     cmp #$41
33E1: D0 E3     bne $33C6      ; L_33C6
33E3: A0 04     ldy #$04
33E5: B1 BB     lda ($BB),y    ; STOPLN+1
33E7: 85 BD     sta $BD        ; TRAPLN+1
33E9: 8D A1 04  sta $04A1
33EC: C8        iny
33ED: B1 BB     lda ($BB),y    ; STOPLN+1
33EF: 85 BE     sta $BE        ; SAVCUR
33F1: 8D 61 05  sta $0561
33F4: A0 00     ldy #$00
33F6: 84 CF     sty $CF
33F8: 84 D0     sty $D0
33FA: 18        clc
33FB: B9 A1 04  lda $04A1,y
33FE: 69 28     adc #$28
3400: 99 A2 04  sta $04A2,y
3403: B9 61 05  lda $0561,y
3406: 69 00     adc #$00
3408: 99 62 05  sta $0562,y
340B: C8        iny
340C: C0 BF     cpy #$BF
340E: D0 EA     bne $33FA      ; L_33FA
3410: A9 70     lda #$70
3412: A2 03     ldx #$03
3414: 9D 20 06  sta $0620,x
3417: CA        dex
3418: D0 FA     bne $3414      ; L_3414
341A: A9 41     lda #$41
341C: 8D 6C 06  sta $066C
341F: A9 21     lda #$21
3421: 8D 6D 06  sta $066D
3424: A9 06     lda #$06
3426: 8D 6E 06  sta $066E
3429: A2 45     ldx #$45
342B: A9 58     lda #$58
342D: 9D 24 06  sta $0624,x
3430: CA        dex
3431: CA        dex
3432: CA        dex
3433: 10 F8     bpl $342D      ; L_342D
3435: 20 7F 34  jsr $347F
3438: BA        tsx
3439: 86 DD     stx $DD        ; FRE+3
343B: A9 00     lda #$00
343D: 85 AC     sta $AC        ; EXSVPR
343F: A9 08     lda #$08
3441: 85 B3     sta $B3        ; ONLOOP
3443: A9 00     lda #$00
3445: 85 AD     sta $AD        ; LELNUM
3447: A9 01     lda #$01
3449: 20 D4 58  jsr $58D4      ; L_58D4
344C: A9 4F     lda #$4F
344E: 85 CB     sta $CB
3450: A9 5F     lda #$5F
3452: 85 CC     sta $CC
3454: 85 E2     sta $E2        ; FR1+2
3456: A9 3A     lda #$3A
3458: 85 E1     sta $E1        ; FR1+1
345A: 4C C2 3D  jmp $3DC2      ; L_3DC2
345D: 28        plp
345E: 43        BYTE $43
345F: 29 20     and #$20
3461: 31 39     and ($39),y    ; RECVDN
3463: 38        sec
3464: 33        BYTE $33
3465: 20 49 73  jsr $7349
3468: 6C 61 6E  jmp ($6E61)
346B: 64        BYTE $64
346C: 20 47 72  jsr $7247
346F: 61 70     adc ($70,x)    ; ROWAC
3471: 68        pla
3472: 69 63     adc #$63
3474: 73        BYTE $73
3475: 20 43 6F  jsr $6F43
3478: 72        BYTE $72
3479: 70 2E     bvs $34A9
347B: 53        BYTE $53
347C: 44        BYTE $44
347D: 52        BYTE $52
347E: 4C 20 87  jmp $8720
3481: 3F        BYTE $3F
3482: 20 B8 4D  jsr $4DB8      ; L_4DB8
3485: A2 04     ldx #$04
3487: BD D1 34  lda $34D1,x    ; L_34D1
348A: 9D C4 02  sta $02C4,x    ; COLOR0
348D: CA        dex
348E: 10 F7     bpl $3487      ; L_3487
3490: A9 0C     lda #$0C
3492: 8D 04 D4  sta $D404      ; HSCROL
3495: A9 2C     lda #$2C
3497: 85 F4     sta $F4        ; INBUFF+1
3499: A9 B5     lda #$B5
349B: 8D 00 02  sta $0200      ; VDSLST
349E: A9 34     lda #$34
34A0: 8D 01 02  sta $0201      ; VDSLST+1
34A3: A0 31     ldy #$31
34A5: A9 98     lda #$98
34A7: 20 F8 4D  jsr $4DF8      ; L_4DF8
34AA: A9 FF     lda #$FF
34AC: 8D FC 02  sta $02FC      ; CH
34AF: 20 E6 4D  jsr $4DE6      ; L_4DE6
34B2: 4C 64 3F  jmp $3F64      ; L_3F64
34B5: 48        pha
34B6: A5 E9     lda $E9        ; FR2+3
34B8: 4A        lsr
34B9: B0 0C     bcs $34C7      ; L_34C7
34BB: A9 E0     lda #$E0
34BD: 8D 0A D4  sta $D40A      ; WSYNC
34C0: 8D 09 D4  sta $D409      ; CHBASE
34C3: E6 E9     inc $E9        ; FR2+3
34C5: 68        pla
34C6: 40        rti
34C7: A9 28     lda #$28
34C9: 8D 0A D4  sta $D40A      ; WSYNC
34CC: 8D 09 D4  sta $D409      ; CHBASE
34CF: D0 F2     bne $34C3      ; L_34C3
34D1: C4 24     cpy $24        ; ICBALZ
34D3: 0C        BYTE $0C
34D4: 88        dey
34D5: 02        BYTE $02
34D6: A9 01     lda #$01
34D8: 8D 6F 02  sta $026F      ; GPRIOR
34DB: A2 04     ldx #$04
34DD: BD FA 34  lda $34FA,x    ; L_34FA
34E0: 9D C4 02  sta $02C4,x    ; COLOR0
34E3: CA        dex
34E4: 10 F7     bpl $34DD      ; L_34DD
34E6: A2 0C     ldx #$0C
34E8: 8E C1 02  stx $02C1      ; PCOLR1
34EB: AD 9F 04  lda $049F
34EE: 29 0E     and #$0E
34F0: C9 08     cmp #$08
34F2: 90 02     bcc $34F6      ; L_34F6
34F4: A2 00     ldx #$00
34F6: 8E 9E 04  stx $049E
34F9: 60        rts
34FA: C6        BYTE $C6 $86 $0A $1E $00 $70 $70 $70
3502: 44        BYTE $44 $00 $2E $84 $84 $04 $04 $84
350A: 84        BYTE $84 $04 $04 $84 $04 $04 $04 $04
3512: 04        BYTE $04 $04 $84 $00 $64 $A8 $30 $25
351A: 24        BYTE $24 $24 $64 $20 $31 $84 $04 $41
3522: 97        BYTE $97 $06 $70 $70 $70 $57 $38 $36
352A: 30        BYTE $30 $56 $5A $35 $70 $56 $6D $35
3532: 70        BYTE $70 $42 $7D $35 $00 $42 $99 $35
353A: 00        BYTE $00 $42 $B5 $35 $00 $42 $18 $36
3542: 00        BYTE $00 $42 $D4 $35 $30 $70 $30 $42
354A: 7D        BYTE $7D $35 $00 $02 $00 $02 $30 $02
3552: 20        BYTE $20 $70 $42 $45 $36 $41 $97 $06
355A: 00        BYTE $00 $00 $2D $29 $23 $32 $2F $00
3562: 29        BYTE $29 $2C $2C $35 $33 $34 $32 $21
356A: 34        BYTE $34 $2F $32 $00 $00 $00 $00 $00
3572: 8D        BYTE $8D $00 $B3 $B4 $AF $B2 $A1 $A7
357A: A5        BYTE $A5 $00 $8D $00 $00 $00 $00 $00
3582: 00        BYTE $00 $00 $00 $00 $00 $00 $00 $23
358A: 61        BYTE $61 $72 $67 $61 $72 $00 $64 $69
3592: 62        BYTE $62 $75 $6A $6F $00 $00 $00 $00
359A: 00        BYTE $00 $00 $00 $00 $00 $00 $00 $00
35A2: 00        BYTE $00 $00 $00 $27 $72 $61 $62 $61
35AA: 72        BYTE $72 $00 $64 $69 $62 $75 $6A $6F
35B2: 00        BYTE $00 $00 $00 $00 $00 $00 $00 $00
35BA: 00        BYTE $00 $00 $00 $00 $00 $00 $00 $00
35C2: 00        BYTE $00 $00 $00 $00 $00 $00 $00 $00
35CA: 00        BYTE $00 $00 $00 $00 $00 $00 $00 $00
35D2: 00        BYTE $00 $00 $00 $00 $00 $00 $00 $00
35DA: 00        BYTE $00 $00 $00 $00 $00 $00 $00 $00
35E2: 00        BYTE $00 $00 $00 $00 $00 $00 $00 $00
35EA: 00        BYTE $00 $00 $00 $00 $00 $00 $00 $00
35F2: 00        BYTE $00 $00 $00 $00 $00 $00 $00 $00
35FA: 00        BYTE $00 $00 $00 $00 $00 $00 $00 $00
3602: 00        BYTE $00 $00 $00 $00 $00 $00 $00 $00
360A: 00        BYTE $00 $00 $00 $00 $00 $00 $00 $00
3612: 00        BYTE $00 $00 $00 $00 $00 $00 $00 $00
361A: 00        BYTE $00 $00 $00 $00 $00 $00 $00 $00
3622: 00        BYTE $00 $00 $00 $00 $00 $00 $00 $00
362A: 00        BYTE $00 $00 $00 $00 $00 $00 $00 $00
3632: 00        BYTE $00 $00 $00 $00 $00 $00 $00 $00
363A: 00        BYTE $00 $00 $00 $00 $00 $00 $2B $2F
3642: 21        BYTE $21 $2C $21 $00 $00 $00 $00 $00
364A: 00        BYTE $00 $00 $00 $25 $33 $23 $09 $00
3652: 00        BYTE $00 $32 $65 $74 $75 $72 $6E $00
365A: 74        BYTE $74 $6F $00 $30 $69 $63 $74 $75
3662: 72        BYTE $72 $65 $00 $00 $00 $00 $00 $00
366A: 00        BYTE $00 $00 $00
366D: A5 FC     lda $FC        ; FLPTR
366F: D0 03     bne $3674      ; L_3674
3671: 20 87 3F  jsr $3F87      ; L_3F87
3674: A9 00     lda #$00
3676: 85 FC     sta $FC        ; FLPTR
3678: 85 CF     sta $CF
367A: 20 B8 4D  jsr $4DB8      ; L_4DB8
367D: 20 D6 34  jsr $34D6      ; L_34D6
3680: A9 04     lda #$04
3682: 8D C5 02  sta $02C5      ; COLOR1
3685: A9 0C     lda #$0C
3687: 8D 04 D4  sta $D404      ; HSCROL
368A: A9 E0     lda #$E0
368C: 85 F4     sta $F4        ; INBUFF+1
368E: A9 A3     lda #$A3
3690: A0 36     ldy #$36
3692: 20 F8 4D  jsr $4DF8      ; L_4DF8
3695: 20 D9 53  jsr $53D9      ; L_53D9
3698: D0 FB     bne $3695      ; L_3695
369A: 20 E6 4D  jsr $4DE6      ; L_4DE6
369D: 20 64 3F  jsr $3F64      ; L_3F64
36A0: 4C A9 3D  jmp $3DA9      ; L_3DA9
36A3: 70        BYTE $70 $70 $70 $57 $38 $36 $30 $56
36AB: 5A        BYTE $5A $35 $40 $46 $EC $36 $70 $42
36B3: 66        BYTE $66 $37 $00 $42 $8C $37 $00 $42
36BB: B1        BYTE $B1 $37 $40 $42 $D6 $37 $00 $42
36C3: FB        BYTE $FB $36 $40 $42 $1E $37 $00 $42
36CB: FD        BYTE $FD $37 $00 $42 $25 $38 $10 $42
36D3: 4D        BYTE $4D $38 $00 $42 $75 $38 $00 $42
36DB: 9C        BYTE $9C $38 $20 $42 $3E $37 $00 $42
36E3: C2        BYTE $C2 $38 $70 $42 $45 $36 $41 $A3
36EB: 36        BYTE $36 $00 $00 $00 $00 $00 $00 $8D
36F3: 00        BYTE $00 $A8 $A5 $AC $B0 $00 $8D $00
36FB: 00        BYTE $00 $00 $00 $00 $00 $64 $72 $61
3703: 77        BYTE $77 $69 $6E $67 $0C $00 $6F $72
370B: 00        BYTE $00 $6D $61 $6B $69 $6E $67 $00
3713: 73        BYTE $73 $65 $6C $65 $63 $74 $69 $6F
371B: 6E        BYTE $6E $73 $0E $00 $00 $00 $00 $00
3723: 00        BYTE $00 $00 $00 $00 $00 $00 $00 $00
372B: 00        BYTE $00 $00 $24 $32 $21 $37 $00 $2D
3733: 2F        BYTE $2F $24 $25 $00 $00 $00 $00 $00
373B: 00        BYTE $00 $00 $00 $00 $00 $00 $00 $00
3743: 00        BYTE $00 $00 $00 $21 $2C $2C $00 $2F
374B: 34        BYTE $34 $28 $25 $32 $00 $2D $2F $24
3753: 25        BYTE $25 $33 $00 $06 $00 $2D $25 $2E
375B: 35        BYTE $35 $33 $00 $00 $00 $00 $00 $00
3763: 00        BYTE $00 $00 $00 $00 $2C $69 $66 $74
376B: 00        BYTE $00 $73 $74 $79 $6C $75 $73 $00
3773: 06        BYTE $06 $00 $70 $72 $65 $73 $73 $00
377B: 61        BYTE $61 $6E $79 $00 $74 $61 $62 $6C
3783: 65        BYTE $65 $74 $00 $62 $75 $74 $74 $6F
378B: 6E        BYTE $6E $00 $00 $00 $74 $6F $00 $73
3793: 77        BYTE $77 $69 $74 $63 $68 $00 $62 $65
379B: 74        BYTE $74 $77 $65 $65 $6E $00 $70 $69
37A3: 63        BYTE $63 $74 $75 $72 $65 $00 $5E $5F
37AB: 00        BYTE $00 $6D $65 $6E $75 $0C $00 $00
37B3: 00        BYTE $00 $61 $6E $64 $00 $74 $6F $00
37BB: 64        BYTE $64 $65 $74 $61 $63 $68 $00 $61
37C3: 00        BYTE $00 $72 $75 $62 $62 $65 $72 $0D
37CB: 62        BYTE $62 $61 $6E $64 $00 $6C $69 $6E
37D3: 65        BYTE $65 $0E $00 $00 $00 $00 $2B $65
37DB: 65        BYTE $65 $70 $00 $73 $74 $79 $6C $75
37E3: 73        BYTE $73 $00 $2F $2E $00 $74 $61 $62
37EB: 6C        BYTE $6C $65 $74 $00 $77 $68 $65 $6E
37F3: 00        BYTE $00 $6D $6F $76 $69 $6E $67 $0C
37FB: 00        BYTE $00 $00 $00 $2C $25 $26 $34 $00
3803: 22        BYTE $22 $35 $34 $34 $2F $2E $1A $00
380B: 30        BYTE $30 $72 $65 $73 $73 $00 $06 $00
3813: 28        BYTE $28 $2F $2C $24 $00 $74 $6F $00
381B: 64        BYTE $64 $72 $61 $77 $0C $00 $00 $00
3823: 00        BYTE $00 $00 $00 $72 $65 $6C $65 $61
382B: 73        BYTE $73 $65 $00 $74 $6F $00 $6D $6F
3833: 76        BYTE $76 $65 $00 $77 $69 $74 $68 $6F
383B: 75        BYTE $75 $74 $00 $64 $72 $61 $77 $69
3843: 6E        BYTE $6E $67 $0E $00 $00 $00 $00 $00
384B: 00        BYTE $00 $00 $00 $32 $29 $27 $28 $34
3853: 00        BYTE $00 $22 $35 $34 $34 $2F $2E $1A
385B: 00        BYTE $00 $30 $72 $65 $73 $73 $00 $06
3863: 00        BYTE $00 $72 $65 $6C $65 $61 $73 $65
386B: 00        BYTE $00 $74 $6F $00 $0D $00 $00 $00
3873: 00        BYTE $00 $00 $00 $2C $6F $63 $6B $00
387B: 08        BYTE $08 $64 $72 $61 $77 $00 $77 $69
3883: 74        BYTE $74 $68 $00 $6E $6F $00 $62 $75
388B: 74        BYTE $74 $74 $6F $6E $73 $00 $70 $72
3893: 65        BYTE $65 $73 $73 $65 $64 $09 $00 $6F
389B: 72        BYTE $72 $00 $35 $6E $6C $6F $63 $6B
38A3: 00        BYTE $00 $08 $66 $6F $72 $00 $6D $6F
38AB: 76        BYTE $76 $69 $6E $67 $00 $77 $69 $74
38B3: 68        BYTE $68 $6F $75 $74 $00 $64 $72 $61
38BB: 77        BYTE $77 $69 $6E $67 $09 $0E $00 $00
38C3: 00        BYTE $00 $35 $73 $65 $00 $61 $6E $79
38CB: 00        BYTE $00 $74 $61 $62 $6C $65 $74 $00
38D3: 62        BYTE $62 $75 $74 $74 $6F $6E $00 $66
38DB: 6F        BYTE $6F $72 $00 $73 $65 $6C $65 $63
38E3: 74        BYTE $74 $69 $6F $6E $73 $0E $00
38EA: A5 FC     lda $FC        ; FLPTR
38EC: D0 03     bne $38F1      ; L_38F1
38EE: 20 87 3F  jsr $3F87      ; L_3F87
38F1: 20 87 3D  jsr $3D87      ; L_3D87
38F4: 20 23 45  jsr $4523      ; L_4523
38F7: A9 00     lda #$00
38F9: 85 CF     sta $CF
38FB: 8D 01 D0  sta $D001      ; HPOSP1
38FE: 85 92     sta $92        ; MEOLFLG
3900: 20 B8 4D  jsr $4DB8      ; L_4DB8
3903: A9 01     lda #$01
3905: 85 FC     sta $FC        ; FLPTR
3907: 8D 0A D0  sta $D00A      ; SIZEP2
390A: 8D 0B D0  sta $D00B      ; SIZEP3
390D: A9 FF     lda #$FF
390F: 8D FC 02  sta $02FC      ; CH
3912: 18        clc
3913: A5 F0     lda $F0        ; FCHRFLG
3915: 85 BB     sta $BB        ; STOPLN+1
3917: A5 F1     lda $F1        ; DIGRT
3919: 69 02     adc #$02
391B: 85 BC     sta $BC        ; TRAPLN
391D: 20 8D 3B  jsr $3B8D      ; L_3B8D
3920: E6 BC     inc $BC        ; TRAPLN
3922: 20 8D 3B  jsr $3B8D      ; L_3B8D
3925: A9 A4     lda #$A4
3927: 8D 02 D0  sta $D002      ; HPOSP2
392A: A9 BC     lda #$BC
392C: 8D 03 D0  sta $D003      ; HPOSP3
392F: A9 1D     lda #$1D
3931: 8D 00 02  sta $0200      ; VDSLST
3934: A9 3B     lda #$3B
3936: 8D 01 02  sta $0201      ; VDSLST+1
3939: A2 29     ldx #$29
393B: BD B3 3B  lda $3BB3,x    ; L_3BB3
393E: 9D 97 06  sta $0697,x
3941: CA        dex
3942: 10 F7     bpl $393B      ; L_393B
3944: 20 20 5C  jsr $5C20      ; L_5C20
3947: A5 8C     lda $8C        ; STARP
3949: 8D 9E 06  sta $069E
394C: A5 8D     lda $8D        ; STARP+1
394E: 8D 9F 06  sta $069F
3951: 20 EF 5C  jsr $5CEF      ; L_5CEF
3954: A9 08     lda #$08
3956: 85 98     sta $98        ; SVESA+1
3958: A6 98     ldx $98        ; SVESA+1
395A: BC A0 3C  ldy $3CA0,x
395D: 84 8B     sty $8B        ; STMCUR+1
395F: BC 97 3C  ldy $3C97,x
3962: 84 8A     sty $8A        ; STMCUR
3964: BD A9 3C  lda $3CA9,x
3967: 85 90     sta $90        ; TOPSTK
3969: BD B2 3C  lda $3CB2,x
396C: 85 91     sta $91        ; TOPSTK+1
396E: 20 52 5C  jsr $5C52      ; L_5C52
3971: 20 8B 5C  jsr $5C8B      ; L_5C8B
3974: C6 98     dec $98        ; SVESA+1
3976: 10 E0     bpl $3958      ; L_3958
3978: A9 97     lda #$97
397A: A0 06     ldy #$06
397C: 20 F8 4D  jsr $4DF8      ; L_4DF8
397F: A9 08     lda #$08
3981: 85 B3     sta $B3        ; ONLOOP
3983: 20 5C 56  jsr $565C      ; L_565C
3986: A5 F0     lda $F0        ; FCHRFLG
3988: 85 BB     sta $BB        ; STOPLN+1
398A: A6 F1     ldx $F1        ; DIGRT
398C: E8        inx
398D: 86 BC     stx $BC        ; TRAPLN
398F: 20 05 41  jsr $4105      ; L_4105
3992: A5 A9     lda $A9        ; OPSTKX
3994: C9 04     cmp #$04
3996: 90 04     bcc $399C      ; L_399C
3998: A9 01     lda #$01
399A: 85 A9     sta $A9        ; OPSTKX
399C: A2 05     ldx #$05
399E: A0 B7     ldy #$B7
39A0: BD 0E 41  lda $410E,x    ; L_410E
39A3: 91 BB     sta ($BB),y    ; STOPLN+1
39A5: 88        dey
39A6: CA        dex
39A7: 10 F7     bpl $39A0      ; L_39A0
39A9: A6 A9     ldx $A9        ; OPSTKX
39AB: BD EE 3A  lda $3AEE,x    ; L_3AEE
39AE: 8D 01 D0  sta $D001      ; HPOSP1
39B1: A0 0F     ldy #$0F
39B3: 84 98     sty $98        ; SVESA+1
39B5: A2 22     ldx #$22
39B7: 20 4E 5C  jsr $5C4E      ; L_5C4E
39BA: A9 00     lda #$00
39BC: 20 7C 5C  jsr $5C7C      ; L_5C7C
39BF: A4 98     ldy $98        ; SVESA+1
39C1: A2 1C     ldx #$1C
39C3: 20 4E 5C  jsr $5C4E      ; L_5C4E
39C6: A9 00     lda #$00
39C8: 20 7C 5C  jsr $5C7C      ; L_5C7C
39CB: A4 98     ldy $98        ; SVESA+1
39CD: A2 19     ldx #$19
39CF: 20 4E 5C  jsr $5C4E      ; L_5C4E
39D2: A5 98     lda $98        ; SVESA+1
39D4: C9 0A     cmp #$0A
39D6: 90 0C     bcc $39E4      ; L_39E4
39D8: A9 11     lda #$11
39DA: 20 7C 5C  jsr $5C7C      ; L_5C7C
39DD: A5 98     lda $98        ; SVESA+1
39DF: 38        sec
39E0: E9 0A     sbc #$0A
39E2: 90 09     bcc $39ED      ; L_39ED
39E4: 48        pha
39E5: A4 98     ldy $98        ; SVESA+1
39E7: A2 1A     ldx #$1A
39E9: 20 4E 5C  jsr $5C4E      ; L_5C4E
39EC: 68        pla
39ED: 09 10     ora #$10
39EF: 20 7C 5C  jsr $5C7C      ; L_5C7C
39F2: A4 98     ldy $98        ; SVESA+1
39F4: 88        dey
39F5: 10 BC     bpl $39B3      ; L_39B3
39F7: A6 A9     ldx $A9        ; OPSTKX
39F9: D0 02     bne $39FD      ; L_39FD
39FB: A2 05     ldx #$05
39FD: CA        dex
39FE: BD 9B 04  lda $049B,x
3A01: 85 98     sta $98        ; SVESA+1
3A03: 29 0F     and #$0F
3A05: 85 89     sta $89        ; STMTAB+1
3A07: A0 00     ldy #$00
3A09: C9 08     cmp #$08
3A0B: B0 02     bcs $3A0F      ; L_3A0F
3A0D: A0 0C     ldy #$0C
3A0F: 8C C1 02  sty $02C1      ; PCOLR1
3A12: E0 04     cpx #$04
3A14: D0 03     bne $3A19      ; L_3A19
3A16: 8C 9E 04  sty $049E
3A19: A8        tay
3A1A: A2 22     ldx #$22
3A1C: 20 4E 5C  jsr $5C4E      ; L_5C4E
3A1F: A9 5F     lda #$5F
3A21: 20 7C 5C  jsr $5C7C      ; L_5C7C
3A24: A5 98     lda $98        ; SVESA+1
3A26: 29 F0     and #$F0
3A28: 85 8E     sta $8E        ; RUNSTK
3A2A: 4A        lsr
3A2B: 4A        lsr
3A2C: 4A        lsr
3A2D: 4A        lsr
3A2E: A8        tay
3A2F: A2 1C     ldx #$1C
3A31: 20 4E 5C  jsr $5C4E      ; L_5C4E
3A34: A9 5F     lda #$5F
3A36: 20 7C 5C  jsr $5C7C      ; L_5C7C
3A39: 20 47 51  jsr $5147      ; L_5147
3A3C: 20 C2 4D  jsr $4DC2      ; L_4DC2
3A3F: 20 17 59  jsr $5917      ; L_5917
3A42: A9 FF     lda #$FF
3A44: 8D FC 02  sta $02FC      ; CH
3A47: A5 E6     lda $E6        ; FR2
3A49: C9 08     cmp #$08
3A4B: D0 10     bne $3A5D      ; L_3A5D
3A4D: A5 DE     lda $DE        ; FRE+4
3A4F: 29 3F     and #$3F
3A51: A2 02     ldx #$02
3A53: DD FA 3A  cmp $3AFA,x
3A56: F0 31     beq $3A89      ; L_3A89
3A58: CA        dex
3A59: 10 F8     bpl $3A53      ; L_3A53
3A5B: 30 DC     bmi $3A39      ; L_3A39
3A5D: A5 CC     lda $CC
3A5F: C9 B8     cmp #$B8
3A61: B0 32     bcs $3A95      ; L_3A95
3A63: C9 88     cmp #$88
3A65: B0 43     bcs $3AAA      ; L_3AAA
3A67: C9 08     cmp #$08
3A69: 90 CE     bcc $3A39      ; L_3A39
3A6B: A5 CB     lda $CB
3A6D: C9 88     cmp #$88
3A6F: B0 4F     bcs $3AC0      ; L_3AC0
3A71: C9 64     cmp #$64
3A73: B0 56     bcs $3ACB      ; L_3ACB
3A75: 20 DA 3A  jsr $3ADA      ; L_3ADA
3A78: A2 04     ldx #$04
3A7A: DD 13 3B  cmp $3B13,x
3A7D: F0 05     beq $3A84      ; L_3A84
3A7F: CA        dex
3A80: 10 F8     bpl $3A7A      ; L_3A7A
3A82: 30 B5     bmi $3A39      ; L_3A39
3A84: BD 18 3B  lda $3B18,x
3A87: B0 00     bcs $3A89      ; L_3A89
3A89: A2 0A     ldx #$0A
3A8B: DD F2 3A  cmp $3AF2,x
3A8E: F0 22     beq $3AB2      ; L_3AB2
3A90: CA        dex
3A91: 10 F8     bpl $3A8B      ; L_3A8B
3A93: 30 A4     bmi $3A39      ; L_3A39
3A95: A9 00     lda #$00
3A97: 85 FC     sta $FC        ; FLPTR
3A99: 8D 0A D0  sta $D00A      ; SIZEP2
3A9C: 8D 0B D0  sta $D00B      ; SIZEP3
3A9F: 8D 03 D0  sta $D003      ; HPOSP3
3AA2: A5 A9     lda $A9        ; OPSTKX
3AA4: 20 D4 58  jsr $58D4      ; L_58D4
3AA7: 4C A9 3D  jmp $3DA9      ; L_3DA9
3AAA: 20 9C 3B  jsr $3B9C      ; L_3B9C
3AAD: 86 A9     stx $A9        ; OPSTKX
3AAF: 4C 86 39  jmp $3986      ; L_3986
3AB2: BD FD 3A  lda $3AFD,x
3AB5: BC 08 3B  ldy $3B08,x
3AB8: 4C 8C 4D  jmp $4D8C      ; L_4D8C
3ABB: 86 A9     stx $A9        ; OPSTKX
3ABD: 4C 86 39  jmp $3986      ; L_3986
3AC0: 20 DA 3A  jsr $3ADA      ; L_3ADA
3AC3: 05 8E     ora $8E        ; RUNSTK
3AC5: 20 E3 3A  jsr $3AE3      ; L_3AE3
3AC8: 4C 86 39  jmp $3986      ; L_3986
3ACB: 20 DA 3A  jsr $3ADA      ; L_3ADA
3ACE: 0A        asl
3ACF: 0A        asl
3AD0: 0A        asl
3AD1: 0A        asl
3AD2: 05 89     ora $89        ; STMTAB+1
3AD4: 20 E3 3A  jsr $3AE3      ; L_3AE3
3AD7: 4C 86 39  jmp $3986      ; L_3986
3ADA: A5 CC     lda $CC
3ADC: 38        sec
3ADD: E9 07     sbc #$07
3ADF: 4A        lsr
3AE0: 4A        lsr
3AE1: 4A        lsr
3AE2: 60        rts
3AE3: A6 A9     ldx $A9        ; OPSTKX
3AE5: D0 02     bne $3AE9      ; L_3AE9
3AE7: A2 05     ldx #$05
3AE9: CA        dex
3AEA: 9D 9B 04  sta $049B,x
3AED: 60        rts
3AEE: 53        BYTE $53 $77 $9B $C0 $32 $1F $1E $1A
3AF6: 28        BYTE $28 $3F $3A $00 $21 $1C $0C $BB
3AFE: BB        BYTE $BB $BB $BB $BB $E1 $64 $77 $95
3B06: 95        BYTE $95 $95 $3A $3A $3A $3A $3C $3C
3B0E: 3D        BYTE $3D $3D $3A $3A $3A $07 $09 $0B
3B16: 0D        BYTE $0D $0E $28 $3A $00 $3F $3F
3B1D: 48        pha
3B1E: A5 E9     lda $E9        ; FR2+3
3B20: D0 15     bne $3B37      ; L_3B37
3B22: 45 4F     eor $4F        ; COLRSH
3B24: 25 4E     and $4E        ; DRKMSK
3B26: 8D 0A D4  sta $D40A      ; WSYNC
3B29: 8D 18 D0  sta $D018      ; COLPF2
3B2C: A9 0C     lda #$0C
3B2E: 45 4F     eor $4F        ; COLRSH
3B30: 25 4E     and $4E        ; DRKMSK
3B32: 8D 17 D0  sta $D017      ; COLPF1
3B35: A5 E9     lda $E9        ; FR2+3
3B37: C9 10     cmp #$10
3B39: F0 26     beq $3B61      ; L_3B61
3B3B: 29 F0     and #$F0
3B3D: 05 89     ora $89        ; STMTAB+1
3B3F: 8D 0A D4  sta $D40A      ; WSYNC
3B42: 45 4F     eor $4F        ; COLRSH
3B44: 25 4E     and $4E        ; DRKMSK
3B46: 8D 14 D0  sta $D014      ; COLPM2
3B49: A5 E9     lda $E9        ; FR2+3
3B4B: 29 0F     and #$0F
3B4D: 05 8E     ora $8E        ; RUNSTK
3B4F: 45 4F     eor $4F        ; COLRSH
3B51: 25 4E     and $4E        ; DRKMSK
3B53: 8D 15 D0  sta $D015      ; COLPM3
3B56: 18        clc
3B57: A5 E9     lda $E9        ; FR2+3
3B59: 69 11     adc #$11
3B5B: 85 E9     sta $E9        ; FR2+3
3B5D: 85 F5     sta $F5        ; ZTEMP1
3B5F: 68        pla
3B60: 40        rti
3B61: C6 E9     dec $E9        ; FR2+3
3B63: A5 F5     lda $F5        ; ZTEMP1
3B65: F0 07     beq $3B6E      ; L_3B6E
3B67: A9 00     lda #$00
3B69: 85 F5     sta $F5        ; ZTEMP1
3B6B: 4C C3 3F  jmp $3FC3      ; L_3FC3
3B6E: A9 E0     lda #$E0
3B70: 8D 0A D4  sta $D40A      ; WSYNC
3B73: 8D 09 D4  sta $D409      ; CHBASE
3B76: A9 00     lda #$00
3B78: 45 4F     eor $4F        ; COLRSH
3B7A: 25 4E     and $4E        ; DRKMSK
3B7C: 8D 1A D0  sta $D01A      ; COLBK
3B7F: 8D 18 D0  sta $D018      ; COLPF2
3B82: A9 0C     lda #$0C
3B84: 45 4F     eor $4F        ; COLRSH
3B86: 25 4E     and $4E        ; DRKMSK
3B88: 8D 17 D0  sta $D017      ; COLPF1
3B8B: 68        pla
3B8C: 40        rti
3B8D: 20 05 41  jsr $4105      ; L_4105
3B90: A9 FF     lda #$FF
3B92: A0 29     ldy #$29
3B94: 91 BB     sta ($BB),y    ; STOPLN+1
3B96: C8        iny
3B97: C0 A7     cpy #$A7
3B99: D0 F9     bne $3B94      ; L_3B94
3B9B: 60        rts
3B9C: A5 CB     lda $CB
3B9E: 20 EA 3E  jsr $3EEA      ; L_3EEA
3BA1: A2 03     ldx #$03
3BA3: C0 09     cpy #$09
3BA5: B0 0B     bcs $3BB2      ; L_3BB2
3BA7: CA        dex
3BA8: C0 06     cpy #$06
3BAA: B0 06     bcs $3BB2      ; L_3BB2
3BAC: CA        dex
3BAD: C0 03     cpy #$03
3BAF: B0 01     bcs $3BB2      ; L_3BB2
3BB1: CA        dex
3BB2: 60        rts
3BB3: 70 70     bvs $3C25
3BB5: 60        rts
3BB6: C2        BYTE $C2 $DC $3B $C2 $DC $3B $82 $82
3BBE: 82        BYTE $82 $82 $82 $82 $82 $82 $82 $82
3BC6: 82        BYTE $82 $82 $82 $82 $82 $20 $44 $A8
3BCE: 30        BYTE $30 $05 $04 $04 $C4 $20 $31 $00
3BD6: 42        BYTE $42 $45 $36 $41 $97 $06 $00 $00
3BDE: 00        BYTE $00 $00 $00 $0D $00 $23 $2F $2C
3BE6: 2F        BYTE $2F $32 $00 $2D $25 $2E $35 $00
3BEE: 0D        BYTE $0D $00 $00 $00 $00 $00 $00 $00
3BF6: 00        BYTE $00 $00 $23 $6F $6C $6F $72 $00
3BFE: 2C        BYTE $2C $65 $76 $65 $6C $00 $55 $73
3C06: 65        BYTE $65 $20 $73 $74 $79 $6C $75 $73
3C0E: 20        BYTE $20 $74 $6F $20 $73 $65 $6C $65
3C16: 63        BYTE $63 $74 $9B $2D $63 $75 $72 $72
3C1E: 65        BYTE $65 $6E $74 $20 $63 $6F $6C $6F
3C26: 72        BYTE $72 $20 $62 $6F $78 $9B $2D $6E
3C2E: 65        BYTE $65 $77 $20 $63 $6F $6C $6F $72
3C36: 20        BYTE $20 $26 $20 $6C $65 $76 $65 $6C
3C3E: 9B        BYTE $9B $2D $20 $6F $72 $20 $2D $9B
3C46: 60        BYTE $60 $20 $52 $61 $69 $6E $62 $6F
3C4E: 77        BYTE $77 $20 $43 $6F $6C $6F $72 $9B
3C56: 60        BYTE $60 $20 $44 $65 $66 $61 $75 $6C
3C5E: 74        BYTE $74 $20 $43 $6F $6C $6F $72 $73
3C66: 9B        BYTE $9B $60 $20 $52 $65 $73 $74 $6F
3C6E: 72        BYTE $72 $65 $20 $4C $61 $73 $74 $20
3C76: 43        BYTE $43 $6F $6C $6F $72 $9B $60 $20
3C7E: 41        BYTE $41 $64 $6A $75 $73 $74 $20 $43
3C86: 6F        BYTE $6F $6C $6F $72 $73 $9B $6F $6E
3C8E: 20        BYTE $20 $50 $69 $63 $74 $75 $72 $65
3C96: 9B        BYTE $9B $02 $03 $03 $09 $02 $02 $02
3C9E: 02        BYTE $02 $0C $01 $02 $03 $05 $07 $09
3CA6: 0B        BYTE $0B $0D $0E $04 $19 $2C $3F $46
3CAE: 56        BYTE $56 $67 $7C $8C $3C $3C $3C $3C
3CB6: 3C        BYTE $3C $3C $3C $3C $3C
3CBB: 20 64 3F  jsr $3F64      ; L_3F64
3CBE: 20 93 3D  jsr $3D93      ; L_3D93
3CC1: 20 D9 53  jsr $53D9      ; L_53D9
3CC4: D0 FB     bne $3CC1      ; L_3CC1
3CC6: A6 A9     ldx $A9        ; OPSTKX
3CC8: D0 02     bne $3CCC      ; L_3CCC
3CCA: A2 05     ldx #$05
3CCC: CA        dex
3CCD: A5 14     lda $14        ; RTCLOK+2
3CCF: 38        sec
3CD0: ED 0B D4  sbc $D40B      ; VCOUNT
3CD3: 8D 0A D4  sta $D40A      ; WSYNC
3CD6: 9D 16 D0  sta $D016,x    ; COLPF0
3CD9: 20 81 4D  jsr $4D81      ; L_4D81
3CDC: F0 EF     beq $3CCD      ; L_3CCD
3CDE: 4C F4 38  jmp $38F4      ; L_38F4
3CE1: 20 64 3F  jsr $3F64      ; L_3F64
3CE4: 20 93 3D  jsr $3D93      ; L_3D93
3CE7: 20 47 51  jsr $5147      ; L_5147
3CEA: A5 E6     lda $E6        ; FR2
3CEC: C9 08     cmp #$08
3CEE: F0 4E     beq $3D3E      ; L_3D3E
3CF0: A5 CB     lda $CB
3CF2: 85 96     sta $96        ; POKADR+1
3CF4: A5 CC     lda $CC
3CF6: 85 97     sta $97        ; SVESA
3CF8: 20 04 51  jsr $5104      ; L_5104
3CFB: 85 A9     sta $A9        ; OPSTKX
3CFD: 09 00     ora #$00
3CFF: D0 02     bne $3D03      ; L_3D03
3D01: A9 05     lda #$05
3D03: 85 95     sta $95        ; POKADR
3D05: 20 C6 51  jsr $51C6      ; L_51C6
3D08: A5 E6     lda $E6        ; FR2
3D0A: C9 08     cmp #$08
3D0C: F0 30     beq $3D3E      ; L_3D3E
3D0E: C9 02     cmp #$02
3D10: F0 D5     beq $3CE7      ; L_3CE7
3D12: A6 95     ldx $95        ; POKADR
3D14: A5 CC     lda $CC
3D16: A0 0F     ldy #$0F
3D18: D9 54 3D  cmp $3D54,y    ; L_3D54
3D1B: B0 03     bcs $3D20      ; L_3D20
3D1D: 88        dey
3D1E: 10 F8     bpl $3D18      ; L_3D18
3D20: 84 A4     sty $A4        ; ECSIZE
3D22: A5 CB     lda $CB
3D24: A0 0F     ldy #$0F
3D26: D9 44 3D  cmp $3D44,y    ; L_3D44
3D29: B0 03     bcs $3D2E      ; L_3D2E
3D2B: 88        dey
3D2C: 10 F8     bpl $3D26      ; L_3D26
3D2E: 98        tya
3D2F: 0A        asl
3D30: 0A        asl
3D31: 0A        asl
3D32: 0A        asl
3D33: 05 A4     ora $A4        ; ECSIZE
3D35: 9D C3 02  sta $02C3,x    ; PCOLR3
3D38: 9D 9A 04  sta $049A,x
3D3B: 4C 05 3D  jmp $3D05      ; L_3D05
3D3E: 20 87 3F  jsr $3F87      ; L_3F87
3D41: 4C F4 38  jmp $38F4      ; L_38F4
3D44: 00        BYTE $00 $0A $14 $1E $28 $32 $3C $46
3D4C: 50        BYTE $50 $5A $64 $6E $78 $82 $8C $96
3D54: 00        BYTE $00 $0C $18 $24 $30 $3C $48 $54
3D5C: 60        BYTE $60 $6C $78 $84 $90 $9C $A8 $B4
3D64: A2        BYTE $A2 $04
3D66: BD 72 3D  lda $3D72,x    ; L_3D72
3D69: 9D 9B 04  sta $049B,x
3D6C: CA        dex
3D6D: 10 F7     bpl $3D66      ; L_3D66
3D6F: 4C 86 39  jmp $3986      ; L_3986
3D72: 28        plp
3D73: CA        dex
3D74: 94 0C     sty $0C,x      ; DOSINI
3D76: 00        brk
3D77: A6 A9     ldx $A9        ; OPSTKX
3D79: D0 02     bne $3D7D      ; L_3D7D
3D7B: A2 05     ldx #$05
3D7D: CA        dex
3D7E: BD 88 04  lda $0488,x
3D81: 9D 9B 04  sta $049B,x
3D84: 4C 86 39  jmp $3986      ; L_3986
3D87: A2 04     ldx #$04
3D89: BD 9B 04  lda $049B,x
3D8C: 9D 88 04  sta $0488,x
3D8F: CA        dex
3D90: 10 F7     bpl $3D89      ; L_3D89
3D92: 60        rts
3D93: 20 C2 4D  jsr $4DC2      ; L_4DC2
3D96: A2 07     ldx #$07
3D98: A9 00     lda #$00
3D9A: 9D 00 D0  sta $D000,x    ; HPOSP0
3D9D: CA        dex
3D9E: 10 FA     bpl $3D9A      ; L_3D9A
3DA0: A2 04     ldx #$04
3DA2: 9D 0D D0  sta $D00D,x    ; GRAFP0
3DA5: CA        dex
3DA6: 10 FA     bpl $3DA2      ; L_3DA2
3DA8: 60        rts
3DA9: A6 DD     ldx $DD        ; FRE+3
3DAB: 9A        txs
3DAC: A5 FC     lda $FC        ; FLPTR
3DAE: D0 15     bne $3DC5      ; L_3DC5
3DB0: 4C 41 3E  jmp $3E41      ; L_3E41
3DB3: A6 DD     ldx $DD        ; FRE+3
3DB5: 9A        txs
3DB6: A5 FC     lda $FC        ; FLPTR
3DB8: D0 08     bne $3DC2      ; L_3DC2
3DBA: 20 09 3F  jsr $3F09      ; L_3F09
3DBD: D0 03     bne $3DC2      ; L_3DC2
3DBF: 4C 1E 3E  jmp $3E1E      ; L_3E1E
3DC2: 20 20 3F  jsr $3F20      ; L_3F20
3DC5: A9 00     lda #$00
3DC7: 85 CF     sta $CF
3DC9: 20 03 40  jsr $4003      ; L_4003
3DCC: A9 08     lda #$08
3DCE: 85 B3     sta $B3        ; ONLOOP
3DD0: 20 5C 56  jsr $565C      ; L_565C
3DD3: A9 FF     lda #$FF
3DD5: 8D FC 02  sta $02FC      ; CH
3DD8: 20 47 51  jsr $5147      ; L_5147
3DDB: A5 E6     lda $E6        ; FR2
3DDD: C9 08     cmp #$08
3DDF: D0 07     bne $3DE8      ; L_3DE8
3DE1: 20 09 3F  jsr $3F09      ; L_3F09
3DE4: F0 38     beq $3E1E      ; L_3E1E
3DE6: D0 EB     bne $3DD3      ; L_3DD3
3DE8: A5 CC     lda $CC
3DEA: A2 0A     ldx #$0A
3DEC: CA        dex
3DED: F0 05     beq $3DF4      ; L_3DF4
3DEF: DD 00 3E  cmp $3E00,x    ; L_3E00
3DF2: 90 F8     bcc $3DEC      ; L_3DEC
3DF4: 86 84     stx $84        ; VNTD
3DF6: BD 14 3E  lda $3E14,x
3DF9: 48        pha
3DFA: BD 0A 3E  lda $3E0A,x
3DFD: 48        pha
3DFE: A5 CB     lda $CB
3E00: 60        rts
3E01: 0C        BYTE $0C $2C $4C $6C $72 $83 $A1 $A6
3E09: B7        BYTE $B7 $D2 $A7 $A7 $A7 $D2 $CE $02
3E11: D2        BYTE $D2 $F7 $D2 $3D $3E $3E $3E $3D
3E19: 3E        BYTE $3E $3F $3D $3E $3D
3E1E: A5 DE     lda $DE        ; FRE+4
3E20: 29 3F     and #$3F
3E22: C9 21     cmp #$21
3E24: F0 14     beq $3E3A      ; L_3E3A
3E26: A2 11     ldx #$11
3E28: DD 24 5E  cmp $5E24,x
3E2B: F0 2E     beq $3E5B      ; L_3E5B
3E2D: CA        dex
3E2E: 10 F8     bpl $3E28      ; L_3E28
3E30: A5 FC     lda $FC        ; FLPTR
3E32: D0 03     bne $3E37      ; L_3E37
3E34: 20 20 3F  jsr $3F20      ; L_3F20
3E37: 4C D3 3D  jmp $3DD3      ; L_3DD3
3E3A: A5 FC     lda $FC        ; FLPTR
3E3C: D0 03     bne $3E41      ; L_3E41
3E3E: 4C C2 3D  jmp $3DC2      ; L_3DC2
3E41: A2 11     ldx #$11
3E43: A5 E1     lda $E1        ; FR1+1
3E45: DD 24 5E  cmp $5E24,x
3E48: F0 05     beq $3E4F      ; L_3E4F
3E4A: CA        dex
3E4B: D0 F8     bne $3E45      ; L_3E45
3E4D: F0 E8     beq $3E37      ; L_3E37
3E4F: 86 E2     stx $E2        ; FR1+2
3E51: 20 17 59  jsr $5917      ; L_5917
3E54: 20 56 3F  jsr $3F56      ; L_3F56
3E57: A6 E2     ldx $E2        ; FR1+2
3E59: D0 1B     bne $3E76      ; L_3E76
3E5B: 86 E2     stx $E2        ; FR1+2
3E5D: 20 17 59  jsr $5917      ; L_5917
3E60: A6 E2     ldx $E2        ; FR1+2
3E62: E0 08     cpx #$08
3E64: 90 10     bcc $3E76      ; L_3E76
3E66: 8A        txa
3E67: E9 08     sbc #$08
3E69: 85 A8     sta $A8        ; STINDEX
3E6B: A5 DE     lda $DE        ; FRE+4
3E6D: 85 E1     sta $E1        ; FR1+1
3E6F: A5 FC     lda $FC        ; FLPTR
3E71: F0 03     beq $3E76      ; L_3E76
3E73: 4C C5 3D  jmp $3DC5      ; L_3DC5
3E76: A9 08     lda #$08
3E78: A6 AD     ldx $AD        ; LELNUM
3E7A: F0 02     beq $3E7E      ; L_3E7E
3E7C: A5 AC     lda $AC        ; EXSVPR
3E7E: 85 B3     sta $B3        ; ONLOOP
3E80: 20 5C 56  jsr $565C      ; L_565C
3E83: A5 D0     lda $D0
3E85: 85 CF     sta $CF
3E87: A6 E2     ldx $E2        ; FR1+2
3E89: BD 48 5E  lda $5E48,x    ; L_5E48
3E8C: BC 36 5E  ldy $5E36,x
3E8F: 4C 8C 4D  jmp $4D8C      ; L_4D8C
3E92: 11 21     ora ($21),y    ; ICDNOZ
3E94: 31 41     and ($41),y    ; SOUNDR
3E96: 51 61     eor ($61),y    ; FKDEF+1
3E98: 71 81     adc ($81),y    ; LOMEM+1
3E9A: 91 A2     sta ($A2),y    ; MVLNG
3E9C: 0A        asl
3E9D: CA        dex
3E9E: F0 05     beq $3EA5      ; L_3EA5
3EA0: DD 91 3E  cmp $3E91,x
3EA3: 90 F8     bcc $3E9D      ; L_3E9D
3EA5: 86 85     stx $85        ; VNTD+1
3EA7: 60        rts
3EA8: 20 9B 3E  jsr $3E9B
3EAB: 46 85     lsr $85        ; VNTD+1
3EAD: C6 84     dec $84        ; VNTD
3EAF: A5 84     lda $84        ; VNTD
3EB1: 0A        asl
3EB2: 0A        asl
3EB3: 65 84     adc $84        ; VNTD
3EB5: 65 85     adc $85        ; VNTD+1
3EB7: AA        tax
3EB8: BD C0 3E  lda $3EC0,x    ; L_3EC0
3EBB: 85 DE     sta $DE        ; FRE+4
3EBD: 4C 1E 3E  jmp $3E1E      ; L_3E1E
3EC0: 3A        BYTE $3A $0A $00 $05 $28 $38 $10 $16
3EC8: 08        BYTE $08 $2F $2A $3E $25 $17 $12
3ECF: 20 9B 3E  jsr $3E9B
3ED2: 8A        txa
3ED3: F0 10     beq $3EE5      ; L_3EE5
3ED5: C9 09     cmp #$09
3ED7: D0 07     bne $3EE0      ; L_3EE0
3ED9: A9 26     lda #$26
3EDB: 85 DE     sta $DE        ; FRE+4
3EDD: 4C 1E 3E  jmp $3E1E      ; L_3E1E
3EE0: CA        dex
3EE1: 86 AC     stx $AC        ; EXSVPR
3EE3: A9 7F     lda #$7F
3EE5: 85 AD     sta $AD        ; LELNUM
3EE7: 4C C5 3D  jmp $3DC5      ; L_3DC5
3EEA: 18        clc
3EEB: 69 28     adc #$28
3EED: A0 0D     ldy #$0D
3EEF: 88        dey
3EF0: F0 05     beq $3EF7      ; L_3EF7
3EF2: D9 17 41  cmp $4117,y
3EF5: 90 F8     bcc $3EEF      ; L_3EEF
3EF7: 60        rts
3EF8: 20 EA 3E  jsr $3EEA      ; L_3EEA
3EFB: 98        tya
3EFC: 18        clc
3EFD: 69 04     adc #$04
3EFF: AA        tax
3F00: 4C 3C 5F  jmp $5F3C      ; L_5F3C
3F03: 20 9C 3B  jsr $3B9C      ; L_3B9C
3F06: 4C 3C 5F  jmp $5F3C      ; L_5F3C
3F09: A9 FF     lda #$FF
3F0B: 8D FC 02  sta $02FC      ; CH
3F0E: A5 DE     lda $DE        ; FRE+4
3F10: A2 05     ldx #$05
3F12: DD 1B 3F  cmp $3F1B,x    ; L_3F1B
3F15: F0 03     beq $3F1A      ; L_3F1A
3F17: CA        dex
3F18: 10 F8     bpl $3F12      ; L_3F12
3F1A: 60        rts
3F1B: 21        BYTE $21 $26 $17 $36 $37
3F20: 20 54 53  jsr $5354      ; L_5354
3F23: 20 87 3F  jsr $3F87      ; L_3F87
3F26: 20 B8 4D  jsr $4DB8      ; L_4DB8
3F29: 20 D6 34  jsr $34D6      ; L_34D6
3F2C: A2 25     ldx #$25
3F2E: 86 FC     stx $FC        ; FLPTR
3F30: BD FF 34  lda $34FF,x
3F33: 9D 97 06  sta $0697,x
3F36: CA        dex
3F37: 10 F7     bpl $3F30      ; L_3F30
3F39: 20 03 40  jsr $4003      ; L_4003
3F3C: A9 A3     lda #$A3
3F3E: 8D 00 02  sta $0200      ; VDSLST
3F41: A9 3F     lda #$3F
3F43: 8D 01 02  sta $0201      ; VDSLST+1
3F46: A9 20     lda #$20
3F48: 85 F4     sta $F4        ; INBUFF+1
3F4A: A9 02     lda #$02
3F4C: 8D 05 D4  sta $D405      ; VSCROL
3F4F: A9 97     lda #$97
3F51: A0 06     ldy #$06
3F53: 4C F8 4D  jmp $4DF8      ; L_4DF8
3F56: A9 00     lda #$00
3F58: 85 EA     sta $EA        ; FR2+4
3F5A: 85 FC     sta $FC        ; FLPTR
3F5C: 20 B8 4D  jsr $4DB8      ; L_4DB8
3F5F: A9 40     lda #$40
3F61: 8D 0E D4  sta $D40E      ; NMIEN
3F64: A2 04     ldx #$04
3F66: BD 9B 04  lda $049B,x
3F69: 9D C4 02  sta $02C4,x    ; COLOR0
3F6C: CA        dex
3F6D: 10 F7     bpl $3F66      ; L_3F66
3F6F: A9 00     lda #$00
3F71: 8D 2F 02  sta $022F      ; SDMCTL
3F74: 8D 00 D4  sta $D400      ; DMACTL
3F77: 8D 1D D0  sta $D01D      ; GRACTL
3F7A: A5 D0     lda $D0
3F7C: 85 CF     sta $CF
3F7E: AC 9A 04  ldy $049A
3F81: AD 99 04  lda $0499
3F84: 4C F8 4D  jmp $4DF8      ; L_4DF8
3F87: A9 00     lda #$00
3F89: 85 CF     sta $CF
3F8B: AD 30 02  lda $0230      ; SDLSTL
3F8E: 8D 99 04  sta $0499
3F91: AD 31 02  lda $0231      ; SDLSTH
3F94: 8D 9A 04  sta $049A
3F97: A2 04     ldx #$04
3F99: BD C4 02  lda $02C4,x    ; COLOR0
3F9C: 9D 9B 04  sta $049B,x
3F9F: CA        dex
3FA0: 10 F7     bpl $3F99      ; L_3F99
3FA2: 60        rts
3FA3: 48        pha
3FA4: A5 E9     lda $E9        ; FR2+3
3FA6: C9 05     cmp #$05
3FA8: B0 19     bcs $3FC3      ; L_3FC3
3FAA: 4A        lsr
3FAB: 90 0C     bcc $3FB9      ; L_3FB9
3FAD: A9 20     lda #$20
3FAF: 8D 0A D4  sta $D40A      ; WSYNC
3FB2: 8D 09 D4  sta $D409      ; CHBASE
3FB5: E6 E9     inc $E9        ; FR2+3
3FB7: 68        pla
3FB8: 40        rti
3FB9: A9 24     lda #$24
3FBB: 8D 0A D4  sta $D40A      ; WSYNC
3FBE: 8D 09 D4  sta $D409      ; CHBASE
3FC1: D0 F2     bne $3FB5      ; L_3FB5
3FC3: C9 06     cmp #$06
3FC5: F0 25     beq $3FEC      ; L_3FEC
3FC7: A9 28     lda #$28
3FC9: 8D 0A D4  sta $D40A      ; WSYNC
3FCC: 8D 09 D4  sta $D409      ; CHBASE
3FCF: 8A        txa
3FD0: 48        pha
3FD1: A2 04     ldx #$04
3FD3: BD 9B 04  lda $049B,x
3FD6: 8D 0A D4  sta $D40A      ; WSYNC
3FD9: 45 4F     eor $4F        ; COLRSH
3FDB: 25 4E     and $4E        ; DRKMSK
3FDD: 9D 16 D0  sta $D016,x    ; COLPF0
3FE0: BD 9A 04  lda $049A,x
3FE3: CA        dex
3FE4: 10 F3     bpl $3FD9      ; L_3FD9
3FE6: E6 E9     inc $E9        ; FR2+3
3FE8: 68        pla
3FE9: AA        tax
3FEA: 68        pla
3FEB: 40        rti
3FEC: A9 00     lda #$00
3FEE: 8D 0A D4  sta $D40A      ; WSYNC
3FF1: 45 4F     eor $4F        ; COLRSH
3FF3: 25 4E     and $4E        ; DRKMSK
3FF5: 8D 1A D0  sta $D01A      ; COLBK
3FF8: A9 0E     lda #$0E
3FFA: 45 4F     eor $4F        ; COLRSH
3FFC: 25 4E     and $4E        ; DRKMSK
3FFE: 8D 18 D0  sta $D018      ; COLPF2
4001: 68        pla
4002: 40        rti
4003: AE 9E 04  ldx $049E
4006: A4 A9     ldy $A9        ; OPSTKX
4008: F0 11     beq $401B      ; L_401B
400A: C0 04     cpy #$04
400C: B0 0D     bcs $401B      ; L_401B
400E: A2 0C     ldx #$0C
4010: B9 9A 04  lda $049A,y
4013: 29 0E     and #$0E
4015: C9 08     cmp #$08
4017: 90 02     bcc $401B      ; L_401B
4019: A2 00     ldx #$00
401B: 8E C2 02  stx $02C2      ; PCOLR2
401E: A5 F0     lda $F0        ; FCHRFLG
4020: 85 BB     sta $BB        ; STOPLN+1
4022: A5 F1     lda $F1        ; DIGRT
4024: 18        clc
4025: 69 01     adc #$01
4027: 85 BC     sta $BC        ; TRAPLN
4029: 20 05 41  jsr $4105      ; L_4105
402C: A0 9A     ldy #$9A
402E: A2 05     ldx #$05
4030: BD 0E 41  lda $410E,x    ; L_410E
4033: 91 BB     sta ($BB),y    ; STOPLN+1
4035: 88        dey
4036: CA        dex
4037: 10 F7     bpl $4030      ; L_4030
4039: A5 AD     lda $AD        ; LELNUM
403B: D0 04     bne $4041      ; L_4041
403D: A9 39     lda #$39
403F: D0 08     bne $4049      ; L_4049
4041: A5 AC     lda $AC        ; EXSVPR
4043: 0A        asl
4044: 0A        asl
4045: 0A        asl
4046: 0A        asl
4047: 69 49     adc #$49
4049: 8D 01 D0  sta $D001      ; HPOSP1
404C: A5 F0     lda $F0        ; FCHRFLG
404E: 85 BB     sta $BB        ; STOPLN+1
4050: A5 F1     lda $F1        ; DIGRT
4052: 18        clc
4053: 69 02     adc #$02
4055: 85 BC     sta $BC        ; TRAPLN
4057: 20 05 41  jsr $4105      ; L_4105
405A: A5 A9     lda $A9        ; OPSTKX
405C: A2 05     ldx #$05
405E: A0 B4     ldy #$B4
4060: C9 04     cmp #$04
4062: 90 02     bcc $4066      ; L_4066
4064: A0 CC     ldy #$CC
4066: BD 0E 41  lda $410E,x    ; L_410E
4069: 91 BB     sta ($BB),y    ; STOPLN+1
406B: 88        dey
406C: CA        dex
406D: 10 F7     bpl $4066      ; L_4066
406F: A6 A9     ldx $A9        ; OPSTKX
4071: BD 14 41  lda $4114,x
4074: 8D 02 D0  sta $D002      ; HPOSP2
4077: A9 00     lda #$00
4079: 85 BD     sta $BD        ; TRAPLN+1
407B: A9 2E     lda #$2E
407D: 85 BE     sta $BE        ; SAVCUR
407F: 20 20 5C  jsr $5C20      ; L_5C20
4082: 85 BB     sta $BB        ; STOPLN+1
4084: 8D 9B 06  sta $069B
4087: 84 BC     sty $BC        ; TRAPLN
4089: 8C 9C 06  sty $069C
408C: A2 11     ldx #$11
408E: A0 27     ldy #$27
4090: B1 BD     lda ($BD),y    ; TRAPLN+1
4092: 91 BB     sta ($BB),y    ; STOPLN+1
4094: 88        dey
4095: 10 F9     bpl $4090      ; L_4090
4097: A5 BD     lda $BD        ; TRAPLN+1
4099: 18        clc
409A: 69 28     adc #$28
409C: 85 BD     sta $BD        ; TRAPLN+1
409E: 90 03     bcc $40A3      ; L_40A3
40A0: E6 BE     inc $BE        ; SAVCUR
40A2: 18        clc
40A3: A5 BB     lda $BB        ; STOPLN+1
40A5: 69 28     adc #$28
40A7: 85 BB     sta $BB        ; STOPLN+1
40A9: 90 02     bcc $40AD      ; L_40AD
40AB: E6 BC     inc $BC        ; TRAPLN
40AD: CA        dex
40AE: 10 DE     bpl $408E      ; L_408E
40B0: A5 8C     lda $8C        ; STARP
40B2: 85 BB     sta $BB        ; STOPLN+1
40B4: A5 8D     lda $8D        ; STARP+1
40B6: 85 BC     sta $BC        ; TRAPLN
40B8: A6 A8     ldx $A8        ; STINDEX
40BA: 20 CC 40  jsr $40CC      ; L_40CC
40BD: A5 D0     lda $D0
40BF: F0 05     beq $40C6      ; L_40C6
40C1: A2 0D     ldx #$0D
40C3: 20 CC 40  jsr $40CC      ; L_40CC
40C6: A5 B1     lda $B1        ; ADFLAG
40C8: F0 1C     beq $40E6      ; L_40E6
40CA: A2 0C     ldx #$0C
40CC: A5 BB     lda $BB        ; STOPLN+1
40CE: 18        clc
40CF: 7D E7 40  adc $40E7,x    ; L_40E7
40D2: 85 8C     sta $8C        ; STARP
40D4: A5 BC     lda $BC        ; TRAPLN
40D6: 7D F6 40  adc $40F6,x
40D9: 85 8D     sta $8D        ; STARP+1
40DB: A0 07     ldy #$07
40DD: B1 8C     lda ($8C),y    ; STARP
40DF: 49 80     eor #$80
40E1: 91 8C     sta ($8C),y    ; STARP
40E3: 88        dey
40E4: D0 F7     bne $40DD      ; L_40DD
40E6: 60        rts
40E7: 50 58     bvc $4141
40E9: 60        rts
40EA: 68        BYTE $68 $70 $F0 $F8 $00 $08 $10 $90
40F2: 98        BYTE $98 $A0 $A8 $B0 $00 $00 $00 $00
40FA: 00        BYTE $00 $00 $00 $01 $01 $01 $01 $01
4102: 01        BYTE $01 $01 $01
4105: A0 00     ldy #$00
4107: 98        tya
4108: 91 BB     sta ($BB),y    ; STOPLN+1
410A: 88        dey
410B: D0 FB     bne $4108      ; L_4108
410D: 60        rts
410E: 3F        BYTE $3F $1F $0F $07 $03 $01 $53 $77
4116: 9B        BYTE $9B $C0 $3B $47 $53 $5F $6B $77
411E: 83        BYTE $83 $8F $9B $A7 $B3 $BF
4124: A5 FC     lda $FC        ; FLPTR
4126: D0 03     bne $412B      ; L_412B
4128: 20 87 3F  jsr $3F87      ; L_3F87
412B: A9 00     lda #$00
412D: 85 FC     sta $FC        ; FLPTR
412F: 85 92     sta $92        ; MEOLFLG
4131: 85 CF     sta $CF
4133: 20 B8 4D  jsr $4DB8      ; L_4DB8
4136: A9 08     lda #$08
4138: 85 B3     sta $B3        ; ONLOOP
413A: 20 5C 56  jsr $565C      ; L_565C
413D: 20 46 41  jsr $4146      ; L_4146
4140: 20 64 3F  jsr $3F64      ; L_3F64
4143: 4C A9 3D  jmp $3DA9      ; L_3DA9
4146: 20 23 45  jsr $4523      ; L_4523
4149: 20 EF 5C  jsr $5CEF      ; L_5CEF
414C: A9 FF     lda #$FF
414E: 8D FC 02  sta $02FC      ; CH
4151: 20 93 4D  jsr $4D93      ; L_4D93
4154: 20 47 51  jsr $5147      ; L_5147
4157: 20 20 5C  jsr $5C20      ; L_5C20
415A: 20 C2 4D  jsr $4DC2      ; L_4DC2
415D: A5 E6     lda $E6        ; FR2
415F: C9 08     cmp #$08
4161: F0 2C     beq $418F      ; L_418F
4163: A5 CC     lda $CC
4165: A2 07     ldx #$07
4167: DD 70 41  cmp $4170,x    ; L_4170
416A: 90 3A     bcc $41A6      ; L_41A6
416C: CA        dex
416D: 10 F8     bpl $4167      ; L_4167
416F: 60        rts
4170: FF        BYTE $FF
4171: 9F        BYTE $9F
4172: 60        rts
4173: 57        BYTE $57 $4E $45 $3C $30 $1C $0C $21
417B: 41        BYTE $41 $41 $42 $41 $42 $44 $44 $41
4183: 41        BYTE $41 $41 $6F $49 $19 $B4 $C1 $61
418B: 29        BYTE $29 $49 $6F $6F
418F: A9 FF     lda #$FF
4191: 8D FC 02  sta $02FC      ; CH
4194: A5 DE     lda $DE        ; FRE+4
4196: 29 3F     and #$3F
4198: A0 02     ldy #$02
419A: D9 78 41  cmp $4178,y
419D: F0 05     beq $41A4      ; L_41A4
419F: 88        dey
41A0: 10 F8     bpl $419A      ; L_419A
41A2: 30 AD     bmi $4151      ; L_4151
41A4: A2 00     ldx #$00
41A6: BD 85 41  lda $4185,x
41A9: BC 7B 41  ldy $417B,x    ; L_417B
41AC: A2 FF     ldx #$FF
41AE: 8E FC 02  stx $02FC      ; CH
41B1: 4C 8C 4D  jmp $4D8C      ; L_4D8C
41B4: A2 04     ldx #$04
41B6: A0 00     ldy #$00
41B8: 20 4E 5C  jsr $5C4E      ; L_5C4E
41BB: A9 00     lda #$00
41BD: A0 42     ldy #$42
41BF: 20 87 5C  jsr $5C87      ; L_5C87
41C2: 20 92 45  jsr $4592      ; L_4592
41C5: C9 1B     cmp #$1B
41C7: F0 0A     beq $41D3      ; L_41D3
41C9: AD DB 06  lda $06DB
41CC: C9 44     cmp #$44
41CE: F0 06     beq $41D6      ; L_41D6
41D0: 4C 49 44  jmp $4449      ; L_4449
41D3: 4C 49 41  jmp $4149      ; L_4149
41D6: 20 06 45  jsr $4506      ; L_4506
41D9: C0 01     cpy #$01
41DB: F0 03     beq $41E0      ; L_41E0
41DD: 4C 53 47  jmp $4753      ; L_4753
41E0: 20 52 45  jsr $4552      ; L_4552
41E3: D0 EE     bne $41D3      ; L_41D3
41E5: 20 77 5C  jsr $5C77      ; L_5C77
41E8: A2 30     ldx #$30
41EA: A9 21     lda #$21
41EC: 9D 42 03  sta $0342,x    ; B0_ICCOM
41EF: A9 DB     lda #$DB
41F1: 9D 44 03  sta $0344,x    ; B0_ICBAL
41F4: A9 06     lda #$06
41F6: 9D 45 03  sta $0345,x    ; B0_ICBAH
41F9: 20 56 E4  jsr $E456      ; CIOV
41FC: 30 DF     bmi $41DD      ; L_41DD
41FE: 10 D3     bpl $41D3      ; L_41D3
4200: 20        BYTE $20 $20 $20 $20 $20 $20 $20 $20
4208: 20        BYTE $20 $20 $20 $20 $20 $20 $20 $20
4210: 20        BYTE $20 $20 $20 $20 $20 $20 $20 $20
4218: 9B        BYTE $9B
4219: A2 04     ldx #$04
421B: A0 00     ldy #$00
421D: 20 4E 5C  jsr $5C4E      ; L_5C4E
4220: A9 6B     lda #$6B
4222: A0 42     ldy #$42
4224: 20 87 5C  jsr $5C87      ; L_5C87
4227: A2 04     ldx #$04
4229: A0 02     ldy #$02
422B: 20 4E 5C  jsr $5C4E      ; L_5C4E
422E: A9 77     lda #$77
4230: A0 42     ldy #$42
4232: 20 87 5C  jsr $5C87      ; L_5C87
4235: 20 52 45  jsr $4552      ; L_4552
4238: D0 2E     bne $4268      ; L_4268
423A: 20 E7 5C  jsr $5CE7      ; L_5CE7
423D: 20 EB 5C  jsr $5CEB      ; L_5CEB
4240: A2 04     ldx #$04
4242: A0 03     ldy #$03
4244: 20 4E 5C  jsr $5C4E      ; L_5C4E
4247: A9 96     lda #$96
4249: A0 42     ldy #$42
424B: 20 87 5C  jsr $5C87      ; L_5C87
424E: 20 0A 49  jsr $490A      ; L_490A
4251: A9 FE     lda #$FE
4253: 9D 42 03  sta $0342,x    ; B0_ICCOM
4256: A9 B8     lda #$B8
4258: 9D 44 03  sta $0344,x    ; B0_ICBAL
425B: A9 42     lda #$42
425D: 9D 45 03  sta $0345,x    ; B0_ICBAH
4260: 20 56 E4  jsr $E456      ; CIOV
4263: 10 03     bpl $4268      ; L_4268
4265: 4C 53 47  jmp $4753      ; L_4753
4268: 4C 49 41  jmp $4149      ; L_4149
426B: 20        BYTE $20 $20 $20 $20 $20 $20 $20 $20
4273: 20        BYTE $20 $20 $20 $9B $20 $20 $20 $20
427B: 20        BYTE $20 $20 $20 $20 $20 $20 $20 $20
4283: 20        BYTE $20 $20 $20 $20 $20 $20 $20 $20
428B: 20        BYTE $20 $20 $20 $20 $20 $20 $20 $20
4293: 20        BYTE $20 $20 $9B $20 $52 $41 $47 $4D
429B: 41        BYTE $41 $4E $20 $53 $4F $46 $54 $20
42A3: 9B        BYTE $9B $20 $20 $20 $20 $20 $20 $20
42AB: 20        BYTE $20 $20 $20 $20 $20 $20 $20 $20
42B3: 20        BYTE $20 $20 $20 $20 $9B $20 $20 $20
42BB: 20        BYTE $20 $20 $20 $20 $20 $9B
42C1: 20 FD 46  jsr $46FD      ; L_46FD
42C4: A9 F4     lda #$F4
42C6: 85 9C     sta $9C        ; MVTA+1
42C8: 20 EF 5C  jsr $5CEF      ; L_5CEF
42CB: A9 00     lda #$00
42CD: 85 8B     sta $8B        ; STMCUR+1
42CF: A5 9C     lda $9C        ; MVTA+1
42D1: 18        clc
42D2: 69 0C     adc #$0C
42D4: 85 9C     sta $9C        ; MVTA+1
42D6: A9 02     lda #$02
42D8: 85 8A     sta $8A        ; STMCUR
42DA: 20 52 5C  jsr $5C52      ; L_5C52
42DD: 20 21 47  jsr $4721      ; L_4721
42E0: 90 2F     bcc $4311      ; L_4311
42E2: E6 E3     inc $E3        ; FR1+3
42E4: A2 02     ldx #$02
42E6: BD EF 06  lda $06EF,x
42E9: 20 77 5C  jsr $5C77      ; L_5C77
42EC: E8        inx
42ED: E0 0A     cpx #$0A
42EF: D0 F5     bne $42E6      ; L_42E6
42F1: A5 8A     lda $8A        ; STMCUR
42F3: 18        clc
42F4: 69 09     adc #$09
42F6: 85 8A     sta $8A        ; STMCUR
42F8: C9 23     cmp #$23
42FA: 90 DE     bcc $42DA      ; L_42DA
42FC: E6 8B     inc $8B        ; STMCUR+1
42FE: A5 8B     lda $8B        ; STMCUR+1
4300: C9 03     cmp #$03
4302: 90 D2     bcc $42D6      ; L_42D6
4304: B0 0B     bcs $4311      ; L_4311
4306: A9 70     lda #$70
4308: 8D BA 06  sta $06BA
430B: 20 EF 5C  jsr $5CEF      ; L_5CEF
430E: 4C 5D 41  jmp $415D      ; L_415D
4311: 66 9B     ror $9B        ; MVTA
4313: 30 0A     bmi $431F      ; L_431F
4315: A5 8B     lda $8B        ; STMCUR+1
4317: D0 06     bne $431F      ; L_431F
4319: A5 8A     lda $8A        ; STMCUR
431B: C9 02     cmp #$02
431D: F0 4F     beq $436E      ; L_436E
431F: A2 00     ldx #$00
4321: A0 03     ldy #$03
4323: 20 4E 5C  jsr $5C4E      ; L_5C4E
4326: A9 00     lda #$00
4328: A0 44     ldy #$44
432A: 20 87 5C  jsr $5C87      ; L_5C87
432D: 24 9B     bit $9B        ; MVTA
432F: 10 05     bpl $4336      ; L_4336
4331: A9 02     lda #$02
4333: 8D BA 06  sta $06BA
4336: 20 47 51  jsr $5147      ; L_5147
4339: 20 20 5C  jsr $5C20      ; L_5C20
433C: 20 C2 4D  jsr $4DC2      ; L_4DC2
433F: A5 E6     lda $E6        ; FR2
4341: C9 08     cmp #$08
4343: F0 47     beq $438C      ; L_438C
4345: A5 CC     lda $CC
4347: C9 63     cmp #$63
4349: 90 BB     bcc $4306      ; L_4306
434B: C9 6B     cmp #$6B
434D: 90 08     bcc $4357      ; L_4357
434F: C9 8B     cmp #$8B
4351: 90 49     bcc $439C      ; L_439C
4353: C9 97     cmp #$97
4355: B0 AF     bcs $4306      ; L_4306
4357: A9 70     lda #$70
4359: 8D BA 06  sta $06BA
435C: 24 9B     bit $9B        ; MVTA
435E: 10 03     bpl $4363      ; L_4363
4360: 4C C8 42  jmp $42C8      ; L_42C8
4363: A9 70     lda #$70
4365: 8D BA 06  sta $06BA
4368: 20 0A 49  jsr $490A      ; L_490A
436B: 4C 49 41  jmp $4149      ; L_4149
436E: A5 E3     lda $E3        ; FR1+3
4370: D0 F1     bne $4363      ; L_4363
4372: A2 04     ldx #$04
4374: A0 03     ldy #$03
4376: 20 4E 5C  jsr $5C4E      ; L_5C4E
4379: A9 A4     lda #$A4
437B: A0 42     ldy #$42
437D: 20 87 5C  jsr $5C87      ; L_5C87
4380: A9 C0     lda #$C0
4382: 85 13     sta $13        ; RTCLOK+1
4384: 85 14     sta $14        ; RTCLOK+2
4386: C5 13     cmp $13        ; RTCLOK+1
4388: F0 FC     beq $4386      ; L_4386
438A: D0 DF     bne $436B      ; L_436B
438C: A5 DE     lda $DE        ; FRE+4
438E: 20 29 5D  jsr $5D29      ; L_5D29
4391: C9 20     cmp #$20
4393: F0 C2     beq $4357      ; L_4357
4395: C9 43     cmp #$43
4397: F0 BE     beq $4357      ; L_4357
4399: 4C 06 43  jmp $4306      ; L_4306
439C: A2 02     ldx #$02
439E: DD F6 43  cmp $43F6,x    ; L_43F6
43A1: B0 03     bcs $43A6      ; L_43A6
43A3: CA        dex
43A4: D0 F8     bne $439E      ; L_439E
43A6: BC F9 43  ldy $43F9,x
43A9: A2 03     ldx #$03
43AB: A5 CB     lda $CB
43AD: DD FC 43  cmp $43FC,x    ; L_43FC
43B0: B0 03     bcs $43B5      ; L_43B5
43B2: CA        dex
43B3: D0 F8     bne $43AD      ; L_43AD
43B5: C8        iny
43B6: CA        dex
43B7: 10 FC     bpl $43B5      ; L_43B5
43B9: 98        tya
43BA: 18        clc
43BB: 65 9C     adc $9C        ; MVTA+1
43BD: 85 9B     sta $9B        ; MVTA
43BF: 20 FD 46  jsr $46FD      ; L_46FD
43C2: 20 21 47  jsr $4721      ; L_4721
43C5: 90 9C     bcc $4363      ; L_4363
43C7: C6 9B     dec $9B        ; MVTA
43C9: D0 F7     bne $43C2      ; L_43C2
43CB: A2 07     ldx #$07
43CD: A9 20     lda #$20
43CF: 9D DC 06  sta $06DC,x
43D2: BD F1 06  lda $06F1,x
43D5: 9D DB 06  sta $06DB,x
43D8: CA        dex
43D9: 10 F7     bpl $43D2      ; L_43D2
43DB: 20 31 46  jsr $4631      ; L_4631
43DE: 20 64 3F  jsr $3F64      ; L_3F64
43E1: 20 12 4A  jsr $4A12      ; L_4A12
43E4: 10 0D     bpl $43F3      ; L_43F3
43E6: 84 93     sty $93
43E8: 20 87 3F  jsr $3F87      ; L_3F87
43EB: 20 23 45  jsr $4523      ; L_4523
43EE: A4 93     ldy $93
43F0: 4C 53 47  jmp $4753      ; L_4753
43F3: 4C 46 41  jmp $4146      ; L_4146
43F6: 00        brk
43F7: 79 82 00  adc $0082,y    ; VNTP
43FA: 04        BYTE $04
43FB: 08        php
43FC: 00        brk
43FD: 28        plp
43FE: 4C 70 1C  jmp $1C70
4401: 20        BYTE $20 $20 $20 $20 $20 $20 $20 $20
4409: 20        BYTE $20 $20 $20 $20 $20 $20 $20 $20
4411: 20        BYTE $20 $20 $20 $20 $20 $20 $20 $20
4419: 20        BYTE $20 $20 $20 $20 $20 $20 $20 $20
4421: 20        BYTE $20 $20 $20 $20 $20 $00 $1C $9B
4429: A2 04     ldx #$04
442B: A0 00     ldy #$00
442D: 20 4E 5C  jsr $5C4E      ; L_5C4E
4430: A9 54     lda #$54
4432: A0 44     ldy #$44
4434: 20 87 5C  jsr $5C87      ; L_5C87
4437: 20 92 45  jsr $4592      ; L_4592
443A: C9 1B     cmp #$1B
443C: F0 10     beq $444E      ; L_444E
443E: AD DB 06  lda $06DB
4441: C9 45     cmp #$45
4443: F0 04     beq $4449      ; L_4449
4445: C9 53     cmp #$53
4447: D0 08     bne $4451      ; L_4451
4449: A0 84     ldy #$84
444B: 4C 53 47  jmp $4753      ; L_4753
444E: 4C 49 41  jmp $4149      ; L_4149
4451: 4C DE 43  jmp $43DE      ; L_43DE
4454: 4C 65 65  jmp $6565
4457: 72        BYTE $72 $20 $44 $69 $62 $75 $6A $6F
445F: 20        BYTE $20 $9B $A2 $04
4463: A0 00     ldy #$00
4465: 20 4E 5C  jsr $5C4E      ; L_5C4E
4468: A9 F9     lda #$F9
446A: A0 44     ldy #$44
446C: 20 87 5C  jsr $5C87      ; L_5C87
446F: 20 92 45  jsr $4592      ; L_4592
4472: C9 1B     cmp #$1B
4474: F0 D8     beq $444E      ; L_444E
4476: AD DB 06  lda $06DB
4479: C9 45     cmp #$45
447B: F0 CC     beq $4449      ; L_4449
447D: C9 53     cmp #$53
447F: F0 C8     beq $4449      ; L_4449
4481: C9 44     cmp #$44
4483: D0 07     bne $448C      ; L_448C
4485: 20 06 45  jsr $4506      ; L_4506
4488: C0 AA     cpy #$AA
448A: D0 15     bne $44A1      ; L_44A1
448C: 20 64 3F  jsr $3F64      ; L_3F64
448F: 20 34 49  jsr $4934      ; L_4934
4492: 10 0A     bpl $449E      ; L_449E
4494: 84 93     sty $93
4496: 20 23 45  jsr $4523      ; L_4523
4499: A4 93     ldy $93
449B: 4C 53 47  jmp $4753      ; L_4753
449E: 4C 46 41  jmp $4146      ; L_4146
44A1: C0 01     cpy #$01
44A3: D0 F6     bne $449B      ; L_449B
44A5: 20 EB 5C  jsr $5CEB      ; L_5CEB
44A8: A2 00     ldx #$00
44AA: A0 03     ldy #$03
44AC: 20 4E 5C  jsr $5C4E      ; L_5C4E
44AF: A9 D2     lda #$D2
44B1: A0 44     ldy #$44
44B3: 20 87 5C  jsr $5C87      ; L_5C87
44B6: 20 22 5D  jsr $5D22      ; L_5D22
44B9: C9 FF     cmp #$FF
44BB: D0 08     bne $44C5      ; L_44C5
44BD: 20 D9 53  jsr $53D9      ; L_53D9
44C0: F0 F4     beq $44B6      ; L_44B6
44C2: 4C 49 41  jmp $4149      ; L_4149
44C5: C9 59     cmp #$59
44C7: D0 F9     bne $44C2      ; L_44C2
44C9: 20 77 5C  jsr $5C77      ; L_5C77
44CC: 20 17 59  jsr $5917      ; L_5917
44CF: 4C 8C 44  jmp $448C      ; L_448C
44D2: 20        BYTE $20 $20 $20 $20 $20 $20 $20 $20
44DA: 20        BYTE $20 $20 $20 $20 $20 $20 $20 $20
44E2: 20        BYTE $20 $20 $20 $20 $20 $20 $20 $20
44EA: 20        BYTE $20 $20 $20 $20 $20 $20 $20 $20
44F2: 20        BYTE $20 $20 $20 $20 $20 $20 $9B $53
44FA: 61        BYTE $61 $6C $76 $61 $20 $44 $69 $62
4502: 75        BYTE $75 $6A $6F $9B
4506: 20 0A 49  jsr $490A      ; L_490A
4509: A9 06     lda #$06
450B: 9D 45 03  sta $0345,x    ; B0_ICBAH
450E: A9 DB     lda #$DB
4510: 9D 44 03  sta $0344,x    ; B0_ICBAL
4513: A9 0D     lda #$0D
4515: 9D 42 03  sta $0342,x    ; B0_ICCOM
4518: A9 00     lda #$00
451A: 9D 4A 03  sta $034A,x    ; B0_ICAX1
451D: 9D 4B 03  sta $034B,x    ; B0_ICAX2
4520: 4C 56 E4  jmp $E456      ; CIOV
4523: A9 E0     lda #$E0
4525: 85 F4     sta $F4        ; INBUFF+1
4527: 20 D6 34  jsr $34D6      ; L_34D6
452A: A9 0C     lda #$0C
452C: 8D 04 D4  sta $D404      ; HSCROL
452F: 8D C6 02  sta $02C6      ; COLOR2
4532: A9 06     lda #$06
4534: 8D C5 02  sta $02C5      ; COLOR1
4537: A2 36     ldx #$36
4539: BD 24 35  lda $3524,x
453C: 9D 97 06  sta $0697,x
453F: CA        dex
4540: 10 F7     bpl $4539      ; L_4539
4542: 20 20 5C  jsr $5C20      ; L_5C20
4545: 8D BD 06  sta $06BD
4548: 8C BE 06  sty $06BE
454B: A0 06     ldy #$06
454D: A9 97     lda #$97
454F: 4C F8 4D  jmp $4DF8      ; L_4DF8
4552: 20 EB 5C  jsr $5CEB      ; L_5CEB
4555: 20 D9 53  jsr $53D9      ; L_53D9
4558: D0 FB     bne $4555      ; L_4555
455A: A2 04     ldx #$04
455C: A0 03     ldy #$03
455E: 20 4E 5C  jsr $5C4E      ; L_5C4E
4561: A9 79     lda #$79
4563: A0 45     ldy #$45
4565: 20 87 5C  jsr $5C87      ; L_5C87
4568: 20 22 5D  jsr $5D22      ; L_5D22
456B: C9 FF     cmp #$FF
456D: D0 07     bne $4576      ; L_4576
456F: 20 D9 53  jsr $53D9      ; L_53D9
4572: F0 F4     beq $4568      ; L_4568
4574: A9 1B     lda #$1B
4576: C9 59     cmp #$59
4578: 60        rts
4579: 50        BYTE $50 $72 $65 $73 $69 $6F $6E $65
4581: 20        BYTE $20 $6C $61 $20 $74 $65 $63 $6C
4589: 61        BYTE $61 $20 $28 $20 $4E $20 $29 $20
4591: 9B        BYTE $9B
4592: A2 04     ldx #$04
4594: A0 01     ldy #$01
4596: 20 4E 5C  jsr $5C4E      ; L_5C4E
4599: A9 DA     lda #$DA
459B: A0 46     ldy #$46
459D: 20 87 5C  jsr $5C87      ; L_5C87
45A0: A2 04     ldx #$04
45A2: A0 03     ldy #$03
45A4: 20 4E 5C  jsr $5C4E      ; L_5C4E
45A7: A9 F0     lda #$F0
45A9: A0 46     ldy #$46
45AB: 20 87 5C  jsr $5C87      ; L_5C87
45AE: A2 04     ldx #$04
45B0: A0 02     ldy #$02
45B2: 20 4E 5C  jsr $5C4E      ; L_5C4E
45B5: A9 1F     lda #$1F
45B7: 20 77 5C  jsr $5C77      ; L_5C77
45BA: A2 14     ldx #$14
45BC: A0 02     ldy #$02
45BE: 20 4E 5C  jsr $5C4E      ; L_5C4E
45C1: A9 1E     lda #$1E
45C3: 20 77 5C  jsr $5C77      ; L_5C77
45C6: A2 05     ldx #$05
45C8: A0 02     ldy #$02
45CA: 20 4E 5C  jsr $5C4E      ; L_5C4E
45CD: A0 0F     ldy #$0F
45CF: A9 20     lda #$20
45D1: 99 DA 06  sta $06DA,y
45D4: 88        dey
45D5: D0 FA     bne $45D1      ; L_45D1
45D7: 20 D9 53  jsr $53D9      ; L_53D9
45DA: D0 FB     bne $45D7      ; L_45D7
45DC: A9 00     lda #$00
45DE: 85 8F     sta $8F        ; RUNSTK+1
45E0: 20 C1 46  jsr $46C1      ; L_46C1
45E3: 20 22 5D  jsr $5D22      ; L_5D22
45E6: C9 FF     cmp #$FF
45E8: D0 08     bne $45F2      ; L_45F2
45EA: 20 D9 53  jsr $53D9      ; L_53D9
45ED: F0 F1     beq $45E0      ; L_45E0
45EF: A9 1B     lda #$1B
45F1: 60        rts
45F2: 48        pha
45F3: 20 17 59  jsr $5917      ; L_5917
45F6: 68        pla
45F7: A0 00     ldy #$00
45F9: A6 8F     ldx $8F        ; RUNSTK+1
45FB: C9 9B     cmp #$9B
45FD: F0 32     beq $4631      ; L_4631
45FF: C9 7D     cmp #$7D
4601: D0 06     bne $4609      ; L_4609
4603: 20 0F 5D  jsr $5D0F      ; L_5D0F
4606: 4C CD 45  jmp $45CD      ; L_45CD
4609: C9 7E     cmp #$7E
460B: D0 78     bne $4685      ; L_4685
460D: C6 8F     dec $8F        ; RUNSTK+1
460F: 30 CB     bmi $45DC      ; L_45DC
4611: 20 F8 5C  jsr $5CF8      ; L_5CF8
4614: A6 8F     ldx $8F        ; RUNSTK+1
4616: A0 00     ldy #$00
4618: BD DC 06  lda $06DC,x
461B: 9D DB 06  sta $06DB,x
461E: C8        iny
461F: B1 8C     lda ($8C),y    ; STARP
4621: 88        dey
4622: 91 8C     sta ($8C),y    ; STARP
4624: C8        iny
4625: E8        inx
4626: E0 0E     cpx #$0E
4628: 30 EE     bmi $4618      ; L_4618
462A: A9 00     lda #$00
462C: 91 8C     sta ($8C),y    ; STARP
462E: 4C E0 45  jmp $45E0      ; L_45E0
4631: 20 EB 5C  jsr $5CEB      ; L_5CEB
4634: A2 00     ldx #$00
4636: BD DB 06  lda $06DB,x
4639: C9 3A     cmp #$3A
463B: F0 19     beq $4656      ; L_4656
463D: E8        inx
463E: E0 0F     cpx #$0F
4640: D0 F4     bne $4636      ; L_4636
4642: CA        dex
4643: BD DB 06  lda $06DB,x
4646: 9D DD 06  sta $06DD,x
4649: CA        dex
464A: 10 F7     bpl $4643      ; L_4643
464C: A9 44     lda #$44
464E: 8D DB 06  sta $06DB
4651: A9 3A     lda #$3A
4653: 8D DC 06  sta $06DC
4656: A2 02     ldx #$02
4658: BD DB 06  lda $06DB,x
465B: C9 2E     cmp #$2E
465D: F0 20     beq $467F      ; L_467F
465F: C9 20     cmp #$20
4661: F0 06     beq $4669      ; L_4669
4663: E8        inx
4664: E0 0C     cpx #$0C
4666: D0 F0     bne $4658      ; L_4658
4668: CA        dex
4669: A0 04     ldy #$04
466B: B9 BC 42  lda $42BC,y
466E: 9D DF 06  sta $06DF,x
4671: CA        dex
4672: 30 04     bmi $4678      ; L_4678
4674: 88        dey
4675: 10 F4     bpl $466B      ; L_466B
4677: 60        rts
4678: A9 2E     lda #$2E
467A: 8D DE 06  sta $06DE
467D: D0 05     bne $4684      ; L_4684
467F: A9 9B     lda #$9B
4681: 9D DF 06  sta $06DF,x
4684: 60        rts
4685: C9 1E     cmp #$1E
4687: D0 0A     bne $4693      ; L_4693
4689: C6 8F     dec $8F        ; RUNSTK+1
468B: 30 82     bmi $460F      ; L_460F
468D: 20 06 5D  jsr $5D06      ; L_5D06
4690: 4C E0 45  jmp $45E0      ; L_45E0
4693: C9 1F     cmp #$1F
4695: D0 0D     bne $46A4      ; L_46A4
4697: E8        inx
4698: E0 0F     cpx #$0F
469A: F0 F4     beq $4690      ; L_4690
469C: 86 8F     stx $8F        ; RUNSTK+1
469E: 20 80 5C  jsr $5C80      ; L_5C80
46A1: 4C E0 45  jmp $45E0      ; L_45E0
46A4: C9 1B     cmp #$1B
46A6: F0 DC     beq $4684      ; L_4684
46A8: 9D DB 06  sta $06DB,x
46AB: 20 64 5C  jsr $5C64      ; L_5C64
46AE: A0 00     ldy #$00
46B0: 91 8C     sta ($8C),y    ; STARP
46B2: A6 8F     ldx $8F        ; RUNSTK+1
46B4: E8        inx
46B5: E0 0F     cpx #$0F
46B7: F0 D7     beq $4690      ; L_4690
46B9: 86 8F     stx $8F        ; RUNSTK+1
46BB: 20 80 5C  jsr $5C80      ; L_5C80
46BE: 4C 90 46  jmp $4690      ; L_4690
46C1: A5 14     lda $14        ; RTCLOK+2
46C3: C5 14     cmp $14        ; RTCLOK+2
46C5: F0 FC     beq $46C3      ; L_46C3
46C7: A0 00     ldy #$00
46C9: B1 8C     lda ($8C),y    ; STARP
46CB: 48        pha
46CC: A9 3F     lda #$3F
46CE: 91 8C     sta ($8C),y    ; STARP
46D0: A5 14     lda $14        ; RTCLOK+2
46D2: C5 14     cmp $14        ; RTCLOK+2
46D4: F0 FC     beq $46D2      ; L_46D2
46D6: 68        pla
46D7: 91 8C     sta ($8C),y    ; STARP
46D9: 60        rts
46DA: 50        BYTE $50 $6F $6E $67 $61 $20 $43 $3A
46E2: 6E        BYTE $6E $6F $6D $62 $72 $65 $20 $20
46EA: 20        BYTE $20 $20 $20 $20 $20 $9B $55 $73
46F2: 65        BYTE $65 $20 $4B $65 $79 $62 $6F $61
46FA: 72        BYTE $72 $64 $9B
46FD: 20 0A 49  jsr $490A      ; L_490A
4700: A9 03     lda #$03
4702: 9D 42 03  sta $0342,x    ; B0_ICCOM
4705: A9 06     lda #$06
4707: 9D 4A 03  sta $034A,x    ; B0_ICAX1
470A: A9 00     lda #$00
470C: 9D 4B 03  sta $034B,x    ; B0_ICAX2
470F: 85 E3     sta $E3        ; FR1+3
4711: A9 B8     lda #$B8
4713: 9D 44 03  sta $0344,x    ; B0_ICBAL
4716: A9 42     lda #$42
4718: 9D 45 03  sta $0345,x    ; B0_ICBAH
471B: 20 56 E4  jsr $E456      ; CIOV
471E: 30 33     bmi $4753      ; L_4753
4720: 60        rts
4721: A2 30     ldx #$30
4723: A9 EF     lda #$EF
4725: 9D 44 03  sta $0344,x    ; B0_ICBAL
4728: A9 06     lda #$06
472A: 9D 45 03  sta $0345,x    ; B0_ICBAH
472D: A9 0F     lda #$0F
472F: 9D 48 03  sta $0348,x    ; B0_ICBLL
4732: A9 00     lda #$00
4734: 9D 49 03  sta $0349,x    ; B0_ICBLH
4737: A9 05     lda #$05
4739: 9D 42 03  sta $0342,x    ; B0_ICCOM
473C: 20 56 E4  jsr $E456      ; CIOV
473F: 10 06     bpl $4747      ; L_4747
4741: C0 89     cpy #$89
4743: F0 02     beq $4747      ; L_4747
4745: D0 0C     bne $4753      ; L_4753
4747: AD EF 06  lda $06EF
474A: C9 30     cmp #$30
474C: 90 03     bcc $4751      ; L_4751
474E: C9 3A     cmp #$3A
4750: 60        rts
4751: 38        sec
4752: 60        rts
4753: 84 93     sty $93
4755: 20 20 5C  jsr $5C20      ; L_5C20
4758: 20 EB 5C  jsr $5CEB      ; L_5CEB
475B: A2 00     ldx #$00
475D: A0 03     ldy #$03
475F: 20 4E 5C  jsr $5C4E      ; L_5C4E
4762: A5 93     lda $93
4764: 20 A0 5C  jsr $5CA0      ; L_5CA0
4767: A9 2D     lda #$2D
4769: 20 77 5C  jsr $5C77      ; L_5C77
476C: A9 20     lda #$20
476E: 20 77 5C  jsr $5C77      ; L_5C77
4771: A2 0E     ldx #$0E
4773: A5 93     lda $93
4775: DD B3 47  cmp $47B3,x
4778: F0 0C     beq $4786      ; L_4786
477A: B0 08     bcs $4784      ; L_4784
477C: DD A4 47  cmp $47A4,x    ; L_47A4
477F: B0 05     bcs $4786      ; L_4786
4781: CA        dex
4782: D0 F1     bne $4775      ; L_4775
4784: A2 00     ldx #$00
4786: BD C2 47  lda $47C2,x
4789: BC D1 47  ldy $47D1,x
478C: 20 87 5C  jsr $5C87      ; L_5C87
478F: 20 17 59  jsr $5917      ; L_5917
4792: AD FC 02  lda $02FC      ; CH
4795: C9 FF     cmp #$FF
4797: D0 05     bne $479E      ; L_479E
4799: 20 D9 53  jsr $53D9      ; L_53D9
479C: F0 F4     beq $4792      ; L_4792
479E: A6 DD     ldx $DD        ; FRE+3
47A0: 9A        txs
47A1: 4C 2B 41  jmp $412B      ; L_412B
47A4: 00        BYTE $00 $80 $82 $84 $88 $8A $90 $91
47AC: A0        BYTE $A0 $A2 $A3 $A5 $A7 $A9 $AA $00
47B4: 80        BYTE $80 $82 $84 $89 $8F $90 $9F $A0
47BC: A2        BYTE $A2 $A4 $A5 $A7 $A9 $AA $E0 $ED
47C4: 02        BYTE $02 $95 $13 $22 $33 $33 $A5 $3D
47CC: 33        BYTE $33 $4A $5F $71 $83 $47 $47 $48
47D4: 48        BYTE $48 $48 $48 $48 $48 $48 $48 $48
47DC: 48        BYTE $48 $48 $48 $48 $53 $79 $73 $74
47E4: 65        BYTE $65 $6D $20 $45 $72 $72 $6F $72
47EC: 9B        BYTE $9B $53 $74 $6F $70 $70 $65 $64
47F4: 20        BYTE $20 $62 $79 $20 $42 $52 $45 $41
47FC: 4B        BYTE $4B $20 $6B $65 $79 $9B $44 $65
4804: 76        BYTE $76 $69 $63 $65 $20 $6E $6F $74
480C: 20        BYTE $20 $66 $6F $75 $6E $64 $9B $46
4814: 69        BYTE $69 $6C $65 $20 $74 $6F $6F $20
481C: 73        BYTE $73 $68 $6F $72 $74 $9B $54 $72
4824: 61        BYTE $61 $6E $73 $66 $65 $72 $20 $50
482C: 72        BYTE $72 $6F $62 $6C $65 $6D $9B $42
4834: 61        BYTE $61 $64 $20 $6D $65 $64 $69 $61
483C: 9B        BYTE $9B $20 $20 $20 $20 $20 $20 $20
4844: 20        BYTE $20 $20 $20 $20 $20 $20 $49 $6E
484C: 76        BYTE $76 $61 $6C $69 $64 $20 $50 $69
4854: 63        BYTE $63 $74 $75 $72 $65 $20 $6E $61
485C: 6D        BYTE $6D $65 $9B $50 $69 $63 $74 $75
4864: 72        BYTE $72 $65 $20 $69 $73 $20 $4C $6F
486C: 63        BYTE $63 $6B $65 $64 $9B $20 $20 $20
4874: 20        BYTE $20 $20 $20 $20 $20 $20 $20 $20
487C: 20        BYTE $20 $20 $20 $20 $20 $20 $20 $50
4884: 69        BYTE $69 $63 $74 $75 $72 $65 $20 $6E
488C: 6F        BYTE $6F $74 $20 $46 $6F $75 $6E $64
4894: 9B        BYTE $9B $49 $6E $76 $61 $6C $69 $64
489C: 20        BYTE $20 $43 $6F $6D $6D $61 $6E $64
48A4: 9B        BYTE $9B $20 $20 $20 $20 $20 $20 $20
48AC: 20        BYTE $20 $20 $20 $20 $20 $20 $20 $20
48B4: 20        BYTE $20 $20
48B6: A9 00     lda #$00
48B8: A2 7F     ldx #$7F
48BA: 95 80     sta $80,x      ; LOMEM
48BC: CA        dex
48BD: 10 FB     bpl $48BA      ; L_48BA
48BF: A2 07     ldx #$07
48C1: 9D 80 04  sta $0480,x
48C4: CA        dex
48C5: 10 FA     bpl $48C1      ; L_48C1
48C7: A9 55     lda #$55
48C9: 85 99     sta $99        ; MVFA
48CB: 0A        asl
48CC: 85 9A     sta $9A        ; MVFA+1
48CE: A9 FF     lda #$FF
48D0: 85 A6     sta $A6        ; DIRFLG
48D2: 4A        lsr
48D3: 85 AD     sta $AD        ; LELNUM
48D5: A9 75     lda #$75
48D7: 85 B4     sta $B4        ; ENTDTD
48D9: A9 5D     lda #$5D
48DB: 85 B5     sta $B5        ; LISTDTD
48DD: 60        rts
48DE: FF        BYTE $FF $80 $C9 $C7 $1A $00 $01 $FF
48E6: 0E        BYTE $0E $00 $28 $00 $C0 $FF $FF $FF
48EE: FF        BYTE $FF $FF $FF $FF $00 $00 $9B $9B
48F6: 9B        BYTE $9B $9B
48F8: A2 30     ldx #$30
48FA: A9 07     lda #$07
48FC: 9D 42 03  sta $0342,x    ; B0_ICCOM
48FF: A9 00     lda #$00
4901: 9D 48 03  sta $0348,x    ; B0_ICBLL
4904: 9D 49 03  sta $0349,x    ; B0_ICBLH
4907: 4C 56 E4  jmp $E456      ; CIOV
490A: A2 30     ldx #$30
490C: A9 0C     lda #$0C
490E: 9D 42 03  sta $0342,x    ; B0_ICCOM
4911: 4C 56 E4  jmp $E456      ; CIOV
4914: 44        BYTE $44 $31 $3A $50 $49 $43 $54 $55
491C: 52        BYTE $52 $45 $9B
491F: A2 00     ldx #$00
4921: BD 14 49  lda $4914,x    ; L_4914
4924: 9D DB 06  sta $06DB,x
4927: E8        inx
4928: C9 9B     cmp #$9B
492A: D0 F5     bne $4921      ; L_4921
492C: 85 A7     sta $A7        ; STMLBD
492E: 20 3B 49  jsr $493B      ; L_493B
4931: 4C A9 3D  jmp $3DA9      ; L_3DA9
4934: 20 C2 4D  jsr $4DC2      ; L_4DC2
4937: A9 00     lda #$00
4939: 85 A7     sta $A7        ; STMLBD
493B: 20 F5 4A  jsr $4AF5      ; L_4AF5
493E: 20 0A 49  jsr $490A      ; L_490A
4941: A9 06     lda #$06
4943: 9D 45 03  sta $0345,x    ; B0_ICBAH
4946: A9 DB     lda #$DB
4948: 9D 44 03  sta $0344,x    ; B0_ICBAL
494B: A9 03     lda #$03
494D: 9D 42 03  sta $0342,x    ; B0_ICCOM
4950: A9 08     lda #$08
4952: 9D 4A 03  sta $034A,x    ; B0_ICAX1
4955: A9 00     lda #$00
4957: 9D 4B 03  sta $034B,x    ; B0_ICAX2
495A: 20 56 E4  jsr $E456      ; CIOV
495D: 30 73     bmi $49D2      ; L_49D2
495F: A5 A7     lda $A7        ; STMLBD
4961: D0 22     bne $4985      ; L_4985
4963: 20 1B 4B  jsr $4B1B      ; L_4B1B
4966: A0 1A     ldy #$1A
4968: B9 DE 48  lda $48DE,y    ; L_48DE
496B: 99 6F 06  sta $066F,y
496E: 88        dey
496F: 10 F7     bpl $4968      ; L_4968
4971: A0 11     ldy #$11
4973: A2 04     ldx #$04
4975: BD C4 02  lda $02C4,x    ; COLOR0
4978: 99 6F 06  sta $066F,y
497B: 88        dey
497C: CA        dex
497D: 10 F6     bpl $4975      ; L_4975
497F: A4 AB     ldy $AB        ; EXSVOP
4981: C9 FF     cmp #$FF
4983: D0 12     bne $4997      ; L_4997
4985: AD A1 04  lda $04A1
4988: 85 BB     sta $BB        ; STOPLN+1
498A: AD 61 05  lda $0561
498D: 85 BC     sta $BC        ; TRAPLN
498F: A9 1E     lda #$1E
4991: 85 BA     sta $BA        ; STOPLN
4993: A9 00     lda #$00
4995: 85 B9     sta $B9        ; ERRNUM
4997: C8        iny
4998: 98        tya
4999: A0 07     ldy #$07
499B: 99 6F 06  sta $066F,y
499E: A0 12     ldy #$12
49A0: 18        clc
49A1: A5 B9     lda $B9        ; ERRNUM
49A3: 69 1A     adc #$1A
49A5: 99 6F 06  sta $066F,y
49A8: C8        iny
49A9: A5 BA     lda $BA        ; STOPLN
49AB: 69 00     adc #$00
49AD: 99 6F 06  sta $066F,y
49B0: A5 A7     lda $A7        ; STMLBD
49B2: D0 20     bne $49D4      ; L_49D4
49B4: A2 30     ldx #$30
49B6: A9 6F     lda #$6F
49B8: 9D 44 03  sta $0344,x    ; B0_ICBAL
49BB: A9 06     lda #$06
49BD: 9D 45 03  sta $0345,x    ; B0_ICBAH
49C0: A9 1B     lda #$1B
49C2: 9D 48 03  sta $0348,x    ; B0_ICBLL
49C5: A9 00     lda #$00
49C7: 9D 49 03  sta $0349,x    ; B0_ICBLH
49CA: A9 0B     lda #$0B
49CC: 9D 42 03  sta $0342,x    ; B0_ICCOM
49CF: 20 56 E4  jsr $E456      ; CIOV
49D2: 30 21     bmi $49F5      ; L_49F5
49D4: A5 BB     lda $BB        ; STOPLN+1
49D6: 9D 44 03  sta $0344,x    ; B0_ICBAL
49D9: A5 BC     lda $BC        ; TRAPLN
49DB: 9D 45 03  sta $0345,x    ; B0_ICBAH
49DE: A5 B9     lda $B9        ; ERRNUM
49E0: 9D 48 03  sta $0348,x    ; B0_ICBLL
49E3: A5 BA     lda $BA        ; STOPLN
49E5: 9D 49 03  sta $0349,x    ; B0_ICBLH
49E8: A9 0B     lda #$0B
49EA: 9D 42 03  sta $0342,x    ; B0_ICCOM
49ED: 20 56 E4  jsr $E456      ; CIOV
49F0: 30 03     bmi $49F5      ; L_49F5
49F2: 4C 0A 49  jmp $490A      ; L_490A
49F5: 84 93     sty $93
49F7: 20 0A 49  jsr $490A      ; L_490A
49FA: A4 93     ldy $93
49FC: 60        rts
49FD: A2 00     ldx #$00
49FF: BD 14 49  lda $4914,x    ; L_4914
4A02: 9D DB 06  sta $06DB,x
4A05: E8        inx
4A06: C9 9B     cmp #$9B
4A08: D0 F5     bne $49FF      ; L_49FF
4A0A: 85 A7     sta $A7        ; STMLBD
4A0C: 20 19 4A  jsr $4A19      ; L_4A19
4A0F: 4C A9 3D  jmp $3DA9      ; L_3DA9
4A12: 20 C2 4D  jsr $4DC2      ; L_4DC2
4A15: A9 00     lda #$00
4A17: 85 A7     sta $A7        ; STMLBD
4A19: 20 F5 4A  jsr $4AF5      ; L_4AF5
4A1C: 20 0A 49  jsr $490A      ; L_490A
4A1F: A9 06     lda #$06
4A21: 9D 45 03  sta $0345,x    ; B0_ICBAH
4A24: A9 DB     lda #$DB
4A26: 9D 44 03  sta $0344,x    ; B0_ICBAL
4A29: A9 03     lda #$03
4A2B: 9D 42 03  sta $0342,x    ; B0_ICCOM
4A2E: A9 04     lda #$04
4A30: 9D 4A 03  sta $034A,x    ; B0_ICAX1
4A33: A9 00     lda #$00
4A35: 9D 4B 03  sta $034B,x    ; B0_ICAX2
4A38: 20 56 E4  jsr $E456      ; CIOV
4A3B: 30 22     bmi $4A5F      ; L_4A5F
4A3D: A5 A7     lda $A7        ; STMLBD
4A3F: D0 76     bne $4AB7      ; L_4AB7
4A41: A2 30     ldx #$30
4A43: A9 6F     lda #$6F
4A45: 9D 44 03  sta $0344,x    ; B0_ICBAL
4A48: A9 06     lda #$06
4A4A: 9D 45 03  sta $0345,x    ; B0_ICBAH
4A4D: A9 1B     lda #$1B
4A4F: 9D 48 03  sta $0348,x    ; B0_ICBLL
4A52: A9 00     lda #$00
4A54: 9D 49 03  sta $0349,x    ; B0_ICBLH
4A57: A9 07     lda #$07
4A59: 9D 42 03  sta $0342,x    ; B0_ICCOM
4A5C: 20 56 E4  jsr $E456      ; CIOV
4A5F: 30 7E     bmi $4ADF      ; L_4ADF
4A61: A2 03     ldx #$03
4A63: A0 89     ldy #$89
4A65: BD 6F 06  lda $066F,x
4A68: DD DE 48  cmp $48DE,x    ; L_48DE
4A6B: D0 72     bne $4ADF      ; L_4ADF
4A6D: CA        dex
4A6E: 10 F5     bpl $4A65      ; L_4A65
4A70: A0 11     ldy #$11
4A72: A2 04     ldx #$04
4A74: B9 6F 06  lda $066F,y
4A77: 9D C4 02  sta $02C4,x    ; COLOR0
4A7A: 88        dey
4A7B: CA        dex
4A7C: 10 F6     bpl $4A74      ; L_4A74
4A7E: A2 03     ldx #$03
4A80: A0 0C     ldy #$0C
4A82: B9 6F 06  lda $066F,y
4A85: 95 C3     sta $C3,x      ; ERRSAV
4A87: 88        dey
4A88: CA        dex
4A89: 10 F7     bpl $4A82      ; L_4A82
4A8B: 38        sec
4A8C: AD 73 06  lda $0673
4A8F: E9 1A     sbc #$1A
4A91: 85 8C     sta $8C        ; STARP
4A93: AD 74 06  lda $0674
4A96: E9 00     sbc #$00
4A98: 85 8D     sta $8D        ; STARP+1
4A9A: D0 04     bne $4AA0      ; L_4AA0
4A9C: A5 8C     lda $8C        ; STARP
4A9E: F0 10     beq $4AB0      ; L_4AB0
4AA0: 20 F8 48  jsr $48F8      ; L_48F8
4AA3: A5 8C     lda $8C        ; STARP
4AA5: D0 04     bne $4AAB      ; L_4AAB
4AA7: C6 8D     dec $8D        ; STARP+1
4AA9: 30 05     bmi $4AB0      ; L_4AB0
4AAB: C6 8C     dec $8C        ; STARP
4AAD: 4C A0 4A  jmp $4AA0      ; L_4AA0
4AB0: A0 07     ldy #$07
4AB2: B9 6F 06  lda $066F,y
4AB5: D0 33     bne $4AEA      ; L_4AEA
4AB7: A2 30     ldx #$30
4AB9: AD A1 04  lda $04A1
4ABC: 9D 44 03  sta $0344,x    ; B0_ICBAL
4ABF: AD 61 05  lda $0561
4AC2: 9D 45 03  sta $0345,x    ; B0_ICBAH
4AC5: A9 00     lda #$00
4AC7: 9D 48 03  sta $0348,x    ; B0_ICBLL
4ACA: A9 1E     lda #$1E
4ACC: 9D 49 03  sta $0349,x    ; B0_ICBLH
4ACF: A9 07     lda #$07
4AD1: 9D 42 03  sta $0342,x    ; B0_ICCOM
4AD4: 20 56 E4  jsr $E456      ; CIOV
4AD7: 30 06     bmi $4ADF      ; L_4ADF
4AD9: 20 87 3F  jsr $3F87      ; L_3F87
4ADC: 4C 0A 49  jmp $490A      ; L_490A
4ADF: 84 93     sty $93
4AE1: 20 0A 49  jsr $490A      ; L_490A
4AE4: 20 87 3F  jsr $3F87      ; L_3F87
4AE7: A4 93     ldy $93
4AE9: 60        rts
4AEA: A8        tay
4AEB: 88        dey
4AEC: 84 AB     sty $AB        ; EXSVOP
4AEE: 20 F1 4C  jsr $4CF1      ; L_4CF1
4AF1: 30 EC     bmi $4ADF      ; L_4ADF
4AF3: 10 E4     bpl $4AD9      ; L_4AD9
4AF5: 38        sec
4AF6: AD 31 02  lda $0231      ; SDLSTH
4AF9: E5 FB     sbc $FB        ; RADFLG
4AFB: C9 1E     cmp #$1E
4AFD: 90 02     bcc $4B01      ; L_4B01
4AFF: A9 1E     lda #$1E
4B01: 18        clc
4B02: 65 FB     adc $FB        ; RADFLG
4B04: 85 AA     sta $AA        ; ARSTKX
4B06: A5 FB     lda $FB        ; RADFLG
4B08: 85 BC     sta $BC        ; TRAPLN
4B0A: A9 00     lda #$00
4B0C: 85 BB     sta $BB        ; STOPLN+1
4B0E: 85 C3     sta $C3        ; ERRSAV
4B10: 85 C5     sta $C5        ; TEMPA+1
4B12: A9 28     lda #$28
4B14: 85 C4     sta $C4        ; TEMPA
4B16: A9 C0     lda #$C0
4B18: 85 C6     sta $C6        ; ZTEMP2
4B1A: 60        rts
4B1B: 20 75 4D  jsr $4D75      ; L_4D75
4B1E: 46 B8     lsr $B8        ; DATALN+1
4B20: 90 10     bcc $4B32      ; L_4B32
4B22: 46 B8     lsr $B8        ; DATALN+1
4B24: B0 30     bcs $4B56      ; L_4B56
4B26: A0 00     ldy #$00
4B28: 46 B8     lsr $B8        ; DATALN+1
4B2A: 90 01     bcc $4B2D      ; L_4B2D
4B2C: 88        dey
4B2D: A6 B8     ldx $B8        ; DATALN+1
4B2F: 4C 75 4B  jmp $4B75      ; L_4B75
4B32: A9 00     lda #$00
4B34: 85 8C     sta $8C        ; STARP
4B36: A2 03     ldx #$03
4B38: 86 91     stx $91        ; TOPSTK+1
4B3A: 8A        txa
4B3B: 4A        lsr
4B3C: AA        tax
4B3D: 85 AB     sta $AB        ; EXSVOP
4B3F: 20 95 4B  jsr $4B95      ; L_4B95
4B42: A6 91     ldx $91        ; TOPSTK+1
4B44: 9D D7 06  sta $06D7,x
4B47: A5 B9     lda $B9        ; ERRNUM
4B49: CA        dex
4B4A: 9D D7 06  sta $06D7,x
4B4D: CA        dex
4B4E: 86 91     stx $91        ; TOPSTK+1
4B50: 10 E8     bpl $4B3A      ; L_4B3A
4B52: 46 B8     lsr $B8        ; DATALN+1
4B54: B0 3E     bcs $4B94      ; L_4B94
4B56: A2 03     ldx #$03
4B58: A0 01     ldy #$01
4B5A: BD D6 06  lda $06D6,x
4B5D: 38        sec
4B5E: F9 D6 06  sbc $06D6,y
4B61: BD D7 06  lda $06D7,x
4B64: F9 D7 06  sbc $06D7,y
4B67: 30 02     bmi $4B6B      ; L_4B6B
4B69: 98        tya
4B6A: AA        tax
4B6B: 88        dey
4B6C: 88        dey
4B6D: 10 EB     bpl $4B5A      ; L_4B5A
4B6F: BC D7 06  ldy $06D7,x
4B72: 8A        txa
4B73: 4A        lsr
4B74: AA        tax
4B75: 86 AB     stx $AB        ; EXSVOP
4B77: C4 AA     cpy $AA        ; ARSTKX
4B79: 90 05     bcc $4B80      ; L_4B80
4B7B: A9 FF     lda #$FF
4B7D: 85 AB     sta $AB        ; EXSVOP
4B7F: 60        rts
4B80: 09 80     ora #$80
4B82: 85 8C     sta $8C        ; STARP
4B84: 20 95 4B  jsr $4B95      ; L_4B95
4B87: A5 B9     lda $B9        ; ERRNUM
4B89: 38        sec
4B8A: E5 BB     sbc $BB        ; STOPLN+1
4B8C: 85 B9     sta $B9        ; ERRNUM
4B8E: A5 BA     lda $BA        ; STOPLN
4B90: E5 BC     sbc $BC        ; TRAPLN
4B92: 85 BA     sta $BA        ; STOPLN
4B94: 60        rts
4B95: 20 AD 4C  jsr $4CAD      ; L_4CAD
4B98: A5 BB     lda $BB        ; STOPLN+1
4B9A: 85 B9     sta $B9        ; ERRNUM
4B9C: A5 BC     lda $BC        ; TRAPLN
4B9E: 85 BA     sta $BA        ; STOPLN
4BA0: 20 70 4C  jsr $4C70      ; L_4C70
4BA3: A5 C3     lda $C3        ; ERRSAV
4BA5: 85 96     sta $96        ; POKADR+1
4BA7: A5 C5     lda $C5        ; TEMPA+1
4BA9: 85 97     sta $97        ; SVESA
4BAB: A2 00     ldx #$00
4BAD: 86 86     stx $86        ; VVTP
4BAF: CA        dex
4BB0: 20 9A 4C  jsr $4C9A      ; L_4C9A
4BB3: B1 BD     lda ($BD),y    ; TRAPLN+1
4BB5: 85 8E     sta $8E        ; RUNSTK
4BB7: 20 BC 4C  jsr $4CBC      ; L_4CBC
4BBA: D0 09     bne $4BC5      ; L_4BC5
4BBC: E0 80     cpx #$80
4BBE: F0 02     beq $4BC2      ; L_4BC2
4BC0: A2 00     ldx #$00
4BC2: 4C 0E 4C  jmp $4C0E      ; L_4C0E
4BC5: A4 8C     ldy $8C        ; STARP
4BC7: C0 FF     cpy #$FF
4BC9: F0 26     beq $4BF1      ; L_4BF1
4BCB: 20 9A 4C  jsr $4C9A      ; L_4C9A
4BCE: B1 BD     lda ($BD),y    ; TRAPLN+1
4BD0: C5 8E     cmp $8E        ; RUNSTK
4BD2: D0 1D     bne $4BF1      ; L_4BF1
4BD4: E0 00     cpx #$00
4BD6: F0 11     beq $4BE9      ; L_4BE9
4BD8: E0 80     cpx #$80
4BDA: D0 0B     bne $4BE7      ; L_4BE7
4BDC: A5 8F     lda $8F        ; RUNSTK+1
4BDE: D0 02     bne $4BE2      ; L_4BE2
4BE0: C6 90     dec $90        ; TOPSTK
4BE2: C6 8F     dec $8F        ; RUNSTK+1
4BE4: 20 11 4C  jsr $4C11      ; L_4C11
4BE7: A2 00     ldx #$00
4BE9: E6 8F     inc $8F        ; RUNSTK+1
4BEB: D0 CA     bne $4BB7      ; L_4BB7
4BED: E6 90     inc $90        ; TOPSTK
4BEF: D0 C6     bne $4BB7      ; L_4BB7
4BF1: E0 80     cpx #$80
4BF3: F0 0D     beq $4C02      ; L_4C02
4BF5: E0 00     cpx #$00
4BF7: D0 07     bne $4C00      ; L_4C00
4BF9: 20 0E 4C  jsr $4C0E      ; L_4C0E
4BFC: A2 FF     ldx #$FF
4BFE: D0 B0     bne $4BB0      ; L_4BB0
4C00: A2 80     ldx #$80
4C02: E6 8F     inc $8F        ; RUNSTK+1
4C04: D0 02     bne $4C08      ; L_4C08
4C06: E6 90     inc $90        ; TOPSTK
4C08: 20 80 4C  jsr $4C80      ; L_4C80
4C0B: 4C B0 4B  jmp $4BB0      ; L_4BB0
4C0E: 20 80 4C  jsr $4C80      ; L_4C80
4C11: A5 90     lda $90        ; TOPSTK
4C13: D0 14     bne $4C29      ; L_4C29
4C15: A5 8F     lda $8F        ; RUNSTK+1
4C17: C9 80     cmp #$80
4C19: B0 0E     bcs $4C29      ; L_4C29
4C1B: 24 8C     bit $8C        ; STARP
4C1D: 10 4E     bpl $4C6D      ; L_4C6D
4C1F: 8A        txa
4C20: 05 8F     ora $8F        ; RUNSTK+1
4C22: A0 00     ldy #$00
4C24: 91 88     sta ($88),y    ; STMTAB
4C26: 4C 6D 4C  jmp $4C6D      ; L_4C6D
4C29: 24 8C     bit $8C        ; STARP
4C2B: 30 06     bmi $4C33      ; L_4C33
4C2D: 20 8F 4C  jsr $4C8F      ; L_4C8F
4C30: 4C 6D 4C  jmp $4C6D      ; L_4C6D
4C33: A5 B9     lda $B9        ; ERRNUM
4C35: 48        pha
4C36: A5 BA     lda $BA        ; STOPLN
4C38: 48        pha
4C39: A0 00     ldy #$00
4C3B: B1 B9     lda ($B9),y    ; ERRNUM
4C3D: A0 02     ldy #$02
4C3F: 91 B9     sta ($B9),y    ; ERRNUM
4C41: A4 B9     ldy $B9        ; ERRNUM
4C43: D0 02     bne $4C47      ; L_4C47
4C45: C6 BA     dec $BA        ; STOPLN
4C47: C6 B9     dec $B9        ; ERRNUM
4C49: A5 BA     lda $BA        ; STOPLN
4C4B: C5 89     cmp $89        ; STMTAB+1
4C4D: D0 EA     bne $4C39      ; L_4C39
4C4F: A5 B9     lda $B9        ; ERRNUM
4C51: C5 88     cmp $88        ; STMTAB
4C53: D0 E4     bne $4C39      ; L_4C39
4C55: 68        pla
4C56: 85 BA     sta $BA        ; STOPLN
4C58: 68        pla
4C59: 85 B9     sta $B9        ; ERRNUM
4C5B: 20 8F 4C  jsr $4C8F      ; L_4C8F
4C5E: 8A        txa
4C5F: A0 00     ldy #$00
4C61: 91 88     sta ($88),y    ; STMTAB
4C63: C8        iny
4C64: A5 90     lda $90        ; TOPSTK
4C66: 91 88     sta ($88),y    ; STMTAB
4C68: C8        iny
4C69: A5 8F     lda $8F        ; RUNSTK+1
4C6B: 91 88     sta ($88),y    ; STMTAB
4C6D: 20 92 4C  jsr $4C92      ; L_4C92
4C70: A5 B9     lda $B9        ; ERRNUM
4C72: 85 88     sta $88        ; STMTAB
4C74: A5 BA     lda $BA        ; STOPLN
4C76: 85 89     sta $89        ; STMTAB+1
4C78: A0 00     ldy #$00
4C7A: 84 90     sty $90        ; TOPSTK
4C7C: C8        iny
4C7D: 84 8F     sty $8F        ; RUNSTK+1
4C7F: 60        rts
4C80: 20 92 4C  jsr $4C92      ; L_4C92
4C83: 24 8C     bit $8C        ; STARP
4C85: 30 01     bmi $4C88      ; L_4C88
4C87: 60        rts
4C88: A5 8E     lda $8E        ; RUNSTK
4C8A: A0 00     ldy #$00
4C8C: 91 B9     sta ($B9),y    ; ERRNUM
4C8E: 60        rts
4C8F: 20 92 4C  jsr $4C92      ; L_4C92
4C92: E6 B9     inc $B9        ; ERRNUM
4C94: F0 01     beq $4C97      ; L_4C97
4C96: 60        rts
4C97: E6 BA     inc $BA        ; STOPLN
4C99: 60        rts
4C9A: A4 97     ldy $97        ; SVESA
4C9C: B9 A1 04  lda $04A1,y
4C9F: 85 BD     sta $BD        ; TRAPLN+1
4CA1: B9 61 05  lda $0561,y
4CA4: 85 BE     sta $BE        ; SAVCUR
4CA6: A4 96     ldy $96        ; POKADR+1
4CA8: 60        rts
4CA9: D2        BYTE $D2
4CAA: 4C BF 4C  jmp $4CBF      ; L_4CBF
4CAD: A5 AB     lda $AB        ; EXSVOP
4CAF: 0A        asl
4CB0: AA        tax
4CB1: BD A9 4C  lda $4CA9,x    ; L_4CA9
4CB4: 85 8A     sta $8A        ; STMCUR
4CB6: BD AA 4C  lda $4CAA,x    ; L_4CAA
4CB9: 85 8B     sta $8B        ; STMCUR+1
4CBB: 60        rts
4CBC: 6C 8A 00  jmp ($008A)    ; STMCUR
4CBF: E6 96     inc $96        ; POKADR+1
4CC1: A5 96     lda $96        ; POKADR+1
4CC3: C5 C4     cmp $C4        ; TEMPA
4CC5: 90 0A     bcc $4CD1      ; L_4CD1
4CC7: E6 97     inc $97        ; SVESA
4CC9: A5 C3     lda $C3        ; ERRSAV
4CCB: 85 96     sta $96        ; POKADR+1
4CCD: A4 97     ldy $97        ; SVESA
4CCF: C4 C6     cpy $C6        ; ZTEMP2
4CD1: 60        rts
4CD2: E6 97     inc $97        ; SVESA
4CD4: E6 97     inc $97        ; SVESA
4CD6: A5 97     lda $97        ; SVESA
4CD8: C5 C6     cmp $C6        ; ZTEMP2
4CDA: B0 01     bcs $4CDD      ; L_4CDD
4CDC: 60        rts
4CDD: A5 86     lda $86        ; VVTP
4CDF: F0 02     beq $4CE3      ; L_4CE3
4CE1: E6 96     inc $96        ; POKADR+1
4CE3: 49 01     eor #$01
4CE5: 85 86     sta $86        ; VVTP
4CE7: 18        clc
4CE8: 65 C5     adc $C5        ; TEMPA+1
4CEA: 85 97     sta $97        ; SVESA
4CEC: A4 96     ldy $96        ; POKADR+1
4CEE: C4 C4     cpy $C4        ; TEMPA
4CF0: 60        rts
4CF1: 20 75 4D  jsr $4D75      ; L_4D75
4CF4: 20 AD 4C  jsr $4CAD      ; L_4CAD
4CF7: A5 C3     lda $C3        ; ERRSAV
4CF9: 85 96     sta $96        ; POKADR+1
4CFB: A5 C5     lda $C5        ; TEMPA+1
4CFD: 85 97     sta $97        ; SVESA
4CFF: A2 00     ldx #$00
4D01: 86 8D     stx $8D        ; STARP+1
4D03: 20 4C 4D  jsr $4D4C      ; L_4D4C
4D06: C9 80     cmp #$80
4D08: 90 19     bcc $4D23      ; L_4D23
4D0A: 29 7F     and #$7F
4D0C: D0 03     bne $4D11      ; L_4D11
4D0E: 20 3A 4D  jsr $4D3A      ; L_4D3A
4D11: AA        tax
4D12: 20 4C 4D  jsr $4D4C      ; L_4D4C
4D15: 85 8E     sta $8E        ; RUNSTK
4D17: 20 56 4D  jsr $4D56      ; L_4D56
4D1A: CA        dex
4D1B: D0 F5     bne $4D12      ; L_4D12
4D1D: C6 8D     dec $8D        ; STARP+1
4D1F: 10 F1     bpl $4D12      ; L_4D12
4D21: 30 DE     bmi $4D01      ; L_4D01
4D23: AA        tax
4D24: D0 03     bne $4D29      ; L_4D29
4D26: 20 3A 4D  jsr $4D3A      ; L_4D3A
4D29: 20 4C 4D  jsr $4D4C      ; L_4D4C
4D2C: 85 8E     sta $8E        ; RUNSTK
4D2E: 20 56 4D  jsr $4D56      ; L_4D56
4D31: CA        dex
4D32: D0 FA     bne $4D2E      ; L_4D2E
4D34: C6 8D     dec $8D        ; STARP+1
4D36: 10 F6     bpl $4D2E      ; L_4D2E
4D38: 30 C7     bmi $4D01      ; L_4D01
4D3A: 20 F8 48  jsr $48F8      ; L_48F8
4D3D: 30 32     bmi $4D71      ; L_4D71
4D3F: 85 8D     sta $8D        ; STARP+1
4D41: 20 F8 48  jsr $48F8      ; L_48F8
4D44: 30 2B     bmi $4D71      ; L_4D71
4D46: AA        tax
4D47: D0 02     bne $4D4B      ; L_4D4B
4D49: C6 8D     dec $8D        ; STARP+1
4D4B: 60        rts
4D4C: 86 98     stx $98        ; SVESA+1
4D4E: 20 F8 48  jsr $48F8      ; L_48F8
4D51: 30 1E     bmi $4D71      ; L_4D71
4D53: A6 98     ldx $98        ; SVESA+1
4D55: 60        rts
4D56: A5 96     lda $96        ; POKADR+1
4D58: C9 28     cmp #$28
4D5A: B0 0D     bcs $4D69      ; L_4D69
4D5C: A5 97     lda $97        ; SVESA
4D5E: C9 C0     cmp #$C0
4D60: B0 07     bcs $4D69      ; L_4D69
4D62: 20 9A 4C  jsr $4C9A      ; L_4C9A
4D65: A5 8E     lda $8E        ; RUNSTK
4D67: 91 BD     sta ($BD),y    ; TRAPLN+1
4D69: 20 BC 4C  jsr $4CBC      ; L_4CBC
4D6C: F0 01     beq $4D6F      ; L_4D6F
4D6E: 60        rts
4D6F: A0 00     ldy #$00
4D71: 68        pla
4D72: 68        pla
4D73: 98        tya
4D74: 60        rts
4D75: A9 00     lda #$00
4D77: A2 0B     ldx #$0B
4D79: 95 86     sta $86,x      ; VVTP
4D7B: CA        dex
4D7C: 10 FB     bpl $4D79      ; L_4D79
4D7E: 85 B8     sta $B8        ; DATALN+1
4D80: 60        rts
4D81: 20 D9 53  jsr $53D9      ; L_53D9
4D84: D0 05     bne $4D8B      ; L_4D8B
4D86: AD FC 02  lda $02FC      ; CH
4D89: C9 FF     cmp #$FF
4D8B: 60        rts
4D8C: 85 8A     sta $8A        ; STMCUR
4D8E: 84 8B     sty $8B        ; STMCUR+1
4D90: 6C 8A 00  jmp ($008A)    ; STMCUR
4D93: A0 00     ldy #$00
4D95: 98        tya
4D96: 91 F0     sta ($F0),y    ; FCHRFLG
4D98: C8        iny
4D99: D0 FB     bne $4D96      ; L_4D96
4D9B: A5 F1     lda $F1        ; DIGRT
4D9D: 38        sec
4D9E: E9 04     sbc #$04
4DA0: 8D 07 D4  sta $D407      ; PMBASE
4DA3: A9 3A     lda #$3A
4DA5: 8D 2F 02  sta $022F      ; SDMCTL
4DA8: 8D 00 D4  sta $D400      ; DMACTL
4DAB: A9 34     lda #$34
4DAD: 8D C0 02  sta $02C0      ; PCOLR0
4DB0: A9 02     lda #$02
4DB2: 8D 1D D0  sta $D01D      ; GRACTL
4DB5: 85 EA     sta $EA        ; FR2+4
4DB7: 60        rts
4DB8: A9 00     lda #$00
4DBA: 8D 2F 02  sta $022F      ; SDMCTL
4DBD: 8D 00 D4  sta $D400      ; DMACTL
4DC0: F0 0B     beq $4DCD      ; L_4DCD
4DC2: A5 FC     lda $FC        ; FLPTR
4DC4: D0 18     bne $4DDE      ; L_4DDE
4DC6: A9 22     lda #$22
4DC8: 8D 2F 02  sta $022F      ; SDMCTL
4DCB: A9 00     lda #$00
4DCD: 85 EA     sta $EA        ; FR2+4
4DCF: 8D 1D D0  sta $D01D      ; GRACTL
4DD2: A2 03     ldx #$03
4DD4: 9D 00 D0  sta $D000,x    ; HPOSP0
4DD7: 9D 0D D0  sta $D00D,x    ; GRAFP0
4DDA: CA        dex
4DDB: 10 F7     bpl $4DD4      ; L_4DD4
4DDD: 60        rts
4DDE: A9 00     lda #$00
4DE0: 85 EA     sta $EA        ; FR2+4
4DE2: 8D 00 D0  sta $D000      ; HPOSP0
4DE5: 60        rts
4DE6: 20 D9 53  jsr $53D9      ; L_53D9
4DE9: D0 07     bne $4DF2      ; L_4DF2
4DEB: AD FC 02  lda $02FC      ; CH
4DEE: C9 FF     cmp #$FF
4DF0: F0 F4     beq $4DE6      ; L_4DE6
4DF2: A9 FF     lda #$FF
4DF4: 8D FC 02  sta $02FC      ; CH
4DF7: 60        rts
4DF8: 8D 30 02  sta $0230      ; SDLSTL
4DFB: 8C 31 02  sty $0231      ; SDLSTH
4DFE: A9 22     lda #$22
4E00: 8D 2F 02  sta $022F      ; SDMCTL
4E03: A9 C0     lda #$C0
4E05: 8D 0E D4  sta $D40E      ; NMIEN
4E08: 60        rts
4E09: 3F        BYTE $3F $CF $F3 $FC $C0 $30 $0C $03
4E11: 00        BYTE $00 $00 $00 $00 $55 $55 $55 $55
4E19: AA        BYTE $AA $AA $AA $AA $FF $FF $FF $FF
4E21: 44        BYTE $44 $11 $44 $11 $88 $22 $88 $22
4E29: CC        BYTE $CC $33 $CC $33 $66 $99 $66 $99
4E31: 77        BYTE $77 $DD $77 $DD $BB $EE $BB $EE
4E39: 88        BYTE $88 $11 $88 $11 $88 $33 $88 $33
4E41: 33        BYTE $33 $99 $33 $99 $66 $11 $66 $11
4E49: BB        BYTE $BB $66 $BB $66 $BB $22 $BB $22
4E51: 20 04 51  jsr $5104      ; L_5104
4E54: C5 A9     cmp $A9        ; OPSTKX
4E56: F0 11     beq $4E69      ; L_4E69
4E58: 85 A4     sta $A4        ; ECSIZE
4E5A: A5 CF     lda $CF
4E5C: 48        pha
4E5D: A9 00     lda #$00
4E5F: 85 CF     sta $CF
4E61: 85 B0     sta $B0        ; COMCNT
4E63: 20 6F 4E  jsr $4E6F      ; L_4E6F
4E66: 68        pla
4E67: 85 CF     sta $CF
4E69: A9 FF     lda #$FF
4E6B: 8D FC 02  sta $02FC      ; CH
4E6E: 60        rts
4E6F: 20 31 51  jsr $5131      ; L_5131
4E72: 38        sec
4E73: AD 30 02  lda $0230      ; SDLSTL
4E76: E9 03     sbc #$03
4E78: 85 B9     sta $B9        ; ERRNUM
4E7A: 85 E4     sta $E4        ; FR1+4
4E7C: AD 31 02  lda $0231      ; SDLSTH
4E7F: E9 00     sbc #$00
4E81: 85 BA     sta $BA        ; STOPLN
4E83: 85 E5     sta $E5        ; FR1+5
4E85: A5 97     lda $97        ; SVESA
4E87: 85 A5     sta $A5        ; ECSIZE+1
4E89: 20 54 53  jsr $5354      ; L_5354
4E8C: 4C B7 4E  jmp $4EB7      ; L_4EB7
4E8F: 20 81 4D  jsr $4D81      ; L_4D81
4E92: D0 0C     bne $4EA0      ; L_4EA0
4E94: A5 B9     lda $B9        ; ERRNUM
4E96: C5 E4     cmp $E4        ; FR1+4
4E98: D0 07     bne $4EA1      ; L_4EA1
4E9A: A5 BA     lda $BA        ; STOPLN
4E9C: C5 E5     cmp $E5        ; FR1+5
4E9E: D0 01     bne $4EA1      ; L_4EA1
4EA0: 60        rts
4EA1: 18        clc
4EA2: A5 B9     lda $B9        ; ERRNUM
4EA4: 69 02     adc #$02
4EA6: 85 B9     sta $B9        ; ERRNUM
4EA8: 90 02     bcc $4EAC      ; L_4EAC
4EAA: E6 BA     inc $BA        ; STOPLN
4EAC: A0 00     ldy #$00
4EAE: B1 B9     lda ($B9),y    ; ERRNUM
4EB0: 85 97     sta $97        ; SVESA
4EB2: C8        iny
4EB3: B1 B9     lda ($B9),y    ; ERRNUM
4EB5: 85 96     sta $96        ; POKADR+1
4EB7: A5 96     lda $96        ; POKADR+1
4EB9: 85 85     sta $85        ; VNTD+1
4EBB: 20 04 51  jsr $5104      ; L_5104
4EBE: C5 A4     cmp $A4        ; ECSIZE
4EC0: D0 0B     bne $4ECD      ; L_4ECD
4EC2: 20 C8 50  jsr $50C8      ; L_50C8
4EC5: E6 96     inc $96        ; POKADR+1
4EC7: A5 96     lda $96        ; POKADR+1
4EC9: C9 A0     cmp #$A0
4ECB: D0 EE     bne $4EBB      ; L_4EBB
4ECD: A5 96     lda $96        ; POKADR+1
4ECF: 85 86     sta $86        ; VVTP
4ED1: F0 02     beq $4ED5      ; L_4ED5
4ED3: C6 86     dec $86        ; VVTP
4ED5: A5 85     lda $85        ; VNTD+1
4ED7: 85 96     sta $96        ; POKADR+1
4ED9: C6 96     dec $96        ; POKADR+1
4EDB: A5 96     lda $96        ; POKADR+1
4EDD: C9 FF     cmp #$FF
4EDF: F0 0D     beq $4EEE      ; L_4EEE
4EE1: 20 04 51  jsr $5104      ; L_5104
4EE4: C5 A4     cmp $A4        ; ECSIZE
4EE6: D0 06     bne $4EEE      ; L_4EEE
4EE8: 20 C8 50  jsr $50C8      ; L_50C8
4EEB: 4C D9 4E  jmp $4ED9      ; L_4ED9
4EEE: A5 96     lda $96        ; POKADR+1
4EF0: 85 87     sta $87        ; VVTP+1
4EF2: E6 87     inc $87        ; VVTP+1
4EF4: A5 85     lda $85        ; VNTD+1
4EF6: 85 96     sta $96        ; POKADR+1
4EF8: E6 A5     inc $A5        ; ECSIZE+1
4EFA: A5 97     lda $97        ; SVESA
4EFC: C5 A5     cmp $A5        ; ECSIZE+1
4EFE: D0 09     bne $4F09      ; L_4F09
4F00: 20 19 4F  jsr $4F19      ; L_4F19
4F03: 20 4A 4F  jsr $4F4A      ; L_4F4A
4F06: 4C 3B 4F  jmp $4F3B      ; L_4F3B
4F09: C6 A5     dec $A5        ; ECSIZE+1
4F0B: C6 A5     dec $A5        ; ECSIZE+1
4F0D: A5 97     lda $97        ; SVESA
4F0F: C5 A5     cmp $A5        ; ECSIZE+1
4F11: D0 22     bne $4F35      ; L_4F35
4F13: 20 19 4F  jsr $4F19      ; L_4F19
4F16: B0 20     bcs $4F38      ; L_4F38
4F18: 60        rts
4F19: C6 89     dec $89        ; STMTAB+1
4F1B: A5 89     lda $89        ; STMTAB+1
4F1D: C9 FF     cmp #$FF
4F1F: D0 02     bne $4F23      ; L_4F23
4F21: E6 89     inc $89        ; STMTAB+1
4F23: A5 87     lda $87        ; VVTP+1
4F25: 38        sec
4F26: E5 89     sbc $89        ; STMTAB+1
4F28: 90 09     bcc $4F33      ; L_4F33
4F2A: E6 88     inc $88        ; STMTAB
4F2C: A5 88     lda $88        ; STMTAB
4F2E: 38        sec
4F2F: E5 86     sbc $86        ; VVTP
4F31: B0 E5     bcs $4F18      ; L_4F18
4F33: 68        pla
4F34: 68        pla
4F35: 20 4A 4F  jsr $4F4A      ; L_4F4A
4F38: 20 61 4F  jsr $4F61      ; L_4F61
4F3B: A5 97     lda $97        ; SVESA
4F3D: 85 A5     sta $A5        ; ECSIZE+1
4F3F: A5 87     lda $87        ; VVTP+1
4F41: 85 89     sta $89        ; STMTAB+1
4F43: A5 86     lda $86        ; VVTP
4F45: 85 88     sta $88        ; STMTAB
4F47: 4C 8F 4E  jmp $4E8F      ; L_4E8F
4F4A: A5 97     lda $97        ; SVESA
4F4C: 85 84     sta $84        ; VNTD
4F4E: E6 97     inc $97        ; SVESA
4F50: A5 97     lda $97        ; SVESA
4F52: C9 C0     cmp #$C0
4F54: F0 62     beq $4FB8      ; L_4FB8
4F56: A5 96     lda $96        ; POKADR+1
4F58: 85 85     sta $85        ; VNTD+1
4F5A: A9 00     lda #$00
4F5C: 85 8B     sta $8B        ; STMCUR+1
4F5E: 4C 6F 4F  jmp $4F6F      ; L_4F6F
4F61: A5 97     lda $97        ; SVESA
4F63: F0 B3     beq $4F18      ; L_4F18
4F65: 85 8B     sta $8B        ; STMCUR+1
4F67: 85 84     sta $84        ; VNTD
4F69: A5 96     lda $96        ; POKADR+1
4F6B: 85 85     sta $85        ; VNTD+1
4F6D: C6 97     dec $97        ; SVESA
4F6F: A5 87     lda $87        ; VVTP+1
4F71: 85 96     sta $96        ; POKADR+1
4F73: 4C 78 4F  jmp $4F78      ; L_4F78
4F76: E6 96     inc $96        ; POKADR+1
4F78: A5 86     lda $86        ; VVTP
4F7A: C5 96     cmp $96        ; POKADR+1
4F7C: 90 36     bcc $4FB4      ; L_4FB4
4F7E: 20 04 51  jsr $5104      ; L_5104
4F81: C5 A4     cmp $A4        ; ECSIZE
4F83: D0 F1     bne $4F76      ; L_4F76
4F85: A5 96     lda $96        ; POKADR+1
4F87: F0 0F     beq $4F98      ; L_4F98
4F89: C5 87     cmp $87        ; VVTP+1
4F8B: D0 0B     bne $4F98      ; L_4F98
4F8D: C6 96     dec $96        ; POKADR+1
4F8F: 20 04 51  jsr $5104      ; L_5104
4F92: E6 96     inc $96        ; POKADR+1
4F94: C5 A4     cmp $A4        ; ECSIZE
4F96: F0 5D     beq $4FF5      ; L_4FF5
4F98: A5 97     lda $97        ; SVESA
4F9A: A6 8B     ldx $8B        ; STMCUR+1
4F9C: D0 1F     bne $4FBD      ; L_4FBD
4F9E: C9 BF     cmp #$BF
4FA0: F0 2A     beq $4FCC      ; L_4FCC
4FA2: E6 97     inc $97        ; SVESA
4FA4: 20 04 51  jsr $5104      ; L_5104
4FA7: C6 97     dec $97        ; SVESA
4FA9: C5 A4     cmp $A4        ; ECSIZE
4FAB: F0 48     beq $4FF5      ; L_4FF5
4FAD: D0 1D     bne $4FCC      ; L_4FCC
4FAF: C6 96     dec $96        ; POKADR+1
4FB1: 20 B8 50  jsr $50B8      ; L_50B8
4FB4: A5 85     lda $85        ; VNTD+1
4FB6: 85 96     sta $96        ; POKADR+1
4FB8: A5 84     lda $84        ; VNTD
4FBA: 85 97     sta $97        ; SVESA
4FBC: 60        rts
4FBD: C9 00     cmp #$00
4FBF: F0 0B     beq $4FCC      ; L_4FCC
4FC1: C6 97     dec $97        ; SVESA
4FC3: 20 04 51  jsr $5104      ; L_5104
4FC6: E6 97     inc $97        ; SVESA
4FC8: C5 A4     cmp $A4        ; ECSIZE
4FCA: F0 29     beq $4FF5      ; L_4FF5
4FCC: E6 96     inc $96        ; POKADR+1
4FCE: A5 96     lda $96        ; POKADR+1
4FD0: C9 A0     cmp #$A0
4FD2: F0 DB     beq $4FAF      ; L_4FAF
4FD4: 20 04 51  jsr $5104      ; L_5104
4FD7: C6 96     dec $96        ; POKADR+1
4FD9: C5 A4     cmp $A4        ; ECSIZE
4FDB: F0 18     beq $4FF5      ; L_4FF5
4FDD: 20 C8 50  jsr $50C8      ; L_50C8
4FE0: E6 96     inc $96        ; POKADR+1
4FE2: D0 92     bne $4F76      ; L_4F76
4FE4: E6 96     inc $96        ; POKADR+1
4FE6: A5 86     lda $86        ; VVTP
4FE8: C5 96     cmp $96        ; POKADR+1
4FEA: 90 C8     bcc $4FB4      ; L_4FB4
4FEC: 20 04 51  jsr $5104      ; L_5104
4FEF: C5 A4     cmp $A4        ; ECSIZE
4FF1: F0 F1     beq $4FE4      ; L_4FE4
4FF3: D0 81     bne $4F76      ; L_4F76
4FF5: A0 00     ldy #$00
4FF7: A5 97     lda $97        ; SVESA
4FF9: 91 B9     sta ($B9),y    ; ERRNUM
4FFB: C8        iny
4FFC: A5 96     lda $96        ; POKADR+1
4FFE: 91 B9     sta ($B9),y    ; ERRNUM
5000: 38        sec
5001: A5 B9     lda $B9        ; ERRNUM
5003: E9 02     sbc #$02
5005: 85 B9     sta $B9        ; ERRNUM
5007: B0 02     bcs $500B      ; L_500B
5009: C6 BA     dec $BA        ; STOPLN
500B: A5 BA     lda $BA        ; STOPLN
500D: C5 FB     cmp $FB        ; RADFLG
500F: B0 D3     bcs $4FE4      ; L_4FE4
5011: 20 81 4D  jsr $4D81      ; L_4D81
5014: F0 03     beq $5019      ; L_5019
5016: 4C A0 4E  jmp $4EA0      ; L_4EA0
5019: AD FC 02  lda $02FC      ; CH
501C: C9 FF     cmp #$FF
501E: D0 F6     bne $5016      ; L_5016
5020: A5 9D     lda $9D        ; CPC
5022: C9 02     cmp #$02
5024: B0 09     bcs $502F      ; L_502F
5026: A5 94     lda $94        ; COX
5028: D0 05     bne $502F      ; L_502F
502A: E6 B8     inc $B8        ; DATALN+1
502C: 4C A1 4E  jmp $4EA1      ; L_4EA1
502F: A5 E4     lda $E4        ; FR1+4
5031: 85 C1     sta $C1        ; IODVC
5033: 85 B9     sta $B9        ; ERRNUM
5035: A5 E5     lda $E5        ; FR1+5
5037: 85 C2     sta $C2        ; PROMPT
5039: 85 BA     sta $BA        ; STOPLN
503B: A9 00     lda #$00
503D: 85 9D     sta $9D        ; CPC
503F: 85 94     sta $94        ; COX
5041: A0 00     ldy #$00
5043: B1 C1     lda ($C1),y    ; IODVC
5045: 85 97     sta $97        ; SVESA
5047: C8        iny
5048: B1 C1     lda ($C1),y    ; IODVC
504A: 85 96     sta $96        ; POKADR+1
504C: 20 04 51  jsr $5104      ; L_5104
504F: C5 A4     cmp $A4        ; ECSIZE
5051: D0 18     bne $506B      ; L_506B
5053: A0 00     ldy #$00
5055: A5 97     lda $97        ; SVESA
5057: 91 B9     sta ($B9),y    ; ERRNUM
5059: C8        iny
505A: A5 96     lda $96        ; POKADR+1
505C: 91 B9     sta ($B9),y    ; ERRNUM
505E: 38        sec
505F: A5 B9     lda $B9        ; ERRNUM
5061: E9 02     sbc #$02
5063: 85 B9     sta $B9        ; ERRNUM
5065: B0 0A     bcs $5071      ; L_5071
5067: C6 BA     dec $BA        ; STOPLN
5069: D0 06     bne $5071      ; L_5071
506B: E6 9D     inc $9D        ; CPC
506D: D0 02     bne $5071      ; L_5071
506F: E6 94     inc $94        ; COX
5071: 38        sec
5072: A5 C1     lda $C1        ; IODVC
5074: E9 02     sbc #$02
5076: 85 C1     sta $C1        ; IODVC
5078: B0 C7     bcs $5041      ; L_5041
507A: C6 C2     dec $C2        ; PROMPT
507C: A5 C2     lda $C2        ; PROMPT
507E: C5 FA     cmp $FA        ; ZTEMP3+1
5080: D0 BF     bne $5041      ; L_5041
5082: F0 87     beq $500B      ; L_500B
5084: A4 96     ldy $96        ; POKADR+1
5086: C0 A0     cpy #$A0
5088: B0 65     bcs $50EF      ; L_50EF
508A: A5 97     lda $97        ; SVESA
508C: C9 C0     cmp #$C0
508E: B0 5F     bcs $50EF      ; L_50EF
5090: A6 B1     ldx $B1        ; ADFLAG
5092: F0 24     beq $50B8      ; L_50B8
5094: 48        pha
5095: 98        tya
5096: 48        pha
5097: 20 B8 50  jsr $50B8      ; L_50B8
509A: A9 9F     lda #$9F
509C: 38        sec
509D: E5 96     sbc $96        ; POKADR+1
509F: 85 96     sta $96        ; POKADR+1
50A1: 20 C4 50  jsr $50C4      ; L_50C4
50A4: A9 BF     lda #$BF
50A6: 38        sec
50A7: E5 97     sbc $97        ; SVESA
50A9: 85 97     sta $97        ; SVESA
50AB: 20 B8 50  jsr $50B8      ; L_50B8
50AE: 68        pla
50AF: 85 96     sta $96        ; POKADR+1
50B1: 20 C4 50  jsr $50C4      ; L_50C4
50B4: 68        pla
50B5: 85 97     sta $97        ; SVESA
50B7: 60        rts
50B8: A4 97     ldy $97        ; SVESA
50BA: B9 A1 04  lda $04A1,y
50BD: 85 BB     sta $BB        ; STOPLN+1
50BF: B9 61 05  lda $0561,y
50C2: 85 BC     sta $BC        ; TRAPLN
50C4: A5 B0     lda $B0        ; COMCNT
50C6: D0 2A     bne $50F2      ; L_50F2
50C8: A6 96     ldx $96        ; POKADR+1
50CA: A5 97     lda $97        ; SVESA
50CC: 29 03     and #$03
50CE: 0A        asl
50CF: 0A        asl
50D0: 85 A7     sta $A7        ; STMLBD
50D2: 8A        txa
50D3: 29 03     and #$03
50D5: 18        clc
50D6: 65 A7     adc $A7        ; STMLBD
50D8: A8        tay
50D9: B9 88 04  lda $0488,y
50DC: 85 A7     sta $A7        ; STMLBD
50DE: 8A        txa
50DF: 4A        lsr
50E0: 4A        lsr
50E1: A8        tay
50E2: 8A        txa
50E3: 29 03     and #$03
50E5: AA        tax
50E6: BD 09 4E  lda $4E09,x    ; L_4E09
50E9: 31 BB     and ($BB),y    ; STOPLN+1
50EB: 05 A7     ora $A7        ; STMLBD
50ED: 91 BB     sta ($BB),y    ; STOPLN+1
50EF: 60        rts
50F0: C9 C7     cmp #$C7
50F2: A6 96     ldx $96        ; POKADR+1
50F4: 8A        txa
50F5: 4A        lsr
50F6: 4A        lsr
50F7: A8        tay
50F8: 8A        txa
50F9: 29 03     and #$03
50FB: AA        tax
50FC: BD 0D 4E  lda $4E0D,x
50FF: 51 BB     eor ($BB),y    ; STOPLN+1
5101: 91 BB     sta ($BB),y    ; STOPLN+1
5103: 60        rts
5104: A4 97     ldy $97        ; SVESA
5106: B9 A1 04  lda $04A1,y
5109: 85 BB     sta $BB        ; STOPLN+1
510B: B9 61 05  lda $0561,y
510E: 85 BC     sta $BC        ; TRAPLN
5110: A5 96     lda $96        ; POKADR+1
5112: 4A        lsr
5113: 4A        lsr
5114: A8        tay
5115: A5 96     lda $96        ; POKADR+1
5117: 29 03     and #$03
5119: AA        tax
511A: BD 0D 4E  lda $4E0D,x
511D: 31 BB     and ($BB),y    ; STOPLN+1
511F: C9 04     cmp #$04
5121: 90 0D     bcc $5130      ; L_5130
5123: A2 01     ldx #$01
5125: 24 9A     bit $9A        ; MVFA+1
5127: F0 06     beq $512F      ; L_512F
5129: E8        inx
512A: 24 99     bit $99        ; MVFA
512C: F0 01     beq $512F      ; L_512F
512E: E8        inx
512F: 8A        txa
5130: 60        rts
5131: A9 EF     lda #$EF
5133: 85 9B     sta $9B        ; MVTA
5135: 85 9D     sta $9D        ; CPC
5137: 85 94     sta $94        ; COX
5139: A0 00     ldy #$00
513B: 84 88     sty $88        ; STMTAB
513D: 84 89     sty $89        ; STMTAB+1
513F: 84 B8     sty $B8        ; DATALN+1
5141: 60        rts
5142: A9 00     lda #$00
5144: 85 C8     sta $C8        ; COLOR
5146: 60        rts
5147: 20 54 53  jsr $5354      ; L_5354
514A: 20 42 51  jsr $5142      ; L_5142
514D: 85 C9     sta $C9        ; PTABW
514F: 20 93 4D  jsr $4D93      ; L_4D93
5152: 20 C6 51  jsr $51C6      ; L_51C6
5155: A5 E6     lda $E6        ; FR2
5157: C9 02     cmp #$02
5159: F0 12     beq $516D      ; L_516D
515B: C9 08     cmp #$08
515D: F0 E7     beq $5146      ; L_5146
515F: C9 12     cmp #$12
5161: F0 07     beq $516A      ; L_516A
5163: C9 04     cmp #$04
5165: B0 EB     bcs $5152      ; L_5152
5167: 4C 52 51  jmp $5152      ; L_5152
516A: 20 38 52  jsr $5238      ; L_5238
516D: 20 C2 4D  jsr $4DC2      ; L_4DC2
5170: 4C 17 59  jmp $5917      ; L_5917
5173: 20 54 53  jsr $5354      ; L_5354
5176: A5 AD     lda $AD        ; LELNUM
5178: D0 05     bne $517F      ; L_517F
517A: A9 08     lda #$08
517C: 20 5C 56  jsr $565C      ; L_565C
517F: 20 93 4D  jsr $4D93      ; L_4D93
5182: 20 42 51  jsr $5142      ; L_5142
5185: A9 FF     lda #$FF
5187: 85 C9     sta $C9        ; PTABW
5189: 20 C6 51  jsr $51C6      ; L_51C6
518C: A5 E6     lda $E6        ; FR2
518E: C9 01     cmp #$01
5190: F0 ED     beq $517F      ; L_517F
5192: C9 02     cmp #$02
5194: F0 12     beq $51A8      ; L_51A8
5196: C9 08     cmp #$08
5198: F0 0B     beq $51A5      ; L_51A5
519A: C9 12     cmp #$12
519C: F0 CC     beq $516A      ; L_516A
519E: C9 04     cmp #$04
51A0: B0 E7     bcs $5189      ; L_5189
51A2: 4C 82 51  jmp $5182      ; L_5182
51A5: 4C C2 4D  jmp $4DC2      ; L_4DC2
51A8: A5 AD     lda $AD        ; LELNUM
51AA: D0 03     bne $51AF      ; L_51AF
51AC: 20 C2 4D  jsr $4DC2      ; L_4DC2
51AF: 20 B5 56  jsr $56B5      ; L_56B5
51B2: 4C C0 51  jmp $51C0      ; L_51C0
51B5: 20 C6 51  jsr $51C6      ; L_51C6
51B8: A5 E6     lda $E6        ; FR2
51BA: D0 D0     bne $518C      ; L_518C
51BC: A5 86     lda $86        ; VVTP
51BE: D0 EF     bne $51AF      ; L_51AF
51C0: 20 D2 56  jsr $56D2      ; L_56D2
51C3: 4C B5 51  jmp $51B5      ; L_51B5
51C6: A9 00     lda #$00
51C8: 85 86     sta $86        ; VVTP
51CA: 85 87     sta $87        ; VVTP+1
51CC: 20 63 52  jsr $5263      ; L_5263
51CF: A5 E6     lda $E6        ; FR2
51D1: C9 08     cmp #$08
51D3: F0 62     beq $5237      ; L_5237
51D5: A5 CE     lda $CE        ; restrict Y >= 10 / SAVE_STICK_Y
51D7: C9 0A     cmp #$0A
51D9: B0 02     bcs $51DD      ; L_51DD
51DB: A9 0A     lda #$0A
51DD: C9 CA     cmp #$CA       ; restrict Y <= 201
51DF: 90 02     bcc $51E3      ; L_51E3
51E1: A9 C9     lda #$C9
51E3: 38        sec
51E4: E9 0A     sbc #$0A       ; normalize Y to 0 offset
51E6: 85 CE     sta $CE        ; SAVE_STICK_Y
51E8: A6 CD     ldx $CD        ; SAVE_STICK_X
51EA: A4 CF     ldy $CF
51EC: F0 45     beq $5233      ; STORE_EXIT
51EE: A4 D1     ldy $D1
51F0: D0 41     bne $5233      ; STORE_EXIT
51F2: 46 CD     lsr $CD        ; divide coords by 4 (magnifier) / SAVE_STICK_X
51F4: 46 CD     lsr $CD        ; SAVE_STICK_X
51F6: 46 CE     lsr $CE        ; SAVE_STICK_Y
51F8: 46 CE     lsr $CE        ; SAVE_STICK_Y
51FA: A5 86     lda $86        ; VVTP
51FC: F0 1E     beq $521C      ; L_521C
51FE: A5 CD     lda $CD        ; SAVE_STICK_X
5200: 38        sec
5201: E5 CB     sbc $CB
5203: 85 D5     sta $D5        ; FR0+1
5205: A2 9F     ldx #$9F
5207: 90 02     bcc $520B      ; L_520B
5209: A2 00     ldx #$00
520B: 86 D7     stx $D7        ; FR0+3
520D: A5 CE     lda $CE        ; SAVE_STICK_Y
520F: 38        sec
5210: E5 CC     sbc $CC
5212: 85 D6     sta $D6        ; FR0+2
5214: A2 BF     ldx #$BF
5216: 90 02     bcc $521A      ; L_521A
5218: A2 00     ldx #$00
521A: 86 D8     stx $D8        ; FR0+4
521C: A5 CD     lda $CD        ; SAVE_STICK_X
521E: 38        sec
521F: E5 D5     sbc $D5        ; FR0+1
5221: C9 A0     cmp #$A0
5223: 90 02     bcc $5227      ; L_5227
5225: A5 D7     lda $D7        ; FR0+3
5227: AA        tax
5228: A5 CE     lda $CE        ; SAVE_STICK_Y
522A: 38        sec
522B: E5 D6     sbc $D6        ; FR0+2
522D: C9 C0     cmp #$C0
522F: 90 02     bcc $5233      ; STORE_EXIT
5231: A5 D8     lda $D8        ; FR0+4
5233: 85 CC     sta $CC
5235: 86 CB     stx $CB
5237: 60        rts
5238: A9 21     lda #$21
523A: 85 DE     sta $DE        ; FRE+4
523C: A9 08     lda #$08
523E: 85 E6     sta $E6        ; FR2
5240: 85 4D     sta $4D        ; ATRACT
5242: 60        rts
5243: A9 01     lda #$01
5245: 85 E0     sta $E0        ; FR1
5247: E6 87     inc $87        ; VVTP+1
5249: A5 87     lda $87        ; VVTP+1
524B: C9 06     cmp #$06
524D: 90 05     bcc $5254      ; L_5254
524F: 85 86     sta $86        ; VVTP
5251: 20 C2 4D  jsr $4DC2      ; L_4DC2
5254: 20 D9 53  jsr $53D9      ; L_53D9
5257: D0 06     bne $525F      ; L_525F
5259: A9 01     lda #$01
525B: 85 DF     sta $DF        ; FRE+5
525D: D0 0A     bne $5269      ; L_5269
525F: A5 DF     lda $DF        ; FRE+5
5261: D0 D5     bne $5238      ; L_5238
5263: A9 00     lda #$00
5265: 85 DF     sta $DF        ; FRE+5
5267: 85 E0     sta $E0        ; FR1
5269: AD DC 02  lda $02DC      ; HELPFG
526C: F0 09     beq $5277      ; L_5277
526E: A9 00     lda #$00
5270: 8D DC 02  sta $02DC      ; HELPFG
5273: A9 26     lda #$26
5275: D0 C3     bne $523A      ; L_523A
5277: AD FC 02  lda $02FC      ; CH
527A: C9 FF     cmp #$FF
527C: D0 BC     bne $523A      ; L_523A
527E: 20 73 53  jsr $5373      ; L_5373
5281: E0 E4     cpx #$E4
5283: 90 04     bcc $5289      ; L_5289
5285: CA        dex
5286: 86 01     stx $01        ; STICK_Y
5288: C8        iny
5289: C0 02     cpy #$02
528B: B0 B6     bcs $5243      ; L_5243
528D: A5 00     lda $00        ; STICK_X
528F: 85 CD     sta $CD        ; SAVE_STICK_X
5291: A5 01     lda $01        ; STICK_Y
5293: 85 CE     sta $CE        ; SAVE_STICK_Y
5295: EA        nop
5296: EA        nop
5297: EA        nop
5298: EA        nop
5299: EA        nop
529A: EA        nop
529B: A5 86     lda $86        ; VVTP
529D: F0 10     beq $52AF      ; L_52AF
529F: A5 A8     lda $A8        ; STINDEX
52A1: D0 09     bne $52AC      ; L_52AC
52A3: A5 E6     lda $E6        ; FR2
52A5: 6A        ror
52A6: B0 04     bcs $52AC      ; L_52AC
52A8: A5 AD     lda $AD        ; LELNUM
52AA: F0 03     beq $52AF      ; L_52AF
52AC: 20 93 4D  jsr $4D93      ; L_4D93
52AF: A4 CE     ldy $CE        ; SAVE_STICK_Y
52B1: A5 E0     lda $E0        ; FR1
52B3: D0 AE     bne $5263      ; L_5263
52B5: A9 00     lda #$00
52B7: 85 DF     sta $DF        ; FRE+5
52B9: 85 4D     sta $4D        ; ATRACT
52BB: A5 CD     lda $CD        ; SAVE_STICK_X
52BD: AA        tax
52BE: 38        sec
52BF: E5 E7     sbc $E7        ; FR2+1
52C1: 86 E7     stx $E7        ; FR2+1
52C3: B0 04     bcs $52C9      ; L_52C9
52C5: 49 FF     eor #$FF
52C7: 69 01     adc #$01
52C9: C9 04     cmp #$04
52CB: A5 E8     lda $E8        ; FR2+2
52CD: 84 E8     sty $E8        ; FR2+2
52CF: B0 98     bcs $5269      ; L_5269
52D1: 38        sec
52D2: E5 CE     sbc $CE        ; SAVE_STICK_Y
52D4: B0 04     bcs $52DA      ; L_52DA
52D6: 49 FF     eor #$FF
52D8: 69 01     adc #$01
52DA: C9 04     cmp #$04
52DC: B0 8B     bcs $5269      ; L_5269
52DE: 20 8A 53  jsr $538A      ; L_538A
52E1: A9 00     lda #$00
52E3: 85 DF     sta $DF        ; FRE+5
52E5: 85 8C     sta $8C        ; STARP
52E7: 85 81     sta $81        ; LOMEM+1
52E9: A5 CD     lda $CD        ; SAVE_STICK_X
52EB: 4A        lsr
52EC: 85 80     sta $80        ; LOMEM
52EE: 66 81     ror $81        ; LOMEM+1
52F0: A6 81     ldx $81        ; LOMEM+1
52F2: 86 83     stx $83        ; VNTP+1
52F4: 4A        lsr
52F5: 85 82     sta $82        ; VNTP
52F7: 66 83     ror $83        ; VNTP+1
52F9: A5 CD     lda $CD        ; SAVE_STICK_X
52FB: 0A        asl
52FC: 26 8C     rol $8C        ; STARP
52FE: 65 CD     adc $CD        ; SAVE_STICK_X
5300: 90 03     bcc $5305      ; L_5305
5302: E6 8C     inc $8C        ; STARP
5304: 18        clc
5305: 65 81     adc $81        ; LOMEM+1
5307: 90 03     bcc $530C      ; L_530C
5309: E6 8C     inc $8C        ; STARP
530B: 18        clc
530C: 65 83     adc $83        ; VNTP+1
530E: A5 8C     lda $8C        ; STARP
5310: 65 80     adc $80        ; LOMEM
5312: 65 82     adc $82        ; VNTP
5314: 85 CD     sta $CD        ; SAVE_STICK_X
5316: 20 D9 53  jsr $53D9      ; L_53D9
5319: F0 12     beq $532D      ; L_532D
531B: 85 4D     sta $4D        ; ATRACT
531D: 29 04     and #$04
531F: C9 04     cmp #$04
5321: F0 14     beq $5337      ; L_5337
5323: A5 C8     lda $C8        ; COLOR
5325: F0 0A     beq $5331      ; L_5331
5327: 20 42 51  jsr $5142      ; L_5142
532A: 20 44 53  jsr $5344      ; L_5344
532D: A5 C8     lda $C8        ; COLOR
532F: F0 2F     beq $5360      ; L_5360
5331: A5 E6     lda $E6        ; FR2
5333: 0A        asl
5334: 4C 64 53  jmp $5364      ; L_5364
5337: A5 C9     lda $C9        ; PTABW
5339: F0 F6     beq $5331      ; L_5331
533B: A5 C8     lda $C8        ; COLOR
533D: 49 FF     eor #$FF
533F: 85 C8     sta $C8        ; COLOR
5341: 4C 2A 53  jmp $532A      ; L_532A
5344: AD FC 02  lda $02FC      ; CH
5347: C9 FF     cmp #$FF
5349: F0 03     beq $534E      ; L_534E
534B: 4C 6B 53  jmp $536B      ; L_536B
534E: 20 D9 53  jsr $53D9      ; L_53D9
5351: D0 F1     bne $5344      ; L_5344
5353: 60        rts
5354: AD FC 02  lda $02FC      ; CH
5357: C9 FF     cmp #$FF
5359: D0 0E     bne $5369      ; L_5369
535B: 20 D9 53  jsr $53D9      ; L_53D9
535E: D0 F4     bne $5354      ; L_5354
5360: A5 E6     lda $E6        ; FR2
5362: 38        sec
5363: 2A        rol
5364: 29 03     and #$03
5366: 85 E6     sta $E6        ; FR2
5368: 60        rts
5369: 68        pla
536A: 68        pla
536B: AD FC 02  lda $02FC      ; CH
536E: 29 3F     and #$3F
5370: 4C 3A 52  jmp $523A      ; L_523A
5373: 20 6E 33  jsr $336E      ; WAIT_STICK
5376: A6 00     ldx $00        ; STICK_X
5378: E0 D2     cpx #$D2
537A: 90 04     bcc $5380      ; L_5380
537C: CA        dex
537D: 86 00     stx $00        ; STICK_X
537F: C8        iny
5380: C5 01     cmp $01        ; STICK_Y
5382: D0 03     bne $5387      ; L_5387
5384: E6 01     inc $01        ; STICK_Y
5386: C8        iny
5387: A6 01     ldx $01        ; STICK_Y
5389: 60        rts
538A: A5 86     lda $86        ; VVTP
538C: F0 10     beq $539E      ; L_539E
538E: A2 04     ldx #$04
5390: A5 CD     lda $CD        ; SAVE_STICK_X
5392: 9D 80 04  sta $0480,x
5395: A5 CE     lda $CE        ; SAVE_STICK_Y
5397: 9D 81 04  sta $0481,x
539A: CA        dex
539B: CA        dex
539C: 10 F2     bpl $5390      ; L_5390
539E: A2 05     ldx #$05
53A0: BD 80 04  lda $0480,x
53A3: 9D 82 04  sta $0482,x
53A6: CA        dex
53A7: 10 F7     bpl $53A0      ; L_53A0
53A9: A5 CD     lda $CD        ; SAVE_STICK_X
53AB: 8D 80 04  sta $0480
53AE: A2 06     ldx #$06
53B0: 20 C2 53  jsr $53C2      ; L_53C2
53B3: 85 CD     sta $CD        ; SAVE_STICK_X
53B5: A5 CE     lda $CE        ; SAVE_STICK_Y
53B7: 8D 81 04  sta $0481
53BA: A2 07     ldx #$07
53BC: 20 C2 53  jsr $53C2      ; L_53C2
53BF: 85 CE     sta $CE        ; SAVE_STICK_Y
53C1: 60        rts
53C2: A9 00     lda #$00
53C4: 85 85     sta $85        ; VNTD+1
53C6: 18        clc
53C7: 7D 80 04  adc $0480,x
53CA: 90 02     bcc $53CE      ; L_53CE
53CC: E6 85     inc $85        ; VNTD+1
53CE: CA        dex
53CF: CA        dex
53D0: 10 F4     bpl $53C6      ; L_53C6
53D2: 46 85     lsr $85        ; VNTD+1
53D4: 6A        ror
53D5: 46 85     lsr $85        ; VNTD+1
53D7: 6A        ror
53D8: 60        rts
53D9: AD 1F D0  lda $D01F      ; CONSOL
53DC: C9 07     cmp #$07
53DE: F0 08     beq $53E8      ; L_53E8
53E0: C9 03     cmp #$03
53E2: F0 1A     beq $53FE      ; L_53FE
53E4: A9 0B     lda #$0B
53E6: D0 18     bne $5400      ; L_5400
53E8: AD 84 02  lda $0284      ; STRIG0
53EB: C9 01     cmp #$01
53ED: D0 11     bne $5400      ; L_5400
53EF: AD 85 02  lda $0285      ; STRIG1
53F2: C9 01     cmp #$01
53F4: D0 0A     bne $5400      ; L_5400
53F6: EA        nop
53F7: A9 0F     lda #$0F
53F9: C9 0F     cmp #$0F
53FB: D0 03     bne $5400      ; L_5400
53FD: 60        rts
53FE: A9 07     lda #$07
5400: 85 4D     sta $4D        ; ATRACT
5402: 60        rts
5403: A9 00     lda #$00
5405: 85 E9     sta $E9        ; FR2+3
5407: A5 F4     lda $F4        ; INBUFF+1
5409: 8D 09 D4  sta $D409      ; CHBASE
540C: A5 CF     lda $CF
540E: F0 64     beq $5474      ; L_5474
5410: A5 CC     lda $CC
5412: C9 0C     cmp #$0C
5414: B0 02     bcs $5418      ; L_5418
5416: A9 0B     lda #$0B
5418: C9 B4     cmp #$B4
541A: 90 02     bcc $541E      ; L_541E
541C: A9 B2     lda #$B2
541E: 69 0C     adc #$0C
5420: A8        tay
5421: A5 CB     lda $CB
5423: C9 15     cmp #$15
5425: B0 0A     bcs $5431      ; L_5431
5427: A9 00     lda #$00
5429: 85 D3     sta $D3        ; VNUM
542B: A9 0F     lda #$0F
542D: 85 D2     sta $D2        ; VTYPE
542F: D0 19     bne $544A      ; L_544A
5431: C9 8C     cmp #$8C
5433: 90 02     bcc $5437      ; L_5437
5435: A9 8C     lda #$8C
5437: 38        sec
5438: E9 15     sbc #$15
543A: 85 D3     sta $D3        ; VNUM
543C: 29 03     and #$03
543E: 49 03     eor #$03
5440: 0A        asl
5441: 0A        asl
5442: 85 D2     sta $D2        ; VTYPE
5444: A5 D3     lda $D3        ; VNUM
5446: 4A        lsr
5447: 4A        lsr
5448: 85 D3     sta $D3        ; VNUM
544A: A2 46     ldx #$46
544C: 18        clc
544D: B9 A1 04  lda $04A1,y
5450: 65 D3     adc $D3        ; VNUM
5452: 9D 24 06  sta $0624,x
5455: B9 61 05  lda $0561,y
5458: 69 00     adc #$00
545A: 9D 25 06  sta $0625,x
545D: 88        dey
545E: CA        dex
545F: CA        dex
5460: CA        dex
5461: 10 E9     bpl $544C      ; L_544C
5463: A9 21     lda #$21
5465: 8D 02 D4  sta $D402      ; DLISTL
5468: A9 06     lda #$06
546A: 8D 03 D4  sta $D403      ; DLISTH
546D: A5 D2     lda $D2        ; VTYPE
546F: 8D 04 D4  sta $D404      ; HSCROL
5472: A9 01     lda #$01
5474: A5 EA     lda $EA        ; FR2+4
5476: D0 03     bne $547B      ; L_547B
5478: 4C 62 E4  jmp $E462      ; XITVBV
547B: A4 F2     ldy $F2        ; CIX
547D: A6 F3     ldx $F3        ; INBUFF
547F: A9 00     lda #$00
5481: 91 F0     sta ($F0),y    ; FCHRFLG
5483: C8        iny
5484: CA        dex
5485: D0 FA     bne $5481      ; L_5481
5487: A5 CF     lda $CF
5489: F0 67     beq $54F2      ; L_54F2
548B: A9 03     lda #$03
548D: 8D 08 D0  sta $D008      ; SIZEP0
5490: A5 CC     lda $CC
5492: C9 0C     cmp #$0C
5494: 90 0A     bcc $54A0      ; L_54A0
5496: E9 B4     sbc #$B4
5498: B0 04     bcs $549E      ; L_549E
549A: A9 0B     lda #$0B
549C: 90 02     bcc $54A0      ; L_54A0
549E: 69 0B     adc #$0B
54A0: 38        sec
54A1: E5 ED     sbc $ED        ; EEXP
54A3: 0A        asl
54A4: 0A        asl
54A5: 0A        asl
54A6: 18        clc
54A7: 69 20     adc #$20
54A9: 85 F2     sta $F2        ; CIX
54AB: 85 F5     sta $F5        ; ZTEMP1
54AD: A5 CB     lda $CB
54AF: C9 14     cmp #$14
54B1: 90 0A     bcc $54BD      ; L_54BD
54B3: E9 8C     sbc #$8C
54B5: B0 04     bcs $54BB      ; L_54BB
54B7: A9 14     lda #$14
54B9: 90 02     bcc $54BD      ; L_54BD
54BB: 69 13     adc #$13
54BD: 38        sec
54BE: E5 EC     sbc $EC        ; FRX
54C0: 0A        asl
54C1: 0A        asl
54C2: 18        clc
54C3: 69 30     adc #$30
54C5: A8        tay
54C6: A5 D2     lda $D2        ; VTYPE
54C8: C9 0F     cmp #$0F
54CA: D0 01     bne $54CD      ; L_54CD
54CC: 88        dey
54CD: 8C 00 D0  sty $D000      ; HPOSP0
54D0: A5 EB     lda $EB        ; FR2+5
54D2: A8        tay
54D3: 0A        asl
54D4: 0A        asl
54D5: 0A        asl
54D6: 85 F3     sta $F3        ; INBUFF
54D8: 88        dey
54D9: 84 F6     sty $F6        ; ZTEMP1+1
54DB: B1 EE     lda ($EE),y    ; NSIGN
54DD: A4 F5     ldy $F5        ; ZTEMP1
54DF: A2 08     ldx #$08
54E1: 91 F0     sta ($F0),y    ; FCHRFLG
54E3: C8        iny
54E4: F0 3A     beq $5520      ; L_5520
54E6: CA        dex
54E7: D0 F8     bne $54E1      ; L_54E1
54E9: 84 F5     sty $F5        ; ZTEMP1
54EB: A4 F6     ldy $F6        ; ZTEMP1+1
54ED: 88        dey
54EE: 10 E9     bpl $54D9      ; L_54D9
54F0: 30 2E     bmi $5520      ; L_5520
54F2: 8D 08 D0  sta $D008      ; SIZEP0
54F5: A5 CB     lda $CB
54F7: 18        clc
54F8: 69 30     adc #$30
54FA: 38        sec
54FB: E5 EC     sbc $EC        ; FRX
54FD: 8D 00 D0  sta $D000      ; HPOSP0
5500: A5 CC     lda $CC
5502: 18        clc
5503: 69 20     adc #$20
5505: 38        sec
5506: E5 ED     sbc $ED        ; EEXP
5508: 85 F5     sta $F5        ; ZTEMP1
550A: 85 F2     sta $F2        ; CIX
550C: A4 EB     ldy $EB        ; FR2+5
550E: 84 F3     sty $F3        ; INBUFF
5510: 88        dey
5511: 98        tya
5512: AA        tax
5513: B1 EE     lda ($EE),y    ; NSIGN
5515: A4 F5     ldy $F5        ; ZTEMP1
5517: 91 F0     sta ($F0),y    ; FCHRFLG
5519: E6 F5     inc $F5        ; ZTEMP1
551B: CA        dex
551C: 8A        txa
551D: A8        tay
551E: 10 F3     bpl $5513      ; L_5513
5520: AD C0 02  lda $02C0      ; PCOLR0
5523: 49 BE     eor #$BE
5525: 8D C0 02  sta $02C0      ; PCOLR0
5528: 4C 62 E4  jmp $E462      ; XITVBV
552B: A5 FC     lda $FC        ; FLPTR
552D: D0 03     bne $5532      ; L_5532
552F: 20 87 3F  jsr $3F87      ; L_3F87
5532: A9 00     lda #$00
5534: 85 FC     sta $FC        ; FLPTR
5536: 85 CF     sta $CF
5538: 20 B8 4D  jsr $4DB8      ; L_4DB8
553B: 20 D6 34  jsr $34D6      ; L_34D6
553E: A9 04     lda #$04
5540: 8D C5 02  sta $02C5      ; COLOR1
5543: A9 E0     lda #$E0
5545: 85 F4     sta $F4        ; INBUFF+1
5547: A9 0C     lda #$0C
5549: 8D 04 D4  sta $D404      ; HSCROL
554C: A9 A8     lda #$A8
554E: A0 55     ldy #$55
5550: 20 F8 4D  jsr $4DF8      ; L_4DF8
5553: A9 08     lda #$08
5555: 85 B3     sta $B3        ; ONLOOP
5557: 20 5C 56  jsr $565C      ; L_565C
555A: 20 47 51  jsr $5147      ; L_5147
555D: 20 17 59  jsr $5917      ; L_5917
5560: 20 C2 4D  jsr $4DC2      ; L_4DC2
5563: A5 E6     lda $E6        ; FR2
5565: C9 08     cmp #$08
5567: F0 16     beq $557F      ; L_557F
5569: A5 CB     lda $CB
556B: C9 42     cmp #$42
556D: 90 33     bcc $55A2      ; L_55A2
556F: C9 5E     cmp #$5E
5571: B0 2F     bcs $55A2      ; L_55A2
5573: A5 CC     lda $CC
5575: C9 5B     cmp #$5B
5577: 90 29     bcc $55A2      ; L_55A2
5579: C9 65     cmp #$65
557B: B0 25     bcs $55A2      ; L_55A2
557D: 90 0B     bcc $558A      ; L_558A
557F: A9 FF     lda #$FF
5581: 8D FC 02  sta $02FC      ; CH
5584: A5 DE     lda $DE        ; FRE+4
5586: C9 2B     cmp #$2B
5588: D0 18     bne $55A2      ; L_55A2
558A: A2 C0     ldx #$C0
558C: A9 00     lda #$00
558E: BC A0 04  ldy $04A0,x
5591: 84 BB     sty $BB        ; STOPLN+1
5593: BC 60 05  ldy $0560,x
5596: 84 BC     sty $BC        ; TRAPLN
5598: A0 27     ldy #$27
559A: 91 BB     sta ($BB),y    ; STOPLN+1
559C: 88        dey
559D: 10 FB     bpl $559A      ; L_559A
559F: CA        dex
55A0: D0 EC     bne $558E      ; L_558E
55A2: 20 64 3F  jsr $3F64      ; L_3F64
55A5: 4C A9 3D  jmp $3DA9      ; L_3DA9
55A8: 70        BYTE $70 $70 $70 $57 $38 $36 $70 $56
55B0: 5A        BYTE $5A $35 $70 $46 $D8 $55 $70 $70
55B8: 56        BYTE $56 $EA $55 $70 $42 $27 $56 $30
55C0: 56        BYTE $56 $47 $56 $70 $70 $70 $42 $FB
55C8: 55        BYTE $55 $30 $46 $1C $56 $70 $70 $70
55D0: 70        BYTE $70 $70 $42 $45 $36 $41 $A8 $55
55D8: 00        BYTE $00 $00 $8D $00 $A5 $B2 $A1 $B3
55E0: A5        BYTE $A5 $00 $B3 $A3 $B2 $A5 $A5 $AE
55E8: 00        BYTE $00 $8D $00 $00 $00 $00 $21 $32
55F0: 25        BYTE $25 $00 $39 $2F $35 $00 $33 $35
55F8: 32        BYTE $32 $25 $1F $00 $00 $00 $00 $00
5600: 00        BYTE $00 $21 $6E $79 $74 $68 $69 $6E
5608: 67        BYTE $67 $00 $65 $6C $73 $65 $00 $63
5610: 61        BYTE $61 $6E $63 $65 $6C $73 $00 $25
5618: 72        BYTE $72 $61 $73 $65 $00 $00 $00 $00
5620: 00        BYTE $00 $00 $00 $00 $00 $2E $2F $00
5628: 00        BYTE $00 $00 $00 $00 $00 $00 $00 $00
5630: 34        BYTE $34 $6F $75 $63 $68 $00 $68 $65
5638: 72        BYTE $72 $65 $00 $5D $00 $6F $72 $00
5640: 70        BYTE $70 $72 $65 $73 $73 $00 $39 $00
5648: 00        BYTE $00 $00 $00 $00 $00 $00 $00 $00
5650: 39        BYTE $39 $25 $33 $00 $00 $00 $00 $00
5658: 00        BYTE $00 $00 $00 $00
565C: 20 A4 56  jsr $56A4      ; L_56A4
565F: A9 00     lda #$00
5661: 85 AE     sta $AE        ; LELNUM+1
5663: A6 B3     ldx $B3        ; ONLOOP
5665: BD B9 5D  lda $5DB9,x
5668: 85 EB     sta $EB        ; FR2+5
566A: BD C3 5D  lda $5DC3,x
566D: 85 EC     sta $EC        ; FRX
566F: BD CD 5D  lda $5DCD,x
5672: 85 ED     sta $ED        ; EEXP
5674: BD D7 5D  lda $5DD7,x
5677: 85 EE     sta $EE        ; NSIGN
5679: BD E1 5D  lda $5DE1,x
567C: 85 EF     sta $EF        ; ESIGN
567E: 20 93 4D  jsr $4D93      ; L_4D93
5681: B1 BF     lda ($BF),y    ; SAVCUR+1
5683: A6 AE     ldx $AE        ; LELNUM+1
5685: E4 B3     cpx $B3        ; ONLOOP
5687: F0 06     beq $568F      ; L_568F
5689: 20 98 56  jsr $5698      ; L_5698
568C: 4C 81 56  jmp $5681      ; L_5681
568F: A5 BF     lda $BF        ; SAVCUR+1
5691: 85 B4     sta $B4        ; ENTDTD
5693: A5 C0     lda $C0        ; IOCMD
5695: 85 B5     sta $B5        ; LISTDTD
5697: 60        rts
5698: E6 AE     inc $AE        ; LELNUM+1
569A: 18        clc
569B: 65 BF     adc $BF        ; SAVCUR+1
569D: 85 BF     sta $BF        ; SAVCUR+1
569F: 90 02     bcc $56A3      ; L_56A3
56A1: E6 C0     inc $C0        ; IOCMD
56A3: 60        rts
56A4: A9 75     lda #$75
56A6: 85 BF     sta $BF        ; SAVCUR+1
56A8: A9 5D     lda #$5D
56AA: 85 C0     sta $C0        ; IOCMD
56AC: A0 00     ldy #$00
56AE: 84 AE     sty $AE        ; LELNUM+1
56B0: 84 AF     sty $AF        ; STENUM
56B2: 84 B8     sty $B8        ; DATALN+1
56B4: 60        rts
56B5: A5 CB     lda $CB
56B7: 85 96     sta $96        ; POKADR+1
56B9: A5 CC     lda $CC
56BB: 85 97     sta $97        ; SVESA
56BD: A9 FE     lda #$FE
56BF: 85 9B     sta $9B        ; MVTA
56C1: A5 AD     lda $AD        ; LELNUM
56C3: D0 09     bne $56CE      ; L_56CE
56C5: A5 96     lda $96        ; POKADR+1
56C7: 85 9E     sta $9E        ; CPC+1
56C9: A5 97     lda $97        ; SVESA
56CB: 85 9F     sta $9F        ; LLNGTH
56CD: 60        rts
56CE: A9 80     lda #$80
56D0: D0 11     bne $56E3      ; L_56E3
56D2: A5 CB     lda $CB
56D4: 85 96     sta $96        ; POKADR+1
56D6: A5 CC     lda $CC
56D8: 85 97     sta $97        ; SVESA
56DA: A5 AD     lda $AD        ; LELNUM
56DC: D0 03     bne $56E1      ; L_56E1
56DE: 4C 70 57  jmp $5770      ; L_5770
56E1: A9 40     lda #$40
56E3: 85 A2     sta $A2        ; MVLNG
56E5: A5 B4     lda $B4        ; ENTDTD
56E7: 85 BF     sta $BF        ; SAVCUR+1
56E9: A5 B5     lda $B5        ; LISTDTD
56EB: 85 C0     sta $C0        ; IOCMD
56ED: A0 01     ldy #$01
56EF: 84 A3     sty $A3        ; MVLNG+1
56F1: A5 96     lda $96        ; POKADR+1
56F3: 18        clc
56F4: 69 1E     adc #$1E
56F6: 38        sec
56F7: F1 BF     sbc ($BF),y    ; SAVCUR+1
56F9: 85 98     sta $98        ; SVESA+1
56FB: C8        iny
56FC: A5 97     lda $97        ; SVESA
56FE: 18        clc
56FF: 69 1E     adc #$1E
5701: 38        sec
5702: F1 BF     sbc ($BF),y    ; SAVCUR+1
5704: 85 97     sta $97        ; SVESA
5706: 84 B2     sty $B2        ; SVDISP
5708: A6 98     ldx $98        ; SVESA+1
570A: 86 96     stx $96        ; POKADR+1
570C: 4C 5D 57  jmp $575D      ; L_575D
570F: 2A        rol
5710: 2A        rol
5711: B0 5A     bcs $576D      ; L_576D
5713: 10 05     bpl $571A      ; L_571A
5715: E6 97     inc $97        ; SVESA
5717: 4C 08 57  jmp $5708      ; L_5708
571A: 48        pha
571B: A5 96     lda $96        ; POKADR+1
571D: 48        pha
571E: A5 97     lda $97        ; SVESA
5720: 48        pha
5721: A5 B0     lda $B0        ; COMCNT
5723: 05 D9     ora $D9        ; FR0+5
5725: F0 06     beq $572D      ; L_572D
5727: 20 F9 57  jsr $57F9      ; L_57F9
572A: 4C 54 57  jmp $5754      ; L_5754
572D: 06 A2     asl $A2        ; MVLNG
572F: 90 0A     bcc $573B      ; L_573B
5731: 68        pla
5732: 85 9F     sta $9F        ; LLNGTH
5734: 68        pla
5735: 85 9E     sta $9E        ; CPC+1
5737: 68        pla
5738: 60        rts
5739: C9 C7     cmp #$C7
573B: 10 08     bpl $5745      ; L_5745
573D: 06 A2     asl $A2        ; MVLNG
573F: 20 70 57  jsr $5770      ; L_5770
5742: 4C 54 57  jmp $5754      ; L_5754
5745: A5 81     lda $81        ; LOMEM+1
5747: 85 83     sta $83        ; VNTP+1
5749: A5 A1     lda $A1        ; TSLNUM+1
574B: 85 A0     sta $A0        ; TSLNUM
574D: A5 B7     lda $B7        ; DATALN
574F: 85 B6     sta $B6        ; DATAD
5751: 20 BA 57  jsr $57BA      ; L_57BA
5754: 68        pla
5755: 85 97     sta $97        ; SVESA
5757: 68        pla
5758: 85 96     sta $96        ; POKADR+1
575A: 68        pla
575B: E6 96     inc $96        ; POKADR+1
575D: C6 A3     dec $A3        ; MVLNG+1
575F: D0 AE     bne $570F      ; L_570F
5761: E6 B2     inc $B2        ; SVDISP
5763: A4 B2     ldy $B2        ; SVDISP
5765: B1 BF     lda ($BF),y    ; SAVCUR+1
5767: A2 04     ldx #$04
5769: 86 A3     stx $A3        ; MVLNG+1
576B: D0 A3     bne $5710      ; L_5710
576D: 10 EC     bpl $575B      ; L_575B
576F: 60        rts
5770: A9 FF     lda #$FF
5772: 85 B6     sta $B6        ; DATAD
5774: 85 B7     sta $B7        ; DATALN
5776: A9 80     lda #$80
5778: 85 80     sta $80        ; LOMEM
577A: A5 96     lda $96        ; POKADR+1
577C: AA        tax
577D: 38        sec
577E: E5 9E     sbc $9E        ; CPC+1
5780: B0 06     bcs $5788      ; L_5788
5782: 49 FF     eor #$FF
5784: 69 01     adc #$01
5786: 06 80     asl $80        ; LOMEM
5788: 85 81     sta $81        ; LOMEM+1
578A: A5 81     lda $81        ; LOMEM+1
578C: 85 83     sta $83        ; VNTP+1
578E: 86 9E     stx $9E        ; CPC+1
5790: A5 97     lda $97        ; SVESA
5792: AA        tax
5793: 18        clc
5794: E5 9F     sbc $9F        ; LLNGTH
5796: 90 04     bcc $579C      ; L_579C
5798: 49 FF     eor #$FF
579A: 69 FE     adc #$FE
579C: 85 82     sta $82        ; VNTP
579E: 86 9F     stx $9F        ; LLNGTH
57A0: 66 80     ror $80        ; LOMEM
57A2: 38        sec
57A3: E5 81     sbc $81        ; LOMEM+1
57A5: 85 A0     sta $A0        ; TSLNUM
57A7: 85 A1     sta $A1        ; TSLNUM+1
57A9: B0 0F     bcs $57BA      ; L_57BA
57AB: C6 B6     dec $B6        ; DATAD
57AD: C6 B7     dec $B7        ; DATALN
57AF: D0 09     bne $57BA      ; L_57BA
57B1: 0A        asl
57B2: 30 04     bmi $57B8      ; L_57B8
57B4: E6 96     inc $96        ; POKADR+1
57B6: D0 02     bne $57BA      ; L_57BA
57B8: C6 96     dec $96        ; POKADR+1
57BA: 38        sec
57BB: A5 83     lda $83        ; VNTP+1
57BD: 65 82     adc $82        ; VNTP
57BF: 85 83     sta $83        ; VNTP+1
57C1: 08        php
57C2: A5 AD     lda $AD        ; LELNUM
57C4: D0 06     bne $57CC      ; L_57CC
57C6: 20 84 50  jsr $5084      ; L_5084
57C9: 4C DB 57  jmp $57DB      ; L_57DB
57CC: A5 96     lda $96        ; POKADR+1
57CE: 48        pha
57CF: A5 97     lda $97        ; SVESA
57D1: 48        pha
57D2: 20 F9 57  jsr $57F9      ; L_57F9
57D5: 68        pla
57D6: 85 97     sta $97        ; SVESA
57D8: 68        pla
57D9: 85 96     sta $96        ; POKADR+1
57DB: 28        plp
57DC: E6 A0     inc $A0        ; TSLNUM
57DE: D0 04     bne $57E4      ; L_57E4
57E0: E6 B6     inc $B6        ; DATAD
57E2: F0 14     beq $57F8      ; L_57F8
57E4: A5 80     lda $80        ; LOMEM
57E6: B0 C9     bcs $57B1      ; L_57B1
57E8: 30 04     bmi $57EE      ; L_57EE
57EA: E6 97     inc $97        ; SVESA
57EC: D0 02     bne $57F0      ; L_57F0
57EE: C6 97     dec $97        ; SVESA
57F0: 18        clc
57F1: A5 83     lda $83        ; VNTP+1
57F3: 65 81     adc $81        ; LOMEM+1
57F5: 4C BF 57  jmp $57BF      ; L_57BF
57F8: 60        rts
57F9: A5 96     lda $96        ; POKADR+1
57FB: 38        sec
57FC: E9 1E     sbc #$1E
57FE: 85 96     sta $96        ; POKADR+1
5800: A5 97     lda $97        ; SVESA
5802: 38        sec
5803: E9 1E     sbc #$1E
5805: 85 97     sta $97        ; SVESA
5807: 4C 84 50  jmp $5084      ; L_5084
580A: 20 C6 51  jsr $51C6      ; L_51C6
580D: A5 E6     lda $E6        ; FR2
580F: D0 E7     bne $57F8      ; L_57F8
5811: A5 CB     lda $CB
5813: 85 C5     sta $C5        ; TEMPA+1
5815: A5 CC     lda $CC
5817: 85 C6     sta $C6        ; ZTEMP2
5819: 20 A7 58  jsr $58A7      ; L_58A7
581C: 4C 0A 58  jmp $580A      ; L_580A
581F: A9 7F     lda #$7F
5821: 85 B0     sta $B0        ; COMCNT
5823: 20 45 59  jsr $5945      ; L_5945
5826: A5 96     lda $96        ; POKADR+1
5828: 85 C3     sta $C3        ; ERRSAV
582A: 85 C5     sta $C5        ; TEMPA+1
582C: 85 9E     sta $9E        ; CPC+1
582E: A5 97     lda $97        ; SVESA
5830: 85 C4     sta $C4        ; TEMPA
5832: 85 C6     sta $C6        ; ZTEMP2
5834: 85 9F     sta $9F        ; LLNGTH
5836: 20 8E 58  jsr $588E      ; L_588E
5839: 20 C6 51  jsr $51C6      ; L_51C6
583C: A5 E6     lda $E6        ; FR2
583E: C9 08     cmp #$08
5840: F0 42     beq $5884      ; L_5884
5842: C9 01     cmp #$01
5844: F0 04     beq $584A      ; L_584A
5846: C9 03     cmp #$03
5848: D0 EF     bne $5839      ; L_5839
584A: 20 C6 51  jsr $51C6      ; L_51C6
584D: A5 E6     lda $E6        ; FR2
584F: C9 02     cmp #$02
5851: F0 29     beq $587C      ; L_587C
5853: C9 12     cmp #$12
5855: F0 2D     beq $5884      ; L_5884
5857: C9 08     cmp #$08
5859: F0 29     beq $5884      ; L_5884
585B: B0 ED     bcs $584A      ; L_584A
585D: A5 CB     lda $CB
585F: C5 C5     cmp $C5        ; TEMPA+1
5861: D0 08     bne $586B      ; L_586B
5863: A5 CC     lda $CC
5865: C5 C6     cmp $C6        ; ZTEMP2
5867: F0 E1     beq $584A      ; L_584A
5869: A5 C5     lda $C5        ; TEMPA+1
586B: 48        pha
586C: 20 8E 58  jsr $588E      ; L_588E
586F: 68        pla
5870: 85 C5     sta $C5        ; TEMPA+1
5872: A5 CC     lda $CC
5874: 85 C6     sta $C6        ; ZTEMP2
5876: 20 8E 58  jsr $588E      ; L_588E
5879: 4C 4A 58  jmp $584A      ; L_584A
587C: 20 84 58  jsr $5884      ; L_5884
587F: A5 C7     lda $C7        ; ZTEMP2+1
5881: D0 0B     bne $588E      ; L_588E
5883: 60        rts
5884: 20 8E 58  jsr $588E      ; L_588E
5887: A9 00     lda #$00
5889: 85 B0     sta $B0        ; COMCNT
588B: 4C 6C 59  jmp $596C      ; L_596C
588E: A5 C7     lda $C7        ; ZTEMP2+1
5890: F0 04     beq $5896      ; L_5896
5892: C9 06     cmp #$06
5894: D0 03     bne $5899      ; L_5899
5896: 4C A2 59  jmp $59A2      ; L_59A2
5899: C9 07     cmp #$07
589B: D0 0A     bne $58A7      ; L_58A7
589D: A5 B0     lda $B0        ; COMCNT
589F: F0 03     beq $58A4      ; L_58A4
58A1: 4C A2 59  jmp $59A2      ; L_59A2
58A4: 4C 4E 59  jmp $594E      ; L_594E
58A7: A5 B0     lda $B0        ; COMCNT
58A9: F0 13     beq $58BE      ; L_58BE
58AB: A5 C3     lda $C3        ; ERRSAV
58AD: 85 9E     sta $9E        ; CPC+1
58AF: A5 C4     lda $C4        ; TEMPA
58B1: 85 9F     sta $9F        ; LLNGTH
58B3: A5 C5     lda $C5        ; TEMPA+1
58B5: 85 96     sta $96        ; POKADR+1
58B7: A5 C6     lda $C6        ; ZTEMP2
58B9: 85 97     sta $97        ; SVESA
58BB: 4C 70 57  jmp $5770      ; L_5770
58BE: A5 C3     lda $C3        ; ERRSAV
58C0: 85 96     sta $96        ; POKADR+1
58C2: A5 C4     lda $C4        ; TEMPA
58C4: 85 97     sta $97        ; SVESA
58C6: 20 BD 56  jsr $56BD      ; L_56BD
58C9: A5 C5     lda $C5        ; TEMPA+1
58CB: 85 96     sta $96        ; POKADR+1
58CD: A5 C6     lda $C6        ; ZTEMP2
58CF: 85 97     sta $97        ; SVESA
58D1: 4C DA 56  jmp $56DA      ; L_56DA
58D4: 85 A9     sta $A9        ; OPSTKX
58D6: A0 00     ldy #$00
58D8: 84 BC     sty $BC        ; TRAPLN
58DA: 0A        asl
58DB: 26 BC     rol $BC        ; TRAPLN
58DD: 0A        asl
58DE: 26 BC     rol $BC        ; TRAPLN
58E0: 69 11     adc #$11
58E2: 85 BB     sta $BB        ; STOPLN+1
58E4: A5 BC     lda $BC        ; TRAPLN
58E6: 69 4E     adc #$4E
58E8: 85 BC     sta $BC        ; TRAPLN
58EA: B1 BB     lda ($BB),y    ; STOPLN+1
58EC: 85 AA     sta $AA        ; ARSTKX
58EE: C8        iny
58EF: B1 BB     lda ($BB),y    ; STOPLN+1
58F1: 85 AB     sta $AB        ; EXSVOP
58F3: A2 0F     ldx #$0F
58F5: A0 03     ldy #$03
58F7: A9 03     lda #$03
58F9: 85 84     sta $84        ; VNTD
58FB: 85 A7     sta $A7        ; STMLBD
58FD: B1 BB     lda ($BB),y    ; STOPLN+1
58FF: 25 A7     and $A7        ; STMLBD
5901: 9D 88 04  sta $0488,x
5904: 06 A7     asl $A7        ; STMLBD
5906: 06 A7     asl $A7        ; STMLBD
5908: CA        dex
5909: C6 84     dec $84        ; VNTD
590B: 10 F0     bpl $58FD      ; L_58FD
590D: 88        dey
590E: 10 E7     bpl $58F7      ; L_58F7
5910: 60        rts
5911: A9 FF     lda #$FF
5913: 8D FC 02  sta $02FC      ; CH
5916: 60        rts
5917: A0 08     ldy #$08
5919: A5 A6     lda $A6        ; DIRFLG
591B: F0 0C     beq $5929      ; L_5929
591D: 98        tya
591E: 20 2F 59  jsr $592F      ; L_592F
5921: 49 FF     eor #$FF
5923: 20 2F 59  jsr $592F      ; L_592F
5926: 88        dey
5927: D0 F4     bne $591D      ; L_591D
5929: A9 08     lda #$08
592B: 8D 1F D0  sta $D01F      ; CONSOL
592E: 60        rts
592F: AA        tax
5930: CA        dex
5931: D0 FD     bne $5930      ; L_5930
5933: 8D 1F D0  sta $D01F      ; CONSOL
5936: 60        rts
5937: 86 96     stx $96        ; POKADR+1
5939: 84 97     sty $97        ; SVESA
593B: 4C BD 56  jmp $56BD      ; L_56BD
593E: 86 96     stx $96        ; POKADR+1
5940: 84 97     sty $97        ; SVESA
5942: 4C DA 56  jmp $56DA      ; L_56DA
5945: A5 AD     lda $AD        ; LELNUM
5947: 85 CA     sta $CA        ; LOADFLG
5949: A9 00     lda #$00
594B: 85 AD     sta $AD        ; LELNUM
594D: 60        rts
594E: 20 45 59  jsr $5945      ; L_5945
5951: A6 C4     ldx $C4        ; TEMPA
5953: E4 C6     cpx $C6        ; ZTEMP2
5955: 90 06     bcc $595D      ; L_595D
5957: A5 C6     lda $C6        ; ZTEMP2
5959: 85 C4     sta $C4        ; TEMPA
595B: 86 C6     stx $C6        ; ZTEMP2
595D: A6 C3     ldx $C3        ; ERRSAV
595F: E4 C5     cpx $C5        ; TEMPA+1
5961: 90 06     bcc $5969      ; L_5969
5963: A5 C5     lda $C5        ; TEMPA+1
5965: 85 C3     sta $C3        ; ERRSAV
5967: 86 C5     stx $C5        ; TEMPA+1
5969: 20 71 59  jsr $5971      ; L_5971
596C: A5 CA     lda $CA        ; LOADFLG
596E: 85 AD     sta $AD        ; LELNUM
5970: 60        rts
5971: 20 54 53  jsr $5354      ; L_5354
5974: E6 C5     inc $C5        ; TEMPA+1
5976: E6 C6     inc $C6        ; ZTEMP2
5978: A5 C4     lda $C4        ; TEMPA
597A: 85 97     sta $97        ; SVESA
597C: A5 C3     lda $C3        ; ERRSAV
597E: 85 96     sta $96        ; POKADR+1
5980: 20 84 50  jsr $5084      ; L_5084
5983: E6 96     inc $96        ; POKADR+1
5985: A5 96     lda $96        ; POKADR+1
5987: C5 C5     cmp $C5        ; TEMPA+1
5989: 90 F5     bcc $5980      ; L_5980
598B: 20 81 4D  jsr $4D81      ; L_4D81
598E: D0 08     bne $5998      ; L_5998
5990: E6 97     inc $97        ; SVESA
5992: A5 97     lda $97        ; SVESA
5994: C5 C6     cmp $C6        ; ZTEMP2
5996: 90 E4     bcc $597C      ; L_597C
5998: C6 C5     dec $C5        ; TEMPA+1
599A: C6 C6     dec $C6        ; ZTEMP2
599C: A9 FF     lda #$FF
599E: 8D FC 02  sta $02FC      ; CH
59A1: 60        rts
59A2: A6 C3     ldx $C3        ; ERRSAV
59A4: A4 C4     ldy $C4        ; TEMPA
59A6: 20 37 59  jsr $5937      ; L_5937
59A9: A6 C5     ldx $C5        ; TEMPA+1
59AB: A4 C4     ldy $C4        ; TEMPA
59AD: 20 3E 59  jsr $593E      ; L_593E
59B0: A6 C5     ldx $C5        ; TEMPA+1
59B2: A4 C4     ldy $C4        ; TEMPA
59B4: 20 37 59  jsr $5937      ; L_5937
59B7: A6 C5     ldx $C5        ; TEMPA+1
59B9: A4 C6     ldy $C6        ; ZTEMP2
59BB: 20 3E 59  jsr $593E      ; L_593E
59BE: A6 C5     ldx $C5        ; TEMPA+1
59C0: A4 C6     ldy $C6        ; ZTEMP2
59C2: 20 37 59  jsr $5937      ; L_5937
59C5: A6 C3     ldx $C3        ; ERRSAV
59C7: A4 C6     ldy $C6        ; ZTEMP2
59C9: 20 3E 59  jsr $593E      ; L_593E
59CC: A6 C3     ldx $C3        ; ERRSAV
59CE: A4 C6     ldy $C6        ; ZTEMP2
59D0: 20 37 59  jsr $5937      ; L_5937
59D3: A6 C3     ldx $C3        ; ERRSAV
59D5: A4 C4     ldy $C4        ; TEMPA
59D7: 4C 3E 59  jmp $593E      ; L_593E
59DA: 85 88     sta $88        ; STMTAB
59DC: A2 00     ldx #$00
59DE: 86 89     stx $89        ; STMTAB+1
59E0: 86 8C     stx $8C        ; STARP
59E2: 86 8D     stx $8D        ; STARP+1
59E4: 4A        lsr
59E5: 90 0F     bcc $59F6      ; L_59F6
59E7: AA        tax
59E8: 18        clc
59E9: A5 88     lda $88        ; STMTAB
59EB: 65 8C     adc $8C        ; STARP
59ED: 85 8C     sta $8C        ; STARP
59EF: A5 89     lda $89        ; STMTAB+1
59F1: 65 8D     adc $8D        ; STARP+1
59F3: 85 8D     sta $8D        ; STARP+1
59F5: 8A        txa
59F6: F0 06     beq $59FE      ; L_59FE
59F8: 06 88     asl $88        ; STMTAB
59FA: 26 89     rol $89        ; STMTAB+1
59FC: 90 E6     bcc $59E4      ; L_59E4
59FE: A5 8C     lda $8C        ; STARP
5A00: A6 8D     ldx $8D        ; STARP+1
5A02: 60        rts
5A03: A5 8A     lda $8A        ; STMCUR
5A05: 85 91     sta $91        ; TOPSTK+1
5A07: A5 8B     lda $8B        ; STMCUR+1
5A09: 85 92     sta $92        ; MEOLFLG
5A0B: A9 00     lda #$00
5A0D: 85 8E     sta $8E        ; RUNSTK
5A0F: 85 90     sta $90        ; TOPSTK
5A11: 38        sec
5A12: 66 90     ror $90        ; TOPSTK
5A14: A2 06     ldx #$06
5A16: 86 85     stx $85        ; VNTD+1
5A18: A9 00     lda #$00
5A1A: 85 8F     sta $8F        ; RUNSTK+1
5A1C: 18        clc
5A1D: A5 90     lda $90        ; TOPSTK
5A1F: 65 8E     adc $8E        ; RUNSTK
5A21: 65 8E     adc $8E        ; RUNSTK
5A23: 26 8F     rol $8F        ; RUNSTK+1
5A25: 0A        asl
5A26: 26 8F     rol $8F        ; RUNSTK+1
5A28: CA        dex
5A29: 10 FA     bpl $5A25      ; L_5A25
5A2B: 85 84     sta $84        ; VNTD
5A2D: A5 91     lda $91        ; TOPSTK+1
5A2F: 38        sec
5A30: E5 84     sbc $84        ; VNTD
5A32: A8        tay
5A33: A5 92     lda $92        ; MEOLFLG
5A35: E5 8F     sbc $8F        ; RUNSTK+1
5A37: 90 0B     bcc $5A44      ; L_5A44
5A39: 85 92     sta $92        ; MEOLFLG
5A3B: 84 91     sty $91        ; TOPSTK+1
5A3D: 18        clc
5A3E: A5 8E     lda $8E        ; RUNSTK
5A40: 65 90     adc $90        ; TOPSTK
5A42: 85 8E     sta $8E        ; RUNSTK
5A44: 46 90     lsr $90        ; TOPSTK
5A46: C6 85     dec $85        ; VNTD+1
5A48: A6 85     ldx $85        ; VNTD+1
5A4A: 10 CC     bpl $5A18      ; L_5A18
5A4C: A9 00     lda #$00
5A4E: 85 8F     sta $8F        ; RUNSTK+1
5A50: 18        clc
5A51: A5 90     lda $90        ; TOPSTK
5A53: 65 8E     adc $8E        ; RUNSTK
5A55: 65 8E     adc $8E        ; RUNSTK
5A57: 26 8F     rol $8F        ; RUNSTK+1
5A59: 85 85     sta $85        ; VNTD+1
5A5B: A5 91     lda $91        ; TOPSTK+1
5A5D: 38        sec
5A5E: E5 85     sbc $85        ; VNTD+1
5A60: A5 92     lda $92        ; MEOLFLG
5A62: E5 8F     sbc $8F        ; RUNSTK+1
5A64: 90 02     bcc $5A68      ; L_5A68
5A66: E6 8E     inc $8E        ; RUNSTK
5A68: 60        rts
5A69: A5 D9     lda $D9        ; FR0+5
5A6B: 48        pha
5A6C: E6 D9     inc $D9        ; FR0+5
5A6E: 20 7A 5A  jsr $5A7A      ; L_5A7A
5A71: 68        pla
5A72: 85 D9     sta $D9        ; FR0+5
5A74: A9 FF     lda #$FF
5A76: 8D FC 02  sta $02FC      ; CH
5A79: 60        rts
5A7A: A5 DC     lda $DC        ; FRE+2
5A7C: F0 41     beq $5ABF      ; L_5ABF
5A7E: 20 54 53  jsr $5354      ; L_5354
5A81: A5 DA     lda $DA        ; FRE
5A83: 85 92     sta $92        ; MEOLFLG
5A85: A5 DB     lda $DB        ; FRE+1
5A87: 85 93     sta $93
5A89: 38        sec
5A8A: A5 DA     lda $DA        ; FRE
5A8C: E5 DC     sbc $DC        ; FRE+2
5A8E: 85 DA     sta $DA        ; FRE
5A90: A5 DB     lda $DB        ; FRE+1
5A92: E9 00     sbc #$00
5A94: 85 DB     sta $DB        ; FRE+1
5A96: B0 F2     bcs $5A8A      ; L_5A8A
5A98: 90 03     bcc $5A9D      ; L_5A9D
5A9A: 20 BF 5A  jsr $5ABF      ; L_5ABF
5A9D: 20 81 4D  jsr $4D81      ; L_4D81
5AA0: D0 D2     bne $5A74      ; L_5A74
5AA2: A5 DA     lda $DA        ; FRE
5AA4: 18        clc
5AA5: 65 DC     adc $DC        ; FRE+2
5AA7: 85 DA     sta $DA        ; FRE
5AA9: A5 DB     lda $DB        ; FRE+1
5AAB: 69 00     adc #$00
5AAD: 85 DB     sta $DB        ; FRE+1
5AAF: 05 DA     ora $DA        ; FRE
5AB1: F0 EA     beq $5A9D      ; L_5A9D
5AB3: A5 DB     lda $DB        ; FRE+1
5AB5: C5 93     cmp $93
5AB7: D0 E1     bne $5A9A      ; L_5A9A
5AB9: A5 DA     lda $DA        ; FRE
5ABB: C5 92     cmp $92        ; MEOLFLG
5ABD: 90 DB     bcc $5A9A      ; L_5A9A
5ABF: A0 00     ldy #$00
5AC1: 84 86     sty $86        ; VVTP
5AC3: 84 87     sty $87        ; VVTP+1
5AC5: 88        dey
5AC6: 84 88     sty $88        ; STMTAB
5AC8: 84 89     sty $89        ; STMTAB+1
5ACA: A5 DB     lda $DB        ; FRE+1
5ACC: 85 81     sta $81        ; LOMEM+1
5ACE: A5 DA     lda $DA        ; FRE
5AD0: 85 80     sta $80        ; LOMEM
5AD2: 0A        asl
5AD3: 85 82     sta $82        ; VNTP
5AD5: A5 81     lda $81        ; LOMEM+1
5AD7: 2A        rol
5AD8: 85 83     sta $83        ; VNTP+1
5ADA: A9 03     lda #$03
5ADC: 38        sec
5ADD: E5 82     sbc $82        ; VNTP
5ADF: 85 82     sta $82        ; VNTP
5AE1: A9 00     lda #$00
5AE3: E5 83     sbc $83        ; VNTP+1
5AE5: 85 83     sta $83        ; VNTP+1
5AE7: 20 67 5B  jsr $5B67      ; L_5B67
5AEA: 4C F0 5A  jmp $5AF0      ; L_5AF0
5AED: 20 56 5B  jsr $5B56      ; L_5B56
5AF0: 24 83     bit $83        ; VNTP+1
5AF2: 10 0F     bpl $5B03      ; L_5B03
5AF4: A5 87     lda $87        ; VVTP+1
5AF6: A4 86     ldy $86        ; VVTP
5AF8: 20 36 5B  jsr $5B36      ; L_5B36
5AFB: A9 06     lda #$06
5AFD: 20 43 5B  jsr $5B43      ; L_5B43
5B00: 4C 1F 5B  jmp $5B1F      ; L_5B1F
5B03: A5 86     lda $86        ; VVTP
5B05: 38        sec
5B06: E5 80     sbc $80        ; LOMEM
5B08: A8        tay
5B09: A5 87     lda $87        ; VVTP+1
5B0B: E5 81     sbc $81        ; LOMEM+1
5B0D: 20 36 5B  jsr $5B36      ; L_5B36
5B10: A9 0A     lda #$0A
5B12: 20 43 5B  jsr $5B43      ; L_5B43
5B15: C6 80     dec $80        ; LOMEM
5B17: A5 80     lda $80        ; LOMEM
5B19: C9 FF     cmp #$FF
5B1B: D0 02     bne $5B1F      ; L_5B1F
5B1D: C6 81     dec $81        ; LOMEM+1
5B1F: E6 86     inc $86        ; VVTP
5B21: D0 02     bne $5B25      ; L_5B25
5B23: E6 87     inc $87        ; VVTP+1
5B25: A5 87     lda $87        ; VVTP+1
5B27: C5 81     cmp $81        ; LOMEM+1
5B29: 90 C2     bcc $5AED      ; L_5AED
5B2B: D0 08     bne $5B35      ; L_5B35
5B2D: A5 86     lda $86        ; VVTP
5B2F: C5 80     cmp $80        ; LOMEM
5B31: 90 BA     bcc $5AED      ; L_5AED
5B33: F0 32     beq $5B67      ; L_5B67
5B35: 60        rts
5B36: 85 85     sta $85        ; VNTD+1
5B38: 84 84     sty $84        ; VNTD
5B3A: 06 84     asl $84        ; VNTD
5B3C: 26 85     rol $85        ; VNTD+1
5B3E: 06 84     asl $84        ; VNTD
5B40: 26 85     rol $85        ; VNTD+1
5B42: 60        rts
5B43: 18        clc
5B44: 65 84     adc $84        ; VNTD
5B46: 90 03     bcc $5B4B      ; L_5B4B
5B48: E6 85     inc $85        ; VNTD+1
5B4A: 18        clc
5B4B: 65 82     adc $82        ; VNTP
5B4D: 85 82     sta $82        ; VNTP
5B4F: A5 85     lda $85        ; VNTD+1
5B51: 65 83     adc $83        ; VNTP+1
5B53: 85 83     sta $83        ; VNTP+1
5B55: 60        rts
5B56: A5 86     lda $86        ; VVTP
5B58: A4 87     ldy $87        ; VVTP+1
5B5A: 20 A4 5B  jsr $5BA4      ; L_5BA4
5B5D: A5 80     lda $80        ; LOMEM
5B5F: A4 81     ldy $81        ; LOMEM+1
5B61: 20 82 5B  jsr $5B82      ; L_5B82
5B64: 20 DC 5B  jsr $5BDC      ; L_5BDC
5B67: A5 80     lda $80        ; LOMEM
5B69: A4 81     ldy $81        ; LOMEM+1
5B6B: 20 A4 5B  jsr $5BA4      ; L_5BA4
5B6E: A5 86     lda $86        ; VVTP
5B70: A4 87     ldy $87        ; VVTP+1
5B72: 20 82 5B  jsr $5B82      ; L_5B82
5B75: A4 8C     ldy $8C        ; STARP
5B77: A5 8A     lda $8A        ; STMCUR
5B79: C5 88     cmp $88        ; STMTAB
5B7B: D0 5B     bne $5BD8      ; L_5BD8
5B7D: C4 89     cpy $89        ; STMTAB+1
5B7F: D0 57     bne $5BD8      ; L_5BD8
5B81: 60        rts
5B82: 84 8B     sty $8B        ; STMCUR+1
5B84: 46 8B     lsr $8B        ; STMCUR+1
5B86: 6A        ror
5B87: 85 8A     sta $8A        ; STMCUR
5B89: A5 C3     lda $C3        ; ERRSAV
5B8B: 38        sec
5B8C: E5 8A     sbc $8A        ; STMCUR
5B8E: 85 8E     sta $8E        ; RUNSTK
5B90: A9 00     lda #$00
5B92: E5 8B     sbc $8B        ; STMCUR+1
5B94: 85 8F     sta $8F        ; RUNSTK+1
5B96: A5 C3     lda $C3        ; ERRSAV
5B98: 18        clc
5B99: 65 8A     adc $8A        ; STMCUR
5B9B: 85 8A     sta $8A        ; STMCUR
5B9D: A9 00     lda #$00
5B9F: 65 8B     adc $8B        ; STMCUR+1
5BA1: 85 8B     sta $8B        ; STMCUR+1
5BA3: 60        rts
5BA4: AA        tax
5BA5: 84 8D     sty $8D        ; STARP+1
5BA7: 46 8D     lsr $8D        ; STARP+1
5BA9: 6A        ror
5BAA: 46 8D     lsr $8D        ; STARP+1
5BAC: 6A        ror
5BAD: 46 8D     lsr $8D        ; STARP+1
5BAF: 6A        ror
5BB0: 85 8C     sta $8C        ; STARP
5BB2: 8A        txa
5BB3: 18        clc
5BB4: E5 8C     sbc $8C        ; STARP
5BB6: 85 90     sta $90        ; TOPSTK
5BB8: 98        tya
5BB9: E5 8D     sbc $8D        ; STARP+1
5BBB: 85 91     sta $91        ; TOPSTK+1
5BBD: A5 90     lda $90        ; TOPSTK
5BBF: 18        clc
5BC0: 65 C4     adc $C4        ; TEMPA
5BC2: 85 8C     sta $8C        ; STARP
5BC4: A5 91     lda $91        ; TOPSTK+1
5BC6: 69 00     adc #$00
5BC8: 85 8D     sta $8D        ; STARP+1
5BCA: A5 C4     lda $C4        ; TEMPA
5BCC: 38        sec
5BCD: E5 90     sbc $90        ; TOPSTK
5BCF: 85 90     sta $90        ; TOPSTK
5BD1: A9 00     lda #$00
5BD3: E5 91     sbc $91        ; TOPSTK+1
5BD5: 85 91     sta $91        ; TOPSTK+1
5BD7: 60        rts
5BD8: 85 88     sta $88        ; STMTAB
5BDA: 84 89     sty $89        ; STMTAB+1
5BDC: A2 00     ldx #$00
5BDE: A0 02     ldy #$02
5BE0: 20 F5 5B  jsr $5BF5      ; L_5BF5
5BE3: A2 04     ldx #$04
5BE5: A0 06     ldy #$06
5BE7: 20 F5 5B  jsr $5BF5      ; L_5BF5
5BEA: A2 04     ldx #$04
5BEC: A0 02     ldy #$02
5BEE: 20 F5 5B  jsr $5BF5      ; L_5BF5
5BF1: A2 00     ldx #$00
5BF3: A0 06     ldy #$06
5BF5: B5 8B     lda $8B,x      ; STMCUR+1
5BF7: D0 DE     bne $5BD7      ; L_5BD7
5BF9: B9 8B 00  lda $008B,y    ; STMCUR+1
5BFC: D0 D9     bne $5BD7      ; L_5BD7
5BFE: B5 8A     lda $8A,x      ; STMCUR
5C00: 85 96     sta $96        ; POKADR+1
5C02: B6 8A     ldx $8A,y      ; STMCUR
5C04: 86 97     stx $97        ; SVESA
5C06: A4 B0     ldy $B0        ; COMCNT
5C08: F0 03     beq $5C0D      ; L_5C0D
5C0A: 4C 84 50  jmp $5084      ; L_5084
5C0D: A4 AD     ldy $AD        ; LELNUM
5C0F: F0 F9     beq $5C0A      ; L_5C0A
5C11: A4 DC     ldy $DC        ; FRE+2
5C13: D0 F5     bne $5C0A      ; L_5C0A
5C15: E0 C0     cpx #$C0
5C17: B0 BE     bcs $5BD7      ; L_5BD7
5C19: C9 A0     cmp #$A0
5C1B: B0 BA     bcs $5BD7      ; L_5BD7
5C1D: 4C BD 56  jmp $56BD      ; L_56BD
5C20: A5 F0     lda $F0        ; FCHRFLG
5C22: 85 8C     sta $8C        ; STARP
5C24: 8D 6F 06  sta $066F
5C27: 38        sec
5C28: A5 F1     lda $F1        ; DIGRT
5C2A: E9 04     sbc #$04
5C2C: 85 8D     sta $8D        ; STARP+1
5C2E: 8D 7F 06  sta $067F
5C31: A8        tay
5C32: A2 00     ldx #$00
5C34: 18        clc
5C35: BD 6F 06  lda $066F,x
5C38: 69 28     adc #$28
5C3A: 9D 70 06  sta $0670,x
5C3D: 90 01     bcc $5C40      ; L_5C40
5C3F: C8        iny
5C40: 98        tya
5C41: 9D 80 06  sta $0680,x
5C44: E8        inx
5C45: E0 0F     cpx #$0F
5C47: D0 EB     bne $5C34      ; L_5C34
5C49: A5 8C     lda $8C        ; STARP
5C4B: A4 8D     ldy $8D        ; STARP+1
5C4D: 60        rts
5C4E: 86 8A     stx $8A        ; STMCUR
5C50: 84 8B     sty $8B        ; STMCUR+1
5C52: A5 8A     lda $8A        ; STMCUR
5C54: 18        clc
5C55: A4 8B     ldy $8B        ; STMCUR+1
5C57: 79 6F 06  adc $066F,y
5C5A: 85 8C     sta $8C        ; STARP
5C5C: B9 7F 06  lda $067F,y
5C5F: 69 00     adc #$00
5C61: 85 8D     sta $8D        ; STARP+1
5C63: 60        rts
5C64: 48        pha
5C65: 29 7F     and #$7F
5C67: A8        tay
5C68: 68        pla
5C69: C0 60     cpy #$60
5C6B: B0 06     bcs $5C73      ; L_5C73
5C6D: C0 20     cpy #$20
5C6F: B0 03     bcs $5C74      ; L_5C74
5C71: 69 40     adc #$40
5C73: 60        rts
5C74: E9 20     sbc #$20
5C76: 60        rts
5C77: 05 92     ora $92        ; MEOLFLG
5C79: 20 64 5C  jsr $5C64      ; L_5C64
5C7C: A0 00     ldy #$00
5C7E: 91 8C     sta ($8C),y    ; STARP
5C80: E6 8C     inc $8C        ; STARP
5C82: D0 02     bne $5C86      ; L_5C86
5C84: E6 8D     inc $8D        ; STARP+1
5C86: 60        rts
5C87: 85 90     sta $90        ; TOPSTK
5C89: 84 91     sty $91        ; TOPSTK+1
5C8B: A0 00     ldy #$00
5C8D: B1 90     lda ($90),y    ; TOPSTK
5C8F: E6 90     inc $90        ; TOPSTK
5C91: D0 02     bne $5C95      ; L_5C95
5C93: E6 91     inc $91        ; TOPSTK+1
5C95: C9 9B     cmp #$9B
5C97: D0 01     bne $5C9A      ; L_5C9A
5C99: 60        rts
5C9A: 20 77 5C  jsr $5C77      ; L_5C77
5C9D: 4C 8B 5C  jmp $5C8B      ; L_5C8B
5CA0: A0 00     ldy #$00
5CA2: C9 64     cmp #$64
5CA4: 90 05     bcc $5CAB      ; L_5CAB
5CA6: C8        iny
5CA7: E9 64     sbc #$64
5CA9: B0 F7     bcs $5CA2      ; L_5CA2
5CAB: 48        pha
5CAC: 98        tya
5CAD: 09 10     ora #$10
5CAF: 20 7C 5C  jsr $5C7C      ; L_5C7C
5CB2: 68        pla
5CB3: C9 0A     cmp #$0A
5CB5: 90 05     bcc $5CBC      ; L_5CBC
5CB7: C8        iny
5CB8: E9 0A     sbc #$0A
5CBA: B0 F7     bcs $5CB3      ; L_5CB3
5CBC: 48        pha
5CBD: 98        tya
5CBE: 09 10     ora #$10
5CC0: 20 7C 5C  jsr $5C7C      ; L_5C7C
5CC3: 68        pla
5CC4: 09 10     ora #$10
5CC6: 4C 7C 5C  jmp $5C7C      ; L_5C7C
5CC9: A2 00     ldx #$00
5CCB: 86 8B     stx $8B        ; STMCUR+1
5CCD: BD 6F 06  lda $066F,x
5CD0: 85 8C     sta $8C        ; STARP
5CD2: BD 7F 06  lda $067F,x
5CD5: 85 8D     sta $8D        ; STARP+1
5CD7: A9 00     lda #$00
5CD9: 85 8A     sta $8A        ; STMCUR
5CDB: A0 27     ldy #$27
5CDD: 91 8C     sta ($8C),y    ; STARP
5CDF: 88        dey
5CE0: 10 FB     bpl $5CDD      ; L_5CDD
5CE2: 60        rts
5CE3: A2 01     ldx #$01
5CE5: D0 E4     bne $5CCB      ; L_5CCB
5CE7: A9 02     lda #$02
5CE9: D0 E0     bne $5CCB      ; L_5CCB
5CEB: A2 03     ldx #$03
5CED: D0 DC     bne $5CCB      ; L_5CCB
5CEF: A2 0F     ldx #$0F
5CF1: 20 CB 5C  jsr $5CCB      ; L_5CCB
5CF4: CA        dex
5CF5: 10 FA     bpl $5CF1      ; L_5CF1
5CF7: 60        rts
5CF8: A5 8C     lda $8C        ; STARP
5CFA: D0 02     bne $5CFE      ; L_5CFE
5CFC: C6 8D     dec $8D        ; STARP+1
5CFE: C6 8C     dec $8C        ; STARP
5D00: A9 00     lda #$00
5D02: A8        tay
5D03: 91 8C     sta ($8C),y    ; STARP
5D05: 60        rts
5D06: A5 8C     lda $8C        ; STARP
5D08: D0 02     bne $5D0C      ; L_5D0C
5D0A: C6 8D     dec $8D        ; STARP+1
5D0C: C6 8C     dec $8C        ; STARP
5D0E: 60        rts
5D0F: A5 8C     lda $8C        ; STARP
5D11: 48        pha
5D12: 20 52 5C  jsr $5C52      ; L_5C52
5D15: 68        pla
5D16: 38        sec
5D17: E5 8C     sbc $8C        ; STARP
5D19: A8        tay
5D1A: A9 00     lda #$00
5D1C: 91 8C     sta ($8C),y    ; STARP
5D1E: 88        dey
5D1F: 10 FB     bpl $5D1C      ; L_5D1C
5D21: 60        rts
5D22: AD FC 02  lda $02FC      ; CH
5D25: C9 FF     cmp #$FF
5D27: F0 0B     beq $5D34      ; L_5D34
5D29: 29 3F     and #$3F
5D2B: A8        tay
5D2C: A9 FF     lda #$FF
5D2E: 8D FC 02  sta $02FC      ; CH
5D31: B9 35 5D  lda $5D35,y    ; L_5D35
5D34: 60        rts
5D35: 4C 4A 3A  jmp $3A4A
5D38: FF        BYTE $FF $FF $4B $1E $1F $4F $FF $50
5D40: 55        BYTE $55 $9B $49 $FF $FF $56 $FF $43
5D48: FF        BYTE $FF $FF $42 $58 $5A $34 $FF $33
5D50: 36        BYTE $36 $1B $35 $32 $31 $FF $20 $2E
5D58: 4E        BYTE $4E $FF $4D $FF $FF $52 $FF $45
5D60: 59        BYTE $59 $FF $54 $57 $51 $39 $FF $30
5D68: 37        BYTE $37 $7E $38 $7D $FF $46 $48 $44
5D70: FF        BYTE $FF $FF $47 $53 $41 $04 $00 $00
5D78: 3F        BYTE $3F $06 $01 $01 $04 $10 $FF $06
5D80: 01        BYTE $01 $02 $A1 $54 $FF $07 $01 $04
5D88: 15        BYTE $15 $61 $56 $8F $09 $00 $05 $11
5D90: 11        BYTE $11 $11 $11 $11 $3F $06 $04 $00
5D98: 00        BYTE $00 $00 $FF $0C $03 $03 $AA $81
5DA0: AA        BYTE $AA $06 $A0 $68 $18 $10 $FF $09
5DA8: 02        BYTE $02 $02 $A1 $88 $4A $86 $21 $A3
5DB0: 04        BYTE $04 $00 $00 $3F $04 $00 $00 $3F
5DB8: 00        BYTE $00 $01 $03 $05 $09 $0B $01 $06
5DC0: 05        BYTE $05 $09 $10 $00 $01 $01 $01 $00
5DC8: 04        BYTE $04 $03 $02 $03 $03 $00 $01 $02
5DD0: 04        BYTE $04 $05 $00 $03 $02 $04 $04 $EB
5DD8: EC        BYTE $EC $EF $F4 $FD $08 $09 $0F $1B
5DE0: 14        BYTE $14 $5D $5D $5D $5D $5D $5E $5E
5DE8: 5E        BYTE $5E $5E $5E $80 $C0 $C0 $C0 $80
5DF0: 00        BYTE $00 $00 $00 $20 $20 $00 $00 $00
5DF8: 40        BYTE $40 $00 $00 $00 $80 $80 $80 $80
5E00: 80        BYTE $80 $80 $80 $80 $80 $80 $80 $80
5E08: FF        BYTE $FF $C0 $60 $30 $18 $0C $06 $20
5E10: 50        BYTE $50 $88 $50 $20 $95 $95 $95 $D5
5E18: 85        BYTE $85 $D5 $00 $10 $10 $10 $28 $C6
5E20: 28        BYTE $28 $10 $10 $10 $2A $17 $25 $36
5E28: 37        BYTE $37 $3E $26 $12 $3A $0A $00 $05
5E30: 28        BYTE $28 $38 $10 $16 $08 $2F $55 $5F
5E38: 5E        BYTE $5E $49 $49 $41 $36 $38 $5F $5F
5E40: 5F        BYTE $5F $5F $5F $5F $5F $5F $5E $5E
5E48: 2B        BYTE $2B $2F $5A $FD $1F $24 $6D $EA
5E50: 43        BYTE $43 $49 $55 $5B $6D $83 $96 $9C
5E58: 63        BYTE $63 $63
5E5A: A5 B1     lda $B1        ; ADFLAG
5E5C: 49 01     eor #$01
5E5E: 85 B1     sta $B1        ; ADFLAG
5E60: 4C A9 3D  jmp $3DA9      ; L_3DA9
5E63: A9 00     lda #$00
5E65: 85 B0     sta $B0        ; COMCNT
5E67: 85 D9     sta $D9        ; FR0+5
5E69: 20 C8 5F  jsr $5FC8      ; L_5FC8
5E6C: 86 C3     stx $C3        ; ERRSAV
5E6E: 86 96     stx $96        ; POKADR+1
5E70: 8A        txa
5E71: 69 03     adc #$03
5E73: 85 C5     sta $C5        ; TEMPA+1
5E75: 84 C4     sty $C4        ; TEMPA
5E77: 84 C6     sty $C6        ; ZTEMP2
5E79: 84 97     sty $97        ; SVESA
5E7B: A9 7F     lda #$7F
5E7D: 85 B0     sta $B0        ; COMCNT
5E7F: A9 00     lda #$00
5E81: 85 DC     sta $DC        ; FRE+2
5E83: 20 84 50  jsr $5084      ; L_5084
5E86: 20 D0 5E  jsr $5ED0      ; L_5ED0
5E89: 20 C6 51  jsr $51C6      ; L_51C6
5E8C: A5 CB     lda $CB
5E8E: 85 C5     sta $C5        ; TEMPA+1
5E90: A5 CC     lda $CC
5E92: 85 C6     sta $C6        ; ZTEMP2
5E94: A5 E6     lda $E6        ; FR2
5E96: C9 08     cmp #$08
5E98: 90 08     bcc $5EA2      ; L_5EA2
5E9A: D0 ED     bne $5E89      ; L_5E89
5E9C: 20 21 5F  jsr $5F21      ; L_5F21
5E9F: 4C 63 5E  jmp $5E63      ; L_5E63
5EA2: C9 02     cmp #$02
5EA4: D0 15     bne $5EBB      ; L_5EBB
5EA6: 20 21 5F  jsr $5F21      ; L_5F21
5EA9: A9 00     lda #$00
5EAB: 85 B0     sta $B0        ; COMCNT
5EAD: A5 A8     lda $A8        ; STINDEX
5EAF: C9 08     cmp #$08
5EB1: F0 02     beq $5EB5      ; L_5EB5
5EB3: E6 DC     inc $DC        ; FRE+2
5EB5: 20 D0 5E  jsr $5ED0      ; L_5ED0
5EB8: 4C 63 5E  jmp $5E63      ; L_5E63
5EBB: A5 C5     lda $C5        ; TEMPA+1
5EBD: C5 9E     cmp $9E        ; CPC+1
5EBF: D0 06     bne $5EC7      ; L_5EC7
5EC1: A5 C6     lda $C6        ; ZTEMP2
5EC3: C5 9F     cmp $9F        ; LLNGTH
5EC5: F0 C2     beq $5E89      ; L_5E89
5EC7: 20 69 5A  jsr $5A69      ; L_5A69
5ECA: 20 D0 5E  jsr $5ED0      ; L_5ED0
5ECD: 4C 89 5E  jmp $5E89      ; L_5E89
5ED0: A5 C6     lda $C6        ; ZTEMP2
5ED2: 85 9F     sta $9F        ; LLNGTH
5ED4: A5 C5     lda $C5        ; TEMPA+1
5ED6: 85 9E     sta $9E        ; CPC+1
5ED8: 38        sec
5ED9: E5 C3     sbc $C3        ; ERRSAV
5EDB: B0 04     bcs $5EE1      ; L_5EE1
5EDD: 49 FF     eor #$FF
5EDF: 69 01     adc #$01
5EE1: 20 DA 59  jsr $59DA      ; L_59DA
5EE4: 85 DA     sta $DA        ; FRE
5EE6: 86 DB     stx $DB        ; FRE+1
5EE8: A5 C6     lda $C6        ; ZTEMP2
5EEA: 38        sec
5EEB: E5 C4     sbc $C4        ; TEMPA
5EED: B0 04     bcs $5EF3      ; L_5EF3
5EEF: 49 FF     eor #$FF
5EF1: 69 01     adc #$01
5EF3: 85 8C     sta $8C        ; STARP
5EF5: 4A        lsr
5EF6: 4A        lsr
5EF7: 4A        lsr
5EF8: 18        clc
5EF9: 65 8C     adc $8C        ; STARP
5EFB: 4A        lsr
5EFC: 20 DA 59  jsr $59DA      ; L_59DA
5EFF: 18        clc
5F00: 65 DA     adc $DA        ; FRE
5F02: 85 8A     sta $8A        ; STMCUR
5F04: 8A        txa
5F05: 65 DB     adc $DB        ; FRE+1
5F07: 85 8B     sta $8B        ; STMCUR+1
5F09: 20 03 5A  jsr $5A03      ; L_5A03
5F0C: A9 00     lda #$00
5F0E: 85 DB     sta $DB        ; FRE+1
5F10: A5 8E     lda $8E        ; RUNSTK
5F12: 85 DA     sta $DA        ; FRE
5F14: D0 04     bne $5F1A      ; L_5F1A
5F16: E6 DA     inc $DA        ; FRE
5F18: D0 04     bne $5F1E      ; L_5F1E
5F1A: 06 DA     asl $DA        ; FRE
5F1C: 26 DB     rol $DB        ; FRE+1
5F1E: 4C 69 5A  jmp $5A69      ; L_5A69
5F21: 20 69 5A  jsr $5A69      ; L_5A69
5F24: A5 C3     lda $C3        ; ERRSAV
5F26: 85 96     sta $96        ; POKADR+1
5F28: A5 C4     lda $C4        ; TEMPA
5F2A: 85 97     sta $97        ; SVESA
5F2C: 4C 84 50  jmp $5084      ; L_5084
5F2F: A0 00     ldy #$00
5F31: A5 D0     lda $D0
5F33: 49 FF     eor #$FF
5F35: 85 D0     sta $D0
5F37: 84 D1     sty $D1
5F39: 4C A9 3D  jmp $3DA9      ; L_3DA9
5F3C: 8A        txa
5F3D: 20 D4 58  jsr $58D4      ; L_58D4
5F40: 4C A9 3D  jmp $3DA9      ; L_3DA9
5F43: 20 73 51  jsr $5173      ; L_5173
5F46: 4C B3 3D  jmp $3DB3      ; L_3DB3
5F49: 20 C8 5F  jsr $5FC8      ; L_5FC8
5F4C: 20 B5 56  jsr $56B5      ; L_56B5
5F4F: 20 D2 56  jsr $56D2      ; L_56D2
5F52: 4C 49 5F  jmp $5F49      ; L_5F49
5F55: 20 BA 5F  jsr $5FBA      ; L_5FBA
5F58: 4C 55 5F  jmp $5F55      ; L_5F55
5F5B: 20 BA 5F  jsr $5FBA      ; L_5FBA
5F5E: A6 C5     ldx $C5        ; TEMPA+1
5F60: A4 C6     ldy $C6        ; ZTEMP2
5F62: 20 A2 5F  jsr $5FA2      ; L_5FA2
5F65: A5 E6     lda $E6        ; FR2
5F67: C9 08     cmp #$08
5F69: F0 F0     beq $5F5B      ; L_5F5B
5F6B: D0 F1     bne $5F5E      ; L_5F5E
5F6D: 20 BA 5F  jsr $5FBA      ; L_5FBA
5F70: A5 E6     lda $E6        ; FR2
5F72: C9 08     cmp #$08
5F74: F0 F7     beq $5F6D      ; L_5F6D
5F76: C9 12     cmp #$12
5F78: F0 F3     beq $5F6D      ; L_5F6D
5F7A: 20 0A 58  jsr $580A      ; L_580A
5F7D: 20 EA 5F  jsr $5FEA      ; L_5FEA
5F80: 4C 6D 5F  jmp $5F6D      ; L_5F6D
5F83: A9 09     lda #$09
5F85: 85 B3     sta $B3        ; ONLOOP
5F87: 20 5C 56  jsr $565C      ; L_565C
5F8A: 20 C8 5F  jsr $5FC8      ; L_5FC8
5F8D: 20 C3 5F  jsr $5FC3      ; L_5FC3
5F90: 20 51 4E  jsr $4E51      ; L_4E51
5F93: 4C 83 5F  jmp $5F83      ; L_5F83
5F96: 20 BA 5F  jsr $5FBA      ; L_5FBA
5F99: 4C 96 5F  jmp $5F96      ; L_5F96
5F9C: 20 BA 5F  jsr $5FBA      ; L_5FBA
5F9F: 4C 9C 5F  jmp $5F9C      ; L_5F9C
5FA2: A5 E6     lda $E6        ; FR2
5FA4: C9 08     cmp #$08
5FA6: F0 08     beq $5FB0      ; L_5FB0
5FA8: C9 12     cmp #$12
5FAA: D0 05     bne $5FB1      ; L_5FB1
5FAC: A9 08     lda #$08
5FAE: 85 E6     sta $E6        ; FR2
5FB0: 60        rts
5FB1: 20 C3 5F  jsr $5FC3      ; L_5FC3
5FB4: 20 93 4D  jsr $4D93      ; L_4D93
5FB7: 4C 1F 58  jmp $581F      ; L_581F
5FBA: A5 A8     lda $A8        ; STINDEX
5FBC: 85 C7     sta $C7        ; ZTEMP2+1
5FBE: 20 C8 5F  jsr $5FC8      ; L_5FC8
5FC1: D0 EE     bne $5FB1      ; L_5FB1
5FC3: 86 96     stx $96        ; POKADR+1
5FC5: 84 97     sty $97        ; SVESA
5FC7: 60        rts
5FC8: A5 AD     lda $AD        ; LELNUM
5FCA: 48        pha
5FCB: A5 A8     lda $A8        ; STINDEX
5FCD: C9 07     cmp #$07
5FCF: F0 04     beq $5FD5      ; L_5FD5
5FD1: C9 09     cmp #$09
5FD3: D0 0B     bne $5FE0      ; L_5FE0
5FD5: A9 00     lda #$00
5FD7: 85 AD     sta $AD        ; LELNUM
5FD9: A9 08     lda #$08
5FDB: 85 B3     sta $B3        ; ONLOOP
5FDD: 20 5C 56  jsr $565C      ; L_565C
5FE0: 20 47 51  jsr $5147      ; L_5147
5FE3: 68        pla
5FE4: 85 AD     sta $AD        ; LELNUM
5FE6: A6 CB     ldx $CB
5FE8: A4 CC     ldy $CC
5FEA: A5 E6     lda $E6        ; FR2
5FEC: C9 08     cmp #$08
5FEE: F0 05     beq $5FF5      ; L_5FF5
5FF0: C9 12     cmp #$12
5FF2: F0 01     beq $5FF5      ; L_5FF5
5FF4: 60        rts
5FF5: 4C B3 3D  jmp $3DB3      ; L_3DB3


; BLOCK 2 koala.xex

0000: 02        BYTE $02


; BLOCK 3 koala.xex

02E2: 15 33     WORD $3315     ; START
