

; BLOCK 1 Arkanoid.xex

1000: 00                         BYTE $00 $00 $00 $00 $00 $00 $00 $00
1008: 00        L_1008           BYTE $00 $00 $00 $00 $01 $01 $05 $07
1010: 00                         BYTE $00 $00 $05 $55 $70 $E0 $80 $80
1018: 00                         BYTE $00 $55 $EF $55 $EA $00 $00 $00
1020: 00                         BYTE $00 $55 $FF $55 $AA $00 $00 $00
1028: 40                         BYTE $40 $14 $5E $57 $19 $00 $00 $00
1030: 05                         BYTE $05 $01 $60 $58 $55 $91 $00 $00
1038: 58                         BYTE $58 $75 $6E $5A $16 $05 $00 $00
1040: 78                         BYTE $78 $78 $78 $79 $79 $79 $79 $79
1048: 00                         BYTE $00 $00 $00 $40 $50 $D4 $E4 $64
1050: 10                         BYTE $10 $54 $65 $99 $A6 $A9 $AA $7A
1058: 06                         BYTE $06 $1E $19 $2C $34 $14 $10 $00
1060: 00                         BYTE $00 $00 $00 $02 $02 $02 $02 $02
1068: 25                         BYTE $25 $95 $A5 $16 $59 $2A $5A $2A
1070: 55                         BYTE $55 $55 $99 $66 $AB $EF $BF $FF
1078: 55                         BYTE $55 $55 $99 $66 $A9 $FE $FF $FE
1080: 54                         BYTE $54 $55 $96 $65 $95 $A9 $A5 $A9
1088: 00                         BYTE $00 $00 $00 $80 $80 $60 $20 $60
1090: 68                         BYTE $68 $58 $5E $1E $1E $16 $17 $07
1098: 00                         BYTE $00 $00 $00 $00 $02 $02 $02 $02
10A0: 00                         BYTE $00 $2A $AA $A0 $80 $85 $15 $14
10A8: 00                         BYTE $00 $A8 $AA $0A $02 $52 $54 $14
10B0: 00                         BYTE $00 $00 $00 $00 $80 $80 $80 $80
10B8: 00                         BYTE $00 $AA $AA $00 $00 $55 $55 $00
10C0: 01                         BYTE $01 $01 $01 $01 $00 $00 $00 $00
10C8: 28                         BYTE $28 $2A $4A $40 $50 $55 $15 $00
10D0: 28                         BYTE $28 $A8 $A1 $01 $05 $55 $54 $00
10D8: 40                         BYTE $40 $40 $40 $40 $00 $00 $00 $00
10E0: 00                         BYTE $00 $AA $AA $00 $00 $55 $55 $00
10E8: 68                         BYTE $68 $58 $1E $1E $1E $16 $17 $07
10F0: 3D                         BYTE $3D $29 $14 $00 $00 $40 $40 $44
10F8: 11                         BYTE $11 $44 $51 $94 $66 $99 $66 $AA
1100: 15                         BYTE $15 $51 $16 $59 $66 $99 $6A $AA
1108: 05                         BYTE $05 $55 $66 $99 $66 $AA $AE $BA
1110: 99                         BYTE $99 $46 $51 $44 $25 $0A $00 $00
1118: AE                         BYTE $AE $6B $AE $6B $9E $67 $55 $05
1120: EE                         BYTE $EE $BB $FF $FF $FF $BE $6B $55
1128: EE                         BYTE $EE $BB $FF $FF $FF $FF $A9 $55
1130: EA                         BYTE $EA $B9 $EA $B9 $EA $99 $55 $50
1138: 66                         BYTE $66 $91 $55 $92 $48 $A0 $00 $00
1140: 3D                         BYTE $3D $29 $14 $00 $05 $15 $5D $74
1148: 00                         BYTE $00 $00 $00 $00 $01 $01 $05 $07
1150: 00                         BYTE $00 $00 $00 $05 $57 $BE $6A $50
1158: 00                         BYTE $00 $05 $57 $7D $EA $95 $54 $00
1160: 05                         BYTE $05 $56 $F9 $56 $A9 $50 $05 $00
1168: 94                         BYTE $94 $54 $51 $45 $16 $69 $80 $00
1170: 02                         BYTE $02 $02 $02 $02 $02 $02 $02 $02
1178: 14                         BYTE $14 $14 $14 $14 $14 $14 $14 $14
1180: 28                         BYTE $28 $28 $28 $28 $28 $28 $28 $28
1188: 40                         BYTE $40 $40 $40 $40 $40 $40 $40 $40
1190: 0C                         BYTE $0C $09 $0C $09 $0C $09 $0C $0C
1198: 5A                         BYTE $5A $6A $5A $6A $45 $15 $56 $68
11A0: BF                         BYTE $BF $FF $BF $FE $AA $6A $A0 $00
11A8: FF                         BYTE $FF $FE $FF $AE $AA $A9 $0A $00
11B0: A5                         BYTE $A5 $A9 $A5 $A9 $51 $54 $95 $29
11B8: 60                         BYTE $60 $A0 $A0 $20 $20 $20 $A0 $60
11C0: 29                         BYTE $29 $29 $14 $00 $80 $68 $94 $40
11C8: A9                         BYTE $A9 $69 $99 $64 $59 $18 $15 $04
11D0: A6                         BYTE $A6 $56 $A6 $A6 $55 $52 $01 $56
11D8: 19                         BYTE $19 $00 $15 $00 $22 $19 $06 $01
11E0: 00                         BYTE $00 $25 $11 $19 $00 $11 $11 $19
11E8: 08                         BYTE $08 $00 $01 $00 $05 $05 $00 $08
11F0: 00                         BYTE $00 $00 $9A $00 $9A $9A $00 $00
11F8: 00                         BYTE $00 $00 $50 $00 $64 $64 $00 $00
1200: 00                         BYTE $00 $00 $00 $00 $00 $14 $29 $15
1208: 04                         BYTE $04 $15 $18 $59 $64 $99 $69 $A9
1210: 56                         BYTE $56 $05 $55 $56 $A5 $56 $A6 $A6
1218: 19                         BYTE $19 $00 $15 $00 $22 $19 $06 $01
1220: A2                         BYTE $A2 $A2 $00 $80 $80 $00 $00 $00
1228: A0                         BYTE $A0 $08 $02 $02 $0A $0A $20 $0A
1230: AA                         BYTE $AA $AA $A8 $A8 $A2 $00 $A2 $A2
1238: 0A                         BYTE $0A $20 $8A $8A $A2 $A2 $08 $A0
1240: 29                         BYTE $29 $29 $14 $00 $80 $68 $94 $40
1248: A8                         BYTE $A8 $63 $8C $43 $4F $0F $13 $04
1250: 00                         BYTE $00 $C5 $0F $C5 $C5 $CF $C5 $00
1258: 00                         BYTE $00 $55 $FF $55 $55 $FF $55 $00
1260: 00                         BYTE $00 $53 $F0 $53 $53 $F3 $53 $00
1268: 29                         BYTE $29 $C9 $31 $C0 $F1 $F0 $C5 $04
1270: A6                         BYTE $A6 $56 $A6 $A6 $55 $52 $01 $56
1278: 19                         BYTE $19 $00 $15 $00 $22 $19 $06 $01
1280: 06                         BYTE $06 $06 $06 $01 $01 $01 $00 $00
1288: 46                         BYTE $46 $51 $51 $91 $91 $94 $64 $64
1290: 0D                         BYTE $0D $0A $0E $08 $0C $28 $2A $25
1298: 80                         BYTE $80 $00 $00 $00 $00 $A8 $56 $55
12A0: 00                         BYTE $00 $00 $00 $01 $05 $06 $85 $66
12A8: 00                         BYTE $00 $00 $00 $40 $50 $50 $92 $99
12B0: 02                         BYTE $02 $00 $00 $00 $00 $2A $95 $55
12B8: 60                         BYTE $60 $A0 $A0 $20 $20 $20 $A8 $68
12C0: 0C                         BYTE $0C $58 $47 $93 $47 $91 $66 $94
12C8: 31                         BYTE $31 $35 $32 $35 $32 $35 $32 $35
12D0: 66                         BYTE $66 $9A $BB $AF $BF $AF $BF $AF
12D8: E5                         BYTE $E5 $E7 $E6 $D7 $DA $57 $5B $60
12E0: DA                         BYTE $DA $9B $DB $97 $F5 $E5 $E5 $09
12E8: 66                         BYTE $66 $B9 $EA $FD $FA $FE $FA $FE
12F0: 5C                         BYTE $5C $5C $4C $9C $4C $9C $4C $9C
12F8: 04                         BYTE $04 $11 $11 $04 $11 $04 $11 $11
1300: 3D                         BYTE $3D $29 $14 $00 $05 $15 $5D $75
1308: 31                         BYTE $31 $36 $35 $35 $3C $09 $09 $0B
1310: BF                         BYTE $BF $AF $BF $AF $7F $AB $6F $1B
1318: 40                         BYTE $40 $80 $00 $00 $00 $07 $7B $6E
1320: 01                         BYTE $01 $02 $00 $00 $00 $D0 $6D $B9
1328: FA                         BYTE $FA $FE $FA $FE $E9 $E6 $99 $A5
1330: 4C                         BYTE $4C $9C $5C $4C $20 $60 $20 $A0
1338: 64                         BYTE $64 $55 $15 $05 $00 $14 $29 $15
1340: 54                         BYTE $54 $90 $D0 $D0 $90 $90 $90 $54
1348: 02                         BYTE $02 $02 $02 $02 $0A $0A $09 $09
1350: 6A                         BYTE $6A $1E $56 $1A $46 $55 $86 $96
1358: A9        L_1358           BYTE $A9 $A0 $80 $80 $A0 $E0 $E4 $BA
1360: 6A                         BYTE $6A $0A $02 $02 $0A $0B $1B $AC
1368: 99                         BYTE $99 $64 $91 $64 $95 $62 $96 $92
1370: 80                         BYTE $80 $C0 $80 $C0 $A0 $70 $60 $70
1378: 64                         BYTE $64 $55 $15 $05 $00 $14 $29 $15
1380: 0D                         BYTE $0D $0D $39 $38 $35 $34 $35 $34
1388: A5                         BYTE $A5 $66 $A9 $6E $AA $6F $AB $6F
1390: 9B                         BYTE $9B $66 $A4 $69 $5A $96 $EA $BA
1398: E6                         BYTE $E6 $9A $19 $6A $A9 $96 $AA $AB
13A0: 56                         BYTE $56 $5A $59 $6A $B9 $AA $F9 $EA
13A8: 70                         BYTE $70 $70 $70 $6C $1C $5C $1C $5C
13B0: 3D                         BYTE $3D $29 $14 $00 $05 $15 $5D $74
13B8: 25                         BYTE $25 $08 $09 $02 $02 $01 $09 $28
13C0: 5F                         BYTE $5F $6B $59 $55 $99 $86 $21 $44
13C8: EE                         BYTE $EE $FF $FF $BF $AE $6A $99 $65
13D0: EF                         BYTE $EF $FF $FF $FE $E9 $E6 $99 $66
13D8: F9                         BYTE $F9 $E5 $94 $65 $91 $56 $48 $11
13E0: 18                         BYTE $18 $60 $60 $80 $80 $40 $60 $68
13E8: 64                         BYTE $64 $55 $15 $05 $00 $14 $29 $15
13F0: 54                         BYTE $54 $90 $D0 $D0 $90 $90 $90 $54
13F8: 21                         BYTE $21 $25 $D1 $C6 $95 $46 $D9 $46
1400: 00                         BYTE $00 $00 $00 $00 $00 $00 $00 $00
1408: AC        L_1408           BYTE $AC $EB $A6 $E9 $FA $BE $6A $9A
1410: 3A                         BYTE $3A $EA $9B $6A $AB $BE $AA $A9
1418: BD                         BYTE $BD $EC $AB $EA $FA $BE $6A $9A
1420: 6E                         BYTE $6E $3A $FB $AA $AB $BE $AA $A9
1428: A9                         BYTE $A9 $A0 $80 $A8 $B6 $AD $AC $AB
1430: 6A                         BYTE $6A $0A $02 $1A $AA $BA $3A $EA
1438: A9                         BYTE $A9 $A0 $80 $80 $A0 $A4 $BA $AD
1440: 6A                         BYTE $6A $0A $02 $02 $0A $1A $AE $7E
1448: A9                         BYTE $A9 $A0 $80 $80 $A0 $E0 $E4 $BA
1450: 6A                         BYTE $6A $0A $02 $02 $0A $0B $1B $AC
1458: 00                         BYTE $00 $00 $00 $00 $00 $00 $00 $00
1460: 81                         BYTE $81 $82 $83 $84 $85 $86 $87 $88
1468: 89                         BYTE $89 $C0 $8B $0C $0D $0E $0F $10
1470: 11                         BYTE $11 $92 $9D $9E $80 $32 $33 $34
1478: 35                         BYTE $35 $36 $37 $80 $D0 $D1 $80 $52
1480: 53                         BYTE $53 $54 $55 $56 $57 $80 $80 $EF
1488: 80                         BYTE $80 $59 $5A $5B $5C $5D $5E $80
1490: 80                         BYTE $80 $E0 $80 $61 $62 $63 $64 $65
1498: 66                         BYTE $66 $80 $80 $E8 $80 $69 $6A $6B
14A0: 6C                         BYTE $6C $6D $6E $80 $80 $EF $80 $70
14A8: 71                         BYTE $71 $72 $73 $74 $75 $80 $80 $F6
14B0: 80                         BYTE $80 $77 $78 $79 $7A $7B $7C $80
14B8: 80                         BYTE $80 $FE $80 $7F $0A $1F $20 $21
14C0: 58                         BYTE $58 $80 $80 $EF $80 $22 $23 $24
14C8: 25                         BYTE $25 $26 $27 $80 $80 $A8 $80 $80
14D0: 80                         BYTE $80 $80 $80 $A9 $AA $AB $AC $AD
14D8: 0C        L_14D8           BYTE $0C $0C $0C $0C $0C $0C $0C $0C
14E0: 0C        L_14E0           BYTE $0C $0C $0C $0C $0C $0C $0C $0C
14E8: 0C                         BYTE $0C $0C $0C $0C $0C $0C $0C $0C
14F0: 0C                         BYTE $0C $0C $0C $0C $0C $0C $0C $0C
14F8: 0C        L_14F8           BYTE $0C $0C $0C $0C $00 $00 $00 $00
1500: 20 18 40                   jsr $4018     ; L_4018
1503: A2 00     L_1503           ldx #$00
1505: BD 08 14  L_1505           lda $1408,x   ; L_1408
1508: 9D 58 13                   sta $1358,x   ; L_1358
150B: E8                         inx
150C: E0 10                      cpx #$10
150E: D0 F5                      bne $1505     ; L_1505
1510: A2 D8                      ldx #$D8
1512: A0 14                      ldy #$14
1514: 8E 22 3C                   stx $3C22     ; BRICK_COLORS_L
1517: 8C 23 3C                   sty $3C23     ; BRICK_COLORS_H
151A: A9 10                      lda #$10
151C: 8D F4 02                   sta $02F4     ; CHBAS
151F: A2 E6                      ldx #$E6
1521: A0 EA                      ldy #$EA
1523: A9 EC                      lda #$EC
1525: 8E C4 02                   stx $02C4     ; COLOR0
1528: 8C C5 02                   sty $02C5     ; COLOR1
152B: 8D C6 02                   sta $02C6     ; COLOR2
152E: A2 2E                      ldx #$2E
1530: A0 9B                      ldy #$9B
1532: 86 DE                      stx $DE       ; FRE+4
1534: 84 DF                      sty $DF       ; FRE+5
1536: A9 38                      lda #$38
1538: 85 FF                      sta $FF       ; FPTR2+1
153A: A2 00                      ldx #$00
153C: 86 FE                      stx $FE       ; FPTR2
153E: 86 FC                      stx $FC       ; FLPTR
1540: 86 FD                      stx $FD       ; FLPTR+1
1542: A0 00     L_1542           ldy #$00
1544: A5 FF     L_1544           lda $FF       ; FPTR2+1
1546: 91 DE                      sta ($DE),y   ; FRE+4
1548: E6 FF                      inc $FF       ; FPTR2+1
154A: C8                         iny
154B: E6 FC                      inc $FC       ; FLPTR
154D: A5 FC                      lda $FC       ; FLPTR
154F: C9 04                      cmp #$04
1551: D0 F1                      bne $1544     ; L_1544
1553: A9 00                      lda #$00
1555: 85 FC                      sta $FC       ; FLPTR
1557: 98                         tya
1558: 18                         clc
1559: 69 24                      adc #$24
155B: A8                         tay
155C: E8                         inx
155D: E0 03                      cpx #$03
155F: D0 E3                      bne $1544     ; L_1544
1561: 98                         tya
1562: 38                         sec
1563: E9 74                      sbc #$74
1565: A8                         tay
1566: A2 00                      ldx #$00
1568: E6 FE                      inc $FE       ; FPTR2
156A: A9 38                      lda #$38
156C: 85 FF                      sta $FF       ; FPTR2+1
156E: A5 FE                      lda $FE       ; FPTR2
1570: C9 07                      cmp #$07
1572: D0 D0                      bne $1544     ; L_1544
1574: A9 00                      lda #$00
1576: 85 FE                      sta $FE       ; FPTR2
1578: A5 DE                      lda $DE       ; FRE+4
157A: 18                         clc
157B: 69 78                      adc #$78
157D: 85 DE                      sta $DE       ; FRE+4
157F: 90 02                      bcc $1583     ; L_1583
1581: E6 DF                      inc $DF       ; FRE+5
1583: E6 FD     L_1583           inc $FD       ; FLPTR+1
1585: A5 FD                      lda $FD       ; FLPTR+1
1587: C9 09                      cmp #$09
1589: D0 B7                      bne $1542     ; L_1542
158B: A2 2E                      ldx #$2E
158D: A0 9B                      ldy #$9B
158F: 86 DE                      stx $DE       ; FRE+4
1591: 84 DF                      sty $DF       ; FRE+5
1593: A2 00                      ldx #$00
1595: A0 00     L_1595           ldy #$00
1597: A9 0C                      lda #$0C
1599: 9D D8 14                   sta $14D8,x   ; L_14D8
159C: 9D E0 14                   sta $14E0,x   ; L_14E0
159F: A9 2E                      lda #$2E
15A1: 91 DE                      sta ($DE),y   ; FRE+4
15A3: C8                         iny
15A4: A9 2F                      lda #$2F
15A6: 91 DE                      sta ($DE),y   ; FRE+4
15A8: A0 1C                      ldy #$1C
15AA: A9 30                      lda #$30
15AC: 91 DE                      sta ($DE),y   ; FRE+4
15AE: C8                         iny
15AF: A9 31                      lda #$31
15B1: 91 DE                      sta ($DE),y   ; FRE+4
15B3: A5 DE                      lda $DE       ; FRE+4
15B5: 18                         clc
15B6: 69 28                      adc #$28
15B8: 85 DE                      sta $DE       ; FRE+4
15BA: 90 02                      bcc $15BE     ; L_15BE
15BC: E6 DF                      inc $DF       ; FRE+5
15BE: E8        L_15BE           inx
15BF: E0 1A                      cpx #$1A
15C1: D0 D2                      bne $1595     ; L_1595
15C3: A2 01                      ldx #$01
15C5: A0 9C                      ldy #$9C
15C7: 86 DE                      stx $DE       ; FRE+4
15C9: 84 DF                      sty $DF       ; FRE+5
15CB: A2 60                      ldx #$60
15CD: A0 14                      ldy #$14
15CF: 86 DC                      stx $DC       ; FRE+2
15D1: 80                         BYTE $80 $DD
15D3: A2 00                      ldx #$00
15D5: A0 00     L_15D5           ldy #$00
15D7: B1 DC     L_15D7           lda ($DC),y   ; FRE+2
15D9: 91 DE                      sta ($DE),y   ; FRE+4
15DB: C8                         iny
15DC: C0 0A                      cpy #$0A
15DE: D0 F7                      bne $15D7     ; L_15D7
15E0: A5 DE                      lda $DE       ; FRE+4
15E2: 18                         clc
15E3: 69 28                      adc #$28
15E5: 85 DE                      sta $DE       ; FRE+4
15E7: 90 02                      bcc $15EB     ; L_15EB
15E9: E6 DF                      inc $DF       ; FRE+5
15EB: A5 DC     L_15EB           lda $DC       ; FRE+2
15ED: 18                         clc
15EE: 69 0A                      adc #$0A
15F0: 85 DC                      sta $DC       ; FRE+2
15F2: 90 02                      bcc $15F6     ; L_15F6
15F4: E6 DD                      inc $DD       ; FRE+3
15F6: E8        L_15F6           inx
15F7: E0 0C                      cpx #$0C
15F9: D0 DA                      bne $15D5     ; L_15D5
15FB: A2 00                      ldx #$00
15FD: A9 17     L_15FD           lda #$17
15FF: 9D 08 9B                   sta $9B08,x
1602: A9 1C                      lda #$1C
1604: 9D 40 9F                   sta $9F40,x
1607: E8                         inx
1608: E0 1A                      cpx #$1A
160A: D0 F1                      bne $15FD     ; L_15FD
160C: A9 2A                      lda #$2A
160E: 8D 00 17                   sta $1700     ; L_16FD+3
1611: A9 00                      lda #$00
1613: 8D 01 17                   sta $1701     ; L_16FD+4
1616: 8D 66 1A                   sta $1A66     ; L_1A66
1619: 8D 67 1A                   sta $1A67     ; L_1A67
161C: 8D 00 1B                   sta $1B00     ; L_1B00
161F: 8D 01 1B                   sta $1B01     ; L_1B00+1
1622: A9 08                      lda #$08
1624: 8D 02 17                   sta $1702     ; L_16FD+5
1627: A9 14                      lda #$14
1629: 8D 03 17                   sta $1703     ; L_16FD+6
162C: A2 18                      ldx #$18
162E: 8E 3E 9F                   stx $9F3E
1631: E8                         inx
1632: 8E 3F 9F                   stx $9F3F
1635: A9 12                      lda #$12
1637: 8D 40 44                   sta $4440     ; L_443F+1
163A: A9 10                      lda #$10
163C: 8D 53 44                   sta $4453     ; L_4452+1
163F: AE 3F 45                   ldx $453F     ; L_453E+1
1642: AC 40 45                   ldy $4540     ; L_453E+2
1645: 8E B3 16                   stx $16B3     ; L_16B2+1
1648: 8C B4 16                   sty $16B4     ; L_16B2+2
164B: 20 D5 43                   jsr $43D5     ; L_43D5
164E: A2 00                      ldx #$00
1650: 8A                         txa
1651: 8D 04 17                   sta $1704     ; L_16FD+7
1654: 8D 05 17                   sta $1705     ; L_1705
1657: 8D 06 17                   sta $1706     ; L_1705+1
165A: 9D 69 17  L_165A           sta $1769,x   ; L_1765+4
165D: E8                         inx
165E: E0 1A                      cpx #$1A
1660: D0 F8                      bne $165A     ; L_165A
1662: A2 00                      ldx #$00
1664: A0 38                      ldy #$38
1666: 98        L_1666           tya
1667: 9D 00 44                   sta $4400,x   ; L_43FD+3
166A: 9D 04 44                   sta $4404,x   ; L_43FD+7
166D: E8                         inx
166E: C8                         iny
166F: E0 04                      cpx #$04
1671: D0 F3                      bne $1666     ; L_1666
1673: A9 00                      lda #$00
1675: 8D 70 50                   sta $5070
1678: A9 B4                      lda #$B4
167A: 8D 71 50                   sta $5071
167D: 4C 13 51                   jmp $5113
1680: 20 08 2C  L_1680           jsr $2C08     ; L_2C03+5
1683: 4C 03 50                   jmp $5003
1686: 70 50                      bvs $16D8     ; L_16D7+1
1688: A9 B4                      lda #$B4
168A: 8D 71 50                   sta $5071
168D: 4C E4 1C                   jmp $1CE4     ; L_1CE4
1690: AD 24 3C  L_1690           lda $3C24     ; ROW_INDEX
1693: C9 1C                      cmp #$1C
1695: 30 0D                      bmi $16A4     ; L_16A4
1697: 20 FD 46                   jsr $46FD     ; L_46FD
169A: AD 24 3C                   lda $3C24     ; ROW_INDEX
169D: C9 2A                      cmp #$2A
169F: 30 03                      bmi $16A4     ; L_16A4
16A1: 20 83 17                   jsr $1783     ; L_1783
16A4: AD 25 3C  L_16A4           lda $3C25     ; TIMER_MAYBE
16A7: F0 E7                      beq $1690     ; L_1690
16A9: 20 CB 44                   jsr $44CB     ; L_44CB
16AC: 20 F1 44                   jsr $44F1     ; L_44F1
16AF: 20 FD 46                   jsr $46FD     ; L_46FD
16B2: 20 FF FF  L_16B2           jsr $FFFF
16B5: 20 D0 1C                   jsr $1CD0     ; L_1CD0
16B8: 20 80 16                   jsr $1680     ; L_1680
16BB: AD 66 1A                   lda $1A66     ; L_1A66
16BE: C9 10                      cmp #$10
16C0: 10 18                      bpl $16DA     ; L_16DA
16C2: AD 0B 46                   lda $460B     ; L_4607+4
16C5: C9 6A                      cmp #$6A
16C7: B0 27                      bcs $16F0     ; L_16F0
16C9: A2 00                      ldx #$00
16CB: BD 75 17  L_16CB           lda $1775,x   ; L_1775
16CE: C9 60                      cmp #$60
16D0: 10 0B                      bpl $16DD     ; L_16DD
16D2: E8        L_16D2           inx
16D3: E0 03                      cpx #$03
16D5: D0 F4                      bne $16CB     ; L_16CB
16D7: 4C 90 16  L_16D7           jmp $1690     ; L_1690
16DA: 4C A0 1B  L_16DA           jmp $1BA0     ; L_1BA0
16DD: AD 09 44  L_16DD           lda $4409     ; L_4405+4
16E0: 18                         clc
16E1: 69 2E                      adc #$2E
16E3: DD 72 17                   cmp $1772,x   ; L_176D+5
16E6: B0 EA                      bcs $16D2     ; L_16D2
16E8: 18                         clc
16E9: 69 18                      adc #$18
16EB: DD 72 17                   cmp $1772,x   ; L_176D+5
16EE: 90 E2                      bcc $16D2     ; L_16D2
16F0: A9 8A     L_16F0           lda #$8A
16F2: 8D 40 44                   sta $4440     ; L_443F+1
16F5: A9 88                      lda #$88
16F7: 8D 53 44                   sta $4453     ; L_4452+1
16FA: 4C 00 30                   jmp $3000     ; L_3000
16FD: 00        L_16FD           BYTE $00 $00 $00 $00 $00 $58 $14 $00
1705: 00        L_1705           BYTE $00 $00 $30 $78 $FC $7C $90 $68
170D: 30                         BYTE $30 $00 $60 $F8 $BC $7C $5C $20
1715: 1C                         BYTE $1C $00 $60 $F0 $B8 $58 $3C $2C
171D: 10                         BYTE $10 $00 $C0 $60 $F0 $30 $58 $2C
1725: 10                         BYTE $10 $00 $00 $80 $C0 $60 $30 $18
172D: 08        L_172D           BYTE $08 $00 $00 $80 $60 $B0 $58 $28
1735: 14                         BYTE $14 $08 $00 $60 $90 $60 $F0 $78
173D: 78                         BYTE $78 $30 $60 $90 $68 $F0 $F8 $F0
1745: 70        L_1745           BYTE $70 $00 $12 $11 $10 $0F $0E $0D
174D: 0A                         BYTE $0A $0A $0A $09 $08 $07 $06 $05
1755: 01                         BYTE $01 $03 $02 $01 $00 $01 $02 $03
175D: 04                         BYTE $04 $05 $06 $07 $08 $09 $0A $0B
1765: 0C        L_1765           BYTE $0C $0D $0E $0F $81 $00 $00 $7F
176D: 00        L_176D           BYTE $00 $00 $01 $00 $00 $81 $00 $00
1775: 3E        L_1775           BYTE $3E $00 $00 $01 $00 $00 $15 $00
177D: 00        L_177D           BYTE $00 $05 $00 $00 $01 $02
1783: AE 81 17  L_1783           ldx $1781     ; L_177D+4
1786: A9 01                      lda #$01
1788: 8D 6F 02                   sta $026F     ; GPRIOR
178B: BD 6F 17                   lda $176F,x   ; L_176D+2
178E: F0 11                      beq $17A1     ; L_17A1
1790: C9 02                      cmp #$02
1792: F0 03                      beq $1797     ; L_1797
1794: 4C C8 18                   jmp $18C8     ; L_18C8
1797: A0 00     L_1797           ldy #$00
1799: C8        L_1799           iny
179A: C0 1E                      cpy #$1E
179C: D0 FB                      bne $1799     ; L_1799
179E: 4C 92 19                   jmp $1992     ; L_1992
17A1: AD 02 17  L_17A1           lda $1702     ; L_16FD+5
17A4: C9 58                      cmp #$58
17A6: F0 4C                      beq $17F4     ; L_17F4
17A8: AD 00 17                   lda $1700     ; L_16FD+3
17AB: F0 06                      beq $17B3     ; L_17B3
17AD: CE 00 17                   dec $1700     ; L_16FD+3
17B0: 4C 92 19                   jmp $1992     ; L_1992
17B3: AD 6F 17  L_17B3           lda $176F     ; L_176D+2
17B6: D0 3C                      bne $17F4     ; L_17F4
17B8: EE 01 17                   inc $1701     ; L_16FD+4
17BB: AD 01 17                   lda $1701     ; L_16FD+4
17BE: C9 14                      cmp #$14
17C0: B0 06                      bcs $17C8     ; L_17C8
17C2: EE 01 17                   inc $1701     ; L_16FD+4
17C5: 4C 92 19                   jmp $1992     ; L_1992
17C8: A9 00     L_17C8           lda #$00
17CA: 8D 01 17                   sta $1701     ; L_16FD+4
17CD: AD 02 17                   lda $1702     ; L_16FD+5
17D0: 85 DC                      sta $DC       ; FRE+2
17D2: AD 03 17                   lda $1703     ; L_16FD+6
17D5: 85 DD                      sta $DD       ; FRE+3
17D7: A0 00                      ldy #$00
17D9: B1 DC     L_17D9           lda ($DC),y   ; FRE+2
17DB: 99 58 13                   sta $1358,y   ; L_1358
17DE: C8                         iny
17DF: C0 10                      cpy #$10
17E1: D0 F6                      bne $17D9     ; L_17D9
17E3: AD 02 17                   lda $1702     ; L_16FD+5
17E6: 18                         clc
17E7: 69 10                      adc #$10
17E9: 8D 02 17                   sta $1702     ; L_16FD+5
17EC: 90 03                      bcc $17F1     ; L_17F1
17EE: EE 03 17                   inc $1703     ; L_16FD+6
17F1: 4C 92 19  L_17F1           jmp $1992     ; L_1992
17F4: E0 00     L_17F4           cpx #$00
17F6: F0 11                      beq $1809     ; L_1809
17F8: 8E 82 17                   stx $1782     ; L_177D+5
17FB: CA                         dex
17FC: BD 75 17                   lda $1775,x   ; L_1775
17FF: C9 41                      cmp #$41
1801: B0 03                      bcs $1806     ; L_1806
1803: 4C 97 17                   jmp $1797     ; L_1797
1806: AE 82 17  L_1806           ldx $1782     ; L_177D+5
1809: AD 09 44  L_1809           lda $4409     ; L_4405+4
180C: 4A                         lsr
180D: 4A                         lsr
180E: 8E 82 17                   stx $1782     ; L_177D+5
1811: AA                         tax
1812: BD 47 17                   lda $1747,x   ; L_1745+2
1815: 85 DE                      sta $DE       ; FRE+4
1817: 85 DC                      sta $DC       ; FRE+2
1819: 86 DD                      stx $DD       ; FRE+3
181B: AE 82 17                   ldx $1782     ; L_177D+5
181E: A9 0B                      lda #$0B
1820: 85 DF                      sta $DF       ; FRE+5
1822: A9 01                      lda #$01
1824: 9D 69 17                   sta $1769,x   ; L_1765+4
1827: 9D 6C 17                   sta $176C,x   ; L_1765+7
182A: 9D 6F 17                   sta $176F,x   ; L_176D+2
182D: A5 DE                      lda $DE       ; FRE+4
182F: D0 0D                      bne $183E     ; L_183E
1831: A9 7F                      lda #$7F
1833: 9D 6C 17                   sta $176C,x   ; L_1765+7
1836: A9 01                      lda #$01
1838: 9D 69 17                   sta $1769,x   ; L_1765+4
183B: 4C 77 18                   jmp $1877     ; L_1877
183E: C5 DF     L_183E           cmp $DF       ; FRE+5
1840: 10 18                      bpl $185A     ; L_185A
1842: A5 DF     L_1842           lda $DF       ; FRE+5
1844: 38                         sec
1845: E5 DE                      sbc $DE       ; FRE+4
1847: 85 DF                      sta $DF       ; FRE+5
1849: FE 6C 17                   inc $176C,x   ; L_1765+7
184C: A5 DF                      lda $DF       ; FRE+5
184E: C5 DE                      cmp $DE       ; FRE+4
1850: 10 F0                      bpl $1842     ; L_1842
1852: A9 01                      lda #$01
1854: 9D 69 17                   sta $1769,x   ; L_1765+4
1857: 4C 77 18                   jmp $1877     ; L_1877
185A: A5 DF     L_185A           lda $DF       ; FRE+5
185C: 8D 82 17                   sta $1782     ; L_177D+5
185F: AD 82 17  L_185F           lda $1782     ; L_177D+5
1862: 18                         clc
1863: 65 DF                      adc $DF       ; FRE+5
1865: 8D 82 17                   sta $1782     ; L_177D+5
1868: FE 69 17                   inc $1769,x   ; L_1765+4
186B: A5 DE                      lda $DE       ; FRE+4
186D: CD 82 17                   cmp $1782     ; L_177D+5
1870: 10 ED                      bpl $185F     ; L_185F
1872: A9 01                      lda #$01
1874: 9D 6C 17                   sta $176C,x   ; L_1765+7
1877: A5 DD     L_1877           lda $DD       ; FRE+3
1879: C9 12                      cmp #$12
187B: 30 08                      bmi $1885     ; L_1885
187D: BD 69 17                   lda $1769,x   ; L_1765+4
1880: 09 80                      ora #$80
1882: 9D 69 17                   sta $1769,x   ; L_1765+4
1885: A9 80     L_1885           lda #$80
1887: A0 6E                      ldy #$6E
1889: 85 DC                      sta $DC       ; FRE+2
188B: 84 DD                      sty $DD       ; FRE+3
188D: 8A                         txa
188E: A8                         tay
188F: C0 00     L_188F           cpy #$00
1891: F0 0F                      beq $18A2     ; L_18A2
1893: A5 DC                      lda $DC       ; FRE+2
1895: 18                         clc
1896: 69 80                      adc #$80
1898: 85 DC                      sta $DC       ; FRE+2
189A: 90 02                      bcc $189E     ; L_189E
189C: E6 DD                      inc $DD       ; FRE+3
189E: 88        L_189E           dey
189F: 4C 8F 18                   jmp $188F     ; L_188F
18A2: A9 81     L_18A2           lda #$81
18A4: 9D 01 D0                   sta $D001,x   ; HPOSP1
18A7: 9D 72 17                   sta $1772,x   ; L_176D+5
18AA: A9 0F                      lda #$0F
18AC: 9D C1 02                   sta $02C1,x   ; PCOLR1
18AF: A0 34                      ldy #$34
18B1: 98                         tya
18B2: 9D 75 17                   sta $1775,x   ; L_1775
18B5: A2 00                      ldx #$00
18B7: BD 07 17  L_18B7           lda $1707,x   ; L_1705+2
18BA: 91 DC                      sta ($DC),y   ; FRE+2
18BC: C8                         iny
18BD: E8                         inx
18BE: E0 08                      cpx #$08
18C0: D0 F5                      bne $18B7     ; L_18B7
18C2: AE 82 17                   ldx $1782     ; L_177D+5
18C5: 4C 92 19                   jmp $1992     ; L_1992
18C8: A9 80     L_18C8           lda #$80
18CA: A0 6E                      ldy #$6E
18CC: 85 DC                      sta $DC       ; FRE+2
18CE: 84 DD                      sty $DD       ; FRE+3
18D0: 8A                         txa
18D1: A8                         tay
18D2: C0 00     L_18D2           cpy #$00
18D4: F0 0F                      beq $18E5     ; L_18E5
18D6: A5 DC                      lda $DC       ; FRE+2
18D8: 18                         clc
18D9: 69 80                      adc #$80
18DB: 85 DC                      sta $DC       ; FRE+2
18DD: 90 02                      bcc $18E1     ; L_18E1
18DF: E6 DD                      inc $DD       ; FRE+3
18E1: 88        L_18E1           dey
18E2: 4C D2 18                   jmp $18D2     ; L_18D2
18E5: BD 75 17  L_18E5           lda $1775,x   ; L_1775
18E8: C9 6A                      cmp #$6A
18EA: 90 2A                      bcc $1916     ; L_1916
18EC: A9 00                      lda #$00
18EE: 9D 72 17                   sta $1772,x   ; L_176D+5
18F1: 9D 01 D0                   sta $D001,x   ; HPOSP1
18F4: FE 6F 17                   inc $176F,x   ; L_176D+2
18F7: BD 75 17                   lda $1775,x   ; L_1775
18FA: A8                         tay
18FB: 8E 82 17                   stx $1782     ; L_177D+5
18FE: A2 00                      ldx #$00
1900: 8A                         txa
1901: 91 DC     L_1901           sta ($DC),y   ; FRE+2
1903: C8                         iny
1904: E8                         inx
1905: E0 08                      cpx #$08
1907: D0 F8                      bne $1901     ; L_1901
1909: AE 82 17                   ldx $1782     ; L_177D+5
190C: E0 02                      cpx #$02
190E: F0 03                      beq $1913     ; L_1913
1910: 4C 92 19                   jmp $1992     ; L_1992
1913: 4C E8 19  L_1913           jmp $19E8     ; L_19E8
1916: BD 6C 17  L_1916           lda $176C,x   ; L_1765+7
1919: DD 7B 17                   cmp $177B,x   ; L_1775+6
191C: F0 08                      beq $1926     ; L_1926
191E: 30 06                      bmi $1926     ; L_1926
1920: FE 7B 17                   inc $177B,x   ; L_1775+6
1923: 4C 3B 19                   jmp $193B     ; L_193B
1926: A9 00     L_1926           lda #$00
1928: 9D 7B 17                   sta $177B,x   ; L_1775+6
192B: BD 69 17                   lda $1769,x   ; L_1765+4
192E: 29 80                      and #$80
1930: D0 06                      bne $1938     ; L_1938
1932: DE 72 17                   dec $1772,x   ; L_176D+5
1935: 4C 3B 19                   jmp $193B     ; L_193B
1938: FE 72 17  L_1938           inc $1772,x   ; L_176D+5
193B: BD 72 17  L_193B           lda $1772,x   ; L_176D+5
193E: 9D 01 D0                   sta $D001,x   ; HPOSP1
1941: BD 69 17                   lda $1769,x   ; L_1765+4
1944: 29 7F                      and #$7F
1946: F0 0D                      beq $1955     ; L_1955
1948: DD 78 17                   cmp $1778,x   ; L_1775+3
194B: F0 08                      beq $1955     ; L_1955
194D: 30 06                      bmi $1955     ; L_1955
194F: FE 78 17                   inc $1778,x   ; L_1775+3
1952: 4C 92 19                   jmp $1992     ; L_1992
1955: A9 00     L_1955           lda #$00
1957: 9D 78 17                   sta $1778,x   ; L_1775+3
195A: BD 75 17                   lda $1775,x   ; L_1775
195D: A8                         tay
195E: A9 00                      lda #$00
1960: 91 DC                      sta ($DC),y   ; FRE+2
1962: C8                         iny
1963: 98                         tya
1964: 9D 75 17                   sta $1775,x   ; L_1775
1967: 8E 82 17                   stx $1782     ; L_177D+5
196A: A9 07                      lda #$07
196C: 8D 88 19                   sta $1988     ; L_1987+1
196F: A9 17                      lda #$17
1971: 8D 89 19                   sta $1989     ; L_1987+2
1974: BD 7E 17                   lda $177E,x   ; L_177D+1
1977: 18                         clc
1978: 0A                         asl
1979: 0A                         asl
197A: 0A                         asl
197B: 18                         clc
197C: 6D 88 19                   adc $1988     ; L_1987+1
197F: 8D 88 19                   sta $1988     ; L_1987+1
1982: 20 13 1A                   jsr $1A13     ; L_1A13
1985: A2 00                      ldx #$00
1987: BD 2F 17  L_1987           lda $172F,x   ; L_172D+2
198A: 91 DC                      sta ($DC),y   ; FRE+2
198C: C8                         iny
198D: E8                         inx
198E: E0 08                      cpx #$08
1990: D0 F5                      bne $1987     ; L_1987
1992: AE 81 17  L_1992           ldx $1781     ; L_177D+4
1995: E0 02                      cpx #$02
1997: D0 02                      bne $199B     ; L_199B
1999: A2 FF                      ldx #$FF
199B: E8        L_199B           inx
199C: 8E 81 17                   stx $1781     ; L_177D+4
199F: AD 71 17                   lda $1771     ; L_176D+4
19A2: D0 01                      bne $19A5     ; L_19A5
19A4: 60        L_19A4           rts
19A5: AD 77 17  L_19A5           lda $1777     ; L_1775+2
19A8: C9 3A                      cmp #$3A
19AA: 90 F8                      bcc $19A4     ; L_19A4
19AC: AD 02 17                   lda $1702     ; L_16FD+5
19AF: C9 08                      cmp #$08
19B1: F0 F1                      beq $19A4     ; L_19A4
19B3: AD 01 17                   lda $1701     ; L_16FD+4
19B6: C9 0F                      cmp #$0F
19B8: B0 04                      bcs $19BE     ; L_19BE
19BA: EE 01 17                   inc $1701     ; L_16FD+4
19BD: 60                         rts
19BE: A9 00     L_19BE           lda #$00
19C0: 8D 01 17                   sta $1701     ; L_16FD+4
19C3: AD 02 17                   lda $1702     ; L_16FD+5
19C6: 38                         sec
19C7: E9 10                      sbc #$10
19C9: 8D 02 17                   sta $1702     ; L_16FD+5
19CC: B0 03                      bcs $19D1     ; L_19D1
19CE: CE 03 17                   dec $1703     ; L_16FD+6
19D1: AD 02 17  L_19D1           lda $1702     ; L_16FD+5
19D4: 85 DC                      sta $DC       ; FRE+2
19D6: AD 03 17                   lda $1703     ; L_16FD+6
19D9: 85 DD                      sta $DD       ; FRE+3
19DB: A0 00                      ldy #$00
19DD: B1 DC     L_19DD           lda ($DC),y   ; FRE+2
19DF: 99 58 13                   sta $1358,y   ; L_1358
19E2: C8                         iny
19E3: C0 10                      cpy #$10
19E5: D0 F6                      bne $19DD     ; L_19DD
19E7: 60                         rts
19E8: A9 00     L_19E8           lda #$00
19EA: 8D 01 17                   sta $1701     ; L_16FD+4
19ED: A0 00                      ldy #$00
19EF: 99 6F 17  L_19EF           sta $176F,y   ; L_176D+2
19F2: 99 04 17                   sta $1704,y   ; L_16FD+7
19F5: 99 7B 17                   sta $177B,y   ; L_1775+6
19F8: 99 78 17                   sta $1778,y   ; L_1775+3
19FB: 99 72 17                   sta $1772,y   ; L_176D+5
19FE: 99 75 17                   sta $1775,y   ; L_1775
1A01: C8                         iny
1A02: C0 03                      cpy #$03
1A04: D0 E9                      bne $19EF     ; L_19EF
1A06: A9 08                      lda #$08
1A08: 8D 02 17                   sta $1702     ; L_16FD+5
1A0B: A9 14                      lda #$14
1A0D: 8D 03 17                   sta $1703     ; L_16FD+6
1A10: 4C 92 19                   jmp $1992     ; L_1992
1A13: BD 34 1A  L_1A13           lda $1A34,x   ; L_1A34
1A16: C9 01                      cmp #$01
1A18: B0 04                      bcs $1A1E     ; L_1A1E
1A1A: FE 34 1A                   inc $1A34,x   ; L_1A34
1A1D: 60                         rts
1A1E: A9 00     L_1A1E           lda #$00
1A20: 9D 34 1A                   sta $1A34,x   ; L_1A34
1A23: BD 7E 17                   lda $177E,x   ; L_177D+1
1A26: C9 07                      cmp #$07
1A28: F0 04                      beq $1A2E     ; L_1A2E
1A2A: FE 7E 17                   inc $177E,x   ; L_177D+1
1A2D: 60                         rts
1A2E: A9 00     L_1A2E           lda #$00
1A30: 9D 7E 17                   sta $177E,x   ; L_177D+1
1A33: 60                         rts
1A34: 01        L_1A34           BYTE $01 $01 $01 $00 $00 $00 $00 $00
1A3C: 00                         BYTE $00 $00 $00 $00 $00 $00 $00 $00
1A44: 00                         BYTE $00 $00 $00 $00 $00 $00 $00 $00
1A4C: 00                         BYTE $00 $00 $00 $00 $00 $00 $00 $00
1A54: 00                         BYTE $00 $00 $00 $00 $00 $00 $00 $00
1A5C: 00                         BYTE $00 $00 $00 $00
1A60: 4C B7 1A  L_1A60           jmp $1AB7     ; L_1AB7
1A63: 4C DA 1A  L_1A63           jmp $1ADA     ; L_1ADA
1A66: 00        L_1A66           brk
1A67: 00        L_1A67           brk
1A68: 00        L_1A68           brk
1A69: 00        L_1A69           brk
1A6A: 00        L_1A6A           brk
1A6B: 8C 69 1A  L_1A6B           sty $1A69     ; L_1A69
1A6E: A9 00                      lda #$00
1A70: 8D 68 1A                   sta $1A68     ; L_1A68
1A73: B1 DE                      lda ($DE),y   ; FRE+4
1A75: C9 2E                      cmp #$2E
1A77: F0 1B                      beq $1A94     ; L_1A94
1A79: C9 2F                      cmp #$2F
1A7B: F0 17                      beq $1A94     ; L_1A94
1A7D: C9 30                      cmp #$30
1A7F: F0 13                      beq $1A94     ; L_1A94
1A81: C9 31                      cmp #$31
1A83: F0 0F                      beq $1A94     ; L_1A94
1A85: A2 13                      ldx #$13
1A87: 8A        L_1A87           txa
1A88: D1 DE                      cmp ($DE),y   ; FRE+4
1A8A: F0 08                      beq $1A94     ; L_1A94
1A8C: E8                         inx
1A8D: E0 1D                      cpx #$1D
1A8F: D0 F6                      bne $1A87     ; L_1A87
1A91: 4C 9A 1A                   jmp $1A9A     ; L_1A9A
1A94: A9 01     L_1A94           lda #$01
1A96: 8D 68 1A                   sta $1A68     ; L_1A68
1A99: 60                         rts
1A9A: AC 69 1A  L_1A9A           ldy $1A69     ; L_1A69
1A9D: B1 DE                      lda ($DE),y   ; FRE+4
1A9F: 29 80                      and #$80
1AA1: D0 13                      bne $1AB6     ; L_1AB6
1AA3: A9 03                      lda #$03
1AA5: 20 00 25                   jsr $2500     ; L_2500
1AA8: A2 03                      ldx #$03
1AAA: 20 B4 3B                   jsr $3BB4     ; L_3BB0+4
1AAD: EE 67 1A                   inc $1A67     ; L_1A67
1AB0: EE 66 1A                   inc $1A66     ; L_1A66
1AB3: 4C 94 1A                   jmp $1A94     ; L_1A94
1AB6: 60        L_1AB6           rts
1AB7: 8E 6A 1A  L_1AB7           stx $1A6A     ; L_1A6A
1ABA: AD 00 40                   lda $4000     ; L_3FFD+3
1ABD: C9 20                      cmp #$20
1ABF: D0 10                      bne $1AD1     ; L_1AD1
1AC1: 20 6B 1A                   jsr $1A6B     ; L_1A6B
1AC4: AE 6A 1A                   ldx $1A6A     ; L_1A6A
1AC7: AD 68 1A                   lda $1A68     ; L_1A68
1ACA: D0 05                      bne $1AD1     ; L_1AD1
1ACC: A6 DC                      ldx $DC       ; FRE+2
1ACE: 4C A1 48                   jmp $48A1     ; L_48A1
1AD1: 20 8D 4A  L_1AD1           jsr $4A8D     ; L_4A8D
1AD4: AE 6A 1A                   ldx $1A6A     ; L_1A6A
1AD7: 4C 20 49                   jmp $4920     ; L_4920
1ADA: 8E 6A 1A  L_1ADA           stx $1A6A     ; L_1A6A
1ADD: AD 00 40                   lda $4000     ; L_3FFD+3
1AE0: C9 20                      cmp #$20
1AE2: D0 0D                      bne $1AF1     ; L_1AF1
1AE4: 20 6B 1A                   jsr $1A6B     ; L_1A6B
1AE7: A6 DC                      ldx $DC       ; FRE+2
1AE9: AD 68 1A                   lda $1A68     ; L_1A68
1AEC: D0 03                      bne $1AF1     ; L_1AF1
1AEE: 4C D4 47                   jmp $47D4     ; L_47D4
1AF1: 20 8D 4A  L_1AF1           jsr $4A8D     ; L_4A8D
1AF4: AE 6A 1A                   ldx $1A6A     ; L_1A6A
1AF7: 4C 4D 49                   jmp $494D     ; L_494D
1AFA: C9 75                      cmp #$75
1AFC: 30 12                      bmi $1B10     ; L_1B0F+1
1AFE: C9 90                      cmp #$90
1B00: 01 00     L_1B00           ora ($00,x)   ; LNFLG
1B02: AD 66 1A  L_1B02           lda $1A66     ; L_1A66
1B05: C9 0F                      cmp #$0F
1B07: 10 06                      bpl $1B0F     ; L_1B0F
1B09: AD 67 1A                   lda $1A67     ; L_1A67
1B0C: D0 01                      bne $1B0F     ; L_1B0F
1B0E: 60        L_1B0E           rts
1B0F: EE 00 1B  L_1B0F           inc $1B00     ; L_1B00
1B12: AD 00 1B                   lda $1B00     ; L_1B00
1B15: C9 03                      cmp #$03
1B17: 30 F5                      bmi $1B0E     ; L_1B0E
1B19: A9 00                      lda #$00
1B1B: 8D 00 1B                   sta $1B00     ; L_1B00
1B1E: AD 66 1A                   lda $1A66     ; L_1A66
1B21: C9 0F                      cmp #$0F
1B23: 10 34                      bpl $1B59     ; L_1B57+2
1B25: AE 01 1B                   ldx $1B01     ; L_1B00+1
1B28: E0 03                      cpx #$03
1B2A: F0 12                      beq $1B3E     ; L_1B3E
1B2C: BD 47 1B                   lda $1B47,x   ; L_1B47
1B2F: A2 00     L_1B2F           ldx #$00
1B31: 9D D8 14  L_1B31           sta $14D8,x   ; L_14D8
1B34: E8                         inx
1B35: E8                         inx
1B36: E0 24     L_1B36           cpx #$24
1B38: D0 F7                      bne $1B31     ; L_1B31
1B3A: EE 01 1B                   inc $1B01     ; L_1B00+1
1B3D: 60                         rts
1B3E: A9 00     L_1B3E           lda #$00
1B40: 8D 67 1A                   sta $1A67     ; L_1A67
1B43: 8D 01 1B                   sta $1B01     ; L_1B00+1
1B46: 60                         rts
1B47: 3E        L_1B47           BYTE $3E $3A $0C $F0 $F2 $F4 $F6 $F8
1B4F: FA                         BYTE $FA $FC $FE $FE $FC $FA $F8 $F6
1B57: F4        L_1B57           BYTE $F4 $F2 $AE $01 $1B
1B5C: E0 0F                      cpx #$0F
1B5E: 10 06                      bpl $1B66     ; L_1B66
1B60: BD 4A 1B                   lda $1B4A,x   ; L_1B47+3
1B63: 4C 2F 1B                   jmp $1B2F     ; L_1B2F
1B66: A9 1D     L_1B66           lda #$1D
1B68: 8D 00 1B                   sta $1B00     ; L_1B00
1B6B: 4C 3E 1B                   jmp $1B3E     ; L_1B3E
1B6E: A9 1D                      lda #$1D
1B70: 8D 00 1B                   sta $1B00     ; L_1B00
1B73: 4C 37 1B                   jmp $1B37     ; L_1B36+1
1B76: 00                         BYTE $00 $00 $00 $00 $00 $00 $00 $00
1B7E: 00                         BYTE $00 $00 $00 $00 $00 $00 $00 $00
1B86: 00                         BYTE $00 $00 $00 $00 $00 $00 $00 $00
1B8E: 00                         BYTE $00 $00 $00 $00 $00 $00 $00 $00
1B96: 00                         BYTE $00 $00 $00 $00 $00 $00 $00 $00
1B9E: 00                         BYTE $00 $00
1BA0: A2 00     L_1BA0           ldx #$00
1BA2: 8E C0 02                   stx $02C0     ; PCOLR0
1BA5: 8E C1 02                   stx $02C1     ; PCOLR1
1BA8: 8E C2 02                   stx $02C2     ; PCOLR2
1BAB: 8E 1D D0                   stx $D01D     ; GRACTL
1BAE: 8E 00 D0                   stx $D000     ; HPOSP0
1BB1: 8E 01 D0                   stx $D001     ; HPOSP1
1BB4: 8E 02 D0                   stx $D002     ; HPOSP2
1BB7: 8E 03 D0                   stx $D003     ; HPOSP3
1BBA: A2 00                      ldx #$00
1BBC: 8A                         txa
1BBD: 9D 00 6E  L_1BBD           sta $6E00,x
1BC0: 9D 00 6F                   sta $6F00,x
1BC3: E8                         inx
1BC4: D0 F7                      bne $1BBD     ; L_1BBD
1BC6: 8E 1D D0                   stx $D01D     ; GRACTL
1BC9: A9 FF                      lda #$FF
1BCB: 8D 08 D0                   sta $D008     ; SIZEP0
1BCE: A9 09                      lda #$09
1BD0: 20 00 25                   jsr $2500     ; L_2500
1BD3: A9 0C                      lda #$0C
1BD5: 9D D8 14  L_1BD5           sta $14D8,x   ; L_14D8
1BD8: E8                         inx
1BD9: E0 24                      cpx #$24
1BDB: D0 F8                      bne $1BD5     ; L_1BD5
1BDD: A2 00                      ldx #$00
1BDF: A0 00     L_1BDF           ldy #$00
1BE1: C8        L_1BE1           iny
1BE2: D0 FD                      bne $1BE1     ; L_1BE1
1BE4: E8                         inx
1BE5: D0 F8                      bne $1BDF     ; L_1BDF
1BE7: A2 00     L_1BE7           ldx #$00
1BE9: BD E2 14  L_1BE9           lda $14E2,x   ; L_14E0+2
1BEC: C9 06                      cmp #$06
1BEE: 10 08                      bpl $1BF8     ; L_1BF8
1BF0: BD E4 14                   lda $14E4,x   ; L_14E0+4
1BF3: F0 03                      beq $1BF8     ; L_1BF8
1BF5: DE E4 14                   dec $14E4,x   ; L_14E0+4
1BF8: AD E2 14  L_1BF8           lda $14E2     ; L_14E0+2
1BFB: F0 03                      beq $1C00     ; L_1C00
1BFD: CE E2 14                   dec $14E2     ; L_14E0+2
1C00: E8        L_1C00           inx
1C01: E8                         inx
1C02: E0 1C                      cpx #$1C
1C04: D0 E3                      bne $1BE9     ; L_1BE9
1C06: 86 DC                      stx $DC       ; FRE+2
1C08: 84 DD                      sty $DD       ; FRE+3
1C0A: A2 00                      ldx #$00
1C0C: A0 00     L_1C0C           ldy #$00
1C0E: C8        L_1C0E           iny
1C0F: D0 FD                      bne $1C0E     ; L_1C0E
1C11: E8                         inx
1C12: E0 14                      cpx #$14
1C14: D0 F6                      bne $1C0C     ; L_1C0C
1C16: A6 DC                      ldx $DC       ; FRE+2
1C18: A4 DD                      ldy $DD       ; FRE+3
1C1A: AD FA 14                   lda $14FA     ; L_14F8+2
1C1D: D0 C8                      bne $1BE7     ; L_1BE7
1C1F: A9 03                      lda #$03
1C21: 8D 1D D0                   sta $D01D     ; GRACTL
1C24: A0 20                      ldy #$20
1C26: A2 75                      ldx #$75
1C28: 8E 00 D0                   stx $D000     ; HPOSP0
1C2B: A2 77                      ldx #$77
1C2D: 8E 01 D0                   stx $D001     ; HPOSP1
1C30: A2 84                      ldx #$84
1C32: 8E 02 D0                   stx $D002     ; HPOSP2
1C35: A2 00                      ldx #$00
1C37: A9 7E     L_1C37           lda #$7E
1C39: 99 00 6E                   sta $6E00,y
1C3C: 99 80 6E                   sta $6E80,y
1C3F: 99 00 6F                   sta $6F00,y
1C42: C8                         iny
1C43: 86 DC                      stx $DC       ; FRE+2
1C45: 84 DD                      sty $DD       ; FRE+3
1C47: A2 00                      ldx #$00
1C49: A0 00     L_1C49           ldy #$00
1C4B: C8        L_1C4B           iny
1C4C: D0 FD                      bne $1C4B     ; L_1C4B
1C4E: E8                         inx
1C4F: E0 1C                      cpx #$1C
1C51: D0 F6                      bne $1C49     ; L_1C49
1C53: A6 DC                      ldx $DC       ; FRE+2
1C55: A4 DD                      ldy $DD       ; FRE+3
1C57: A5 DE                      lda $DE       ; FRE+4
1C59: 18                         clc
1C5A: 69 28                      adc #$28
1C5C: 85 DE                      sta $DE       ; FRE+4
1C5E: 90 02                      bcc $1C62     ; L_1C62
1C60: E6 DF                      inc $DF       ; FRE+5
1C62: E8        L_1C62           inx
1C63: E0 28                      cpx #$28
1C65: D0 D0                      bne $1C37     ; L_1C37
1C67: A9 00                      lda #$00
1C69: 8D F4 31                   sta $31F4     ; LIVES
1C6C: A9 8A                      lda #$8A
1C6E: 8D 40 44                   sta $4440     ; L_443F+1
1C71: A9 88                      lda #$88
1C73: 8D 53 44                   sta $4453     ; L_4452+1
1C76: 4C 53 33                   jmp $3353     ; L_3353
1C79: 00                         BYTE $00 $00 $00 $00 $00 $00 $00 $00
1C81: 00                         BYTE $00 $00 $00 $00 $00 $00 $00 $00
1C89: 00                         BYTE $00 $00 $00 $00 $00 $00 $00 $00
1C91: 00                         BYTE $00 $00 $00 $00 $00 $00 $00 $00
1C99: 00                         BYTE $00 $00 $00 $00 $00 $00 $00 $00
1CA1: 00                         BYTE $00 $00 $00 $00 $00 $00 $00 $00
1CA9: 00                         BYTE $00 $00 $00 $00 $00 $00 $00 $00
1CB1: 00                         BYTE $00 $00 $00 $00 $00 $00 $00 $00
1CB9: 00                         BYTE $00 $00 $00 $00 $00 $00 $00 $00
1CC1: 00                         BYTE $00 $00 $00 $00 $00 $00 $00 $00
1CC9: 00                         BYTE $00 $00 $00 $00 $00 $00 $00
1CD0: 20 02 1B  L_1CD0           jsr $1B02     ; L_1B02
1CD3: A0 00                      ldy #$00
1CD5: A2 00     L_1CD5           ldx #$00
1CD7: E8        L_1CD7           inx
1CD8: D0 FD                      bne $1CD7     ; L_1CD7
1CDA: C8                         iny
1CDB: C0 04                      cpy #$04
1CDD: D0 F6                      bne $1CD5     ; L_1CD5
1CDF: A9 00                      lda #$00
1CE1: 85 4D                      sta $4D       ; ATRACT
1CE3: 60                         rts
1CE4: 20 13 51  L_1CE4           jsr $5113
1CE7: A9 0C                      lda #$0C
1CE9: 8D 74 50                   sta $5074
1CEC: 60                         rts
1CED: 00                         BYTE $00 $00 $00 $00 $00 $00 $00 $00
1CF5: 00                         BYTE $00 $00 $00 $00 $00 $00 $00 $00
1CFD: 00                         BYTE $00 $00 $00 $00 $00 $00 $00 $00
1D05: 00                         BYTE $00 $00 $00 $00 $00 $00 $00 $00
1D0D: 00                         BYTE $00 $00 $00 $00 $00 $00 $00 $00
1D15: 00                         BYTE $00 $00 $00 $00 $00 $00 $00 $00
1D1D: 00                         BYTE $00 $00 $00 $00 $00 $00 $00 $00
1D25: 00                         BYTE $00 $00 $00 $00 $00 $00 $00 $00
1D2D: 00                         BYTE $00 $00 $00 $00 $00 $00 $00 $00
1D35: 00                         BYTE $00 $00 $00 $00 $00 $00 $00 $00
1D3D: 00                         BYTE $00 $00 $00 $00 $00 $00 $00 $00
1D45: 00                         BYTE $00 $00 $00 $00 $00 $00 $00 $00
1D4D: 00                         BYTE $00 $00 $00 $00 $00 $00 $00 $00
1D55: 00                         BYTE $00 $00 $00 $00 $00 $00 $00 $00
1D5D: 00                         BYTE $00 $00 $00 $00 $00 $00 $00 $00
1D65: 00                         BYTE $00 $00 $00 $00 $00 $00 $00 $00
1D6D: 00                         BYTE $00 $00 $00 $00 $00 $00 $00 $00
1D75: 00                         BYTE $00 $00 $00 $00 $00 $00 $00 $00
1D7D: 00                         BYTE $00 $00 $00 $00 $00 $00 $00 $00
1D85: 00                         BYTE $00 $00 $00 $00 $00 $00 $00 $00
1D8D: 00                         BYTE $00 $00 $00 $00 $00 $00 $00 $00
1D95: 00                         BYTE $00 $00 $00 $00 $00 $00 $00 $00
1D9D: 00                         BYTE $00 $00 $00 $00 $00 $00 $00 $00
1DA5: 00                         BYTE $00 $00 $00 $00 $00 $00 $00 $00
1DAD: 00                         BYTE $00 $00 $00 $00 $00 $00 $00 $00
1DB5: 00                         BYTE $00 $00 $00 $00 $00 $00 $00 $00
1DBD: 00                         BYTE $00 $00 $00 $00 $00 $00 $00 $00
1DC5: 00                         BYTE $00 $00 $00 $00 $00 $00 $00 $00
1DCD: 00                         BYTE $00 $00 $00 $00 $00 $00 $00 $00
1DD5: 00                         BYTE $00 $00 $00 $00 $00 $00 $00 $00
1DDD: 00                         BYTE $00 $00 $00 $00 $00 $00 $00 $00
1DE5: 00                         BYTE $00 $00 $00 $00 $00 $00 $00 $00
1DED: 00                         BYTE $00 $00 $00 $00 $00 $00 $00 $00
1DF5: 00                         BYTE $00 $00 $00 $00 $00 $00 $00 $00
1DFD: 00                         BYTE $00 $00 $00 $00 $00 $00 $00 $00
1E05: 00                         BYTE $00 $00 $00 $00 $00 $00 $00 $00
1E0D: 00                         BYTE $00 $00 $00 $00 $00 $00 $00 $00
1E15: 00                         BYTE $00 $00 $00 $00 $00 $00 $00 $00
1E1D: 00                         BYTE $00 $00 $00 $00 $00 $00 $00 $00
1E25: 00                         BYTE $00 $00 $00 $00 $00 $00 $00 $00
1E2D: 00                         BYTE $00 $00 $00 $00 $00 $00 $00 $00
1E35: 00                         BYTE $00 $00 $00 $00 $00 $00 $00 $00
1E3D: 00                         BYTE $00 $00 $00 $00 $00 $00 $00 $00
1E45: 00                         BYTE $00 $00 $00 $00 $00 $00 $00 $00
1E4D: 00                         BYTE $00 $00 $00 $00 $00 $00 $00 $00
1E55: 00                         BYTE $00 $00 $00 $00 $00 $00 $00 $00
1E5D: 00                         BYTE $00 $00 $00 $00 $00 $00 $00 $00
1E65: 00                         BYTE $00 $00 $00 $00 $00 $00 $00 $00
1E6D: 00                         BYTE $00 $00 $00 $00 $00 $00 $00 $00
1E75: 00                         BYTE $00 $00 $00 $00 $00 $00 $00 $00
1E7D: 00                         BYTE $00 $00 $00 $00 $00 $00 $00 $00
1E85: 00                         BYTE $00 $00 $00 $00 $00 $00 $00 $00
1E8D: 00                         BYTE $00 $00 $00 $00 $00 $00 $00 $00
1E95: 00                         BYTE $00 $00 $00 $00 $00 $00 $00 $00
1E9D: 00                         BYTE $00 $00 $00 $00 $00 $00 $00 $00
1EA5: 00                         BYTE $00 $00 $00 $00 $00 $00 $00 $00
1EAD: 00                         BYTE $00 $00 $00 $00 $00 $00 $00 $00
1EB5: 00                         BYTE $00 $00 $00 $00 $00 $00 $00 $00
1EBD: 00                         BYTE $00 $00 $00 $00 $00 $00 $00 $00
1EC5: 00                         BYTE $00 $00 $00 $00 $00 $00 $00 $00
1ECD: 00                         BYTE $00 $00 $00 $00 $00 $00 $00 $00
1ED5: 00                         BYTE $00 $00 $00 $00 $00 $00 $00 $00
1EDD: 00                         BYTE $00 $00 $00 $00 $00 $00 $00 $00
1EE5: 00                         BYTE $00 $00 $00 $00 $00 $00 $00 $00
1EED: 00                         BYTE $00 $00 $00 $00 $00 $00 $00 $00
1EF5: 00        L_1EF5           BYTE $00 $00 $00 $00 $00 $00 $00 $00
1EFD: 00                         BYTE $00 $00 $00
1F00: 0A        L_1F00           asl
1F01: 8D 2D 02                   sta $022D     ; INTEMP
1F04: 8A        L_1F04           txa
1F05: A2 05     L_1F05           ldx #$05
1F07: 8D 0A D4                   sta $D40A     ; WSYNC
1F0A: EA        L_1F0A           nop
1F0B: CA        L_1F0B           dex
1F0C: D0 FD                      bne $1F0B     ; L_1F0B
1F0E: AE 2D 02                   ldx $022D     ; INTEMP
1F11: 9D 17 02                   sta $0217,x   ; VIMIRQ+1
1F14: 98                         tya
1F15: 9D 16 02                   sta $0216,x   ; VIMIRQ
1F18: 60                         rts
1F19: 40                         BYTE $40 $00 $00 $00 $00 $00 $00 $00
1F21: 00                         BYTE $00 $00 $00 $00 $00 $00 $00 $00
1F29: 00                         BYTE $00 $00 $00 $00 $00 $00 $00 $00
1F31: 00                         BYTE $00 $00 $00 $00 $00 $00 $00 $00
1F39: 00                         BYTE $00 $00 $00 $00 $00 $00 $00 $00
1F41: 00                         BYTE $00 $00 $00 $00 $00 $00 $00 $00
1F49: 00                         BYTE $00 $00 $00 $00 $00 $00 $00 $00
1F51: 00                         BYTE $00 $00 $00 $00 $00 $00 $00 $00
1F59: 00                         BYTE $00 $00 $00 $00 $00 $00 $00 $00
1F61: 00                         BYTE $00 $00 $00 $00 $00 $00 $00 $00
1F69: 00                         BYTE $00 $00 $00 $00 $00 $00 $00 $00
1F71: 00                         BYTE $00 $00 $00 $00 $00 $00 $00 $00
1F79: 00                         BYTE $00 $00 $00 $00 $00 $00 $00 $00
1F81: 00                         BYTE $00 $00 $00 $00 $00 $00 $00 $00
1F89: 00                         BYTE $00 $00 $00 $00 $00 $00 $00 $00
1F91: 00                         BYTE $00 $00 $00 $00 $00 $00 $00 $00
1F99: 00                         BYTE $00 $00 $00 $00 $00 $00 $00 $00
1FA1: 00                         BYTE $00 $00 $00 $00 $00 $00 $00 $00
1FA9: 00                         BYTE $00 $00 $00 $00 $00 $00 $00 $00
1FB1: 00                         BYTE $00 $00 $00 $00 $00 $00 $00 $00
1FB9: 00                         BYTE $00 $00 $00 $00 $00 $00 $00 $00
1FC1: 00                         BYTE $00 $00 $00 $00 $00 $00 $00 $00
1FC9: 00                         BYTE $00 $00 $00 $00 $00 $00 $00 $00
1FD1: 00                         BYTE $00 $00 $00 $00 $00 $00 $00 $00
1FD9: 00                         BYTE $00 $00 $00 $00 $00 $00 $00 $00
1FE1: 00                         BYTE $00 $00 $00 $00 $00 $00 $00 $00
1FE9: 00                         BYTE $00 $00 $00 $00 $00 $00 $00 $00
1FF1: 00                         BYTE $00 $00 $00 $00 $00 $00 $00 $00
1FF9: 00                         BYTE $00 $00 $00 $00 $00 $05 $00 $55
2001: 56                         BYTE $56 $57 $54 $55 $56 $57 $54 $55
2009: 56                         BYTE $56 $57 $54 $55 $56 $57 $54 $55
2011: 56                         BYTE $56 $57 $54 $55 $56 $57 $54 $55
2019: 56                         BYTE $56 $02 $07 $26 $05 $A0 $8F $44
2021: 02                         BYTE $02 $07 $24 $05 $00 $39 $4E $59
2029: 42                         BYTE $42 $43 $40 $41 $42 $43 $40 $41
2031: 42                         BYTE $42 $43 $40 $41 $42 $43 $40 $41
2039: 42                         BYTE $42 $43 $40 $41 $42 $43 $40 $41
2041: 42                         BYTE $42 $00 $76 $02 $07 $25 $3E $06
2049: 6D                         BYTE $6D $80 $02 $06 $26 $06 $DC $5D
2051: 46                         BYTE $46 $47 $44 $45 $46 $47 $44 $45
2059: 46                         BYTE $46 $47 $44 $45 $46 $47 $44 $45
2061: 46                         BYTE $46 $47 $44 $45 $46 $47 $44 $45
2069: 46                         BYTE $46 $B2 $02 $06 $27 $06 $DF $BC
2071: 02                         BYTE $02 $07 $24 $3E $08 $00 $C6 $51
2079: 3A                         BYTE $3A $3B $38 $39 $3A $3B $38 $39
2081: 3A                         BYTE $3A $3B $38 $39 $3A $3B $38 $39
2089: 3A                         BYTE $3A $3B $38 $39 $3A $3B $38 $39
2091: 3A                         BYTE $3A $40 $06 $DE $37 $E4 $02 $04
2099: 33                         BYTE $33 $EE $02 $07 $29 $3E $08 $01
20A1: 02                         BYTE $02 $01 $02 $01 $02 $01 $02 $01
20A9: 02                         BYTE $02 $01 $02 $01 $02 $01 $02 $01
20B1: 02                         BYTE $02 $01 $02 $01 $02 $01 $02 $01
20B9: 02                         BYTE $02 $20 $03 $06 $50 $06 $DC $2A
20C1: 03                         BYTE $03 $07 $44 $82 $4D $31 $34 $03
20C9: 04                         BYTE $04 $03 $04 $03 $04 $03 $04 $03
20D1: 04                         BYTE $04 $03 $04 $03 $04 $03 $04 $03
20D9: 04                         BYTE $04 $03 $04 $03 $04 $03 $04 $03
20E1: 04                         BYTE $04 $03 $06 $50 $06 $DE $66 $03
20E9: 07                         BYTE $07 $44 $82 $4D $32 $70 $03 $03
20F1: 04                         BYTE $04 $03 $04 $03 $04 $03 $04 $03
20F9: 04                         BYTE $04 $03 $04 $03 $04 $03 $04 $03
2101: 04                         BYTE $04 $03 $04 $03 $04 $03 $04 $03
2109: 04                         BYTE $04 $98 $03 $08 $81 $4C $21 $81
2111: 4C                         BYTE $4C $A2 $03 $0C $83 $46 $49 $03
2119: 04                         BYTE $04 $03 $04 $03 $04 $03 $04 $03
2121: 04                         BYTE $04 $03 $04 $03 $04 $03 $04 $03
2129: 04                         BYTE $04 $03 $04 $03 $04 $03 $04 $03
2131: 04                         BYTE $04 $20 $20 $20 $20 $43 $4F $44
2139: 45                         BYTE $45 $44 $20 $42 $59 $20 $4D $03
2141: 04                         BYTE $04 $03 $04 $03 $04 $03 $04 $03
2149: 04                         BYTE $04 $03 $04 $03 $04 $03 $04 $03
2151: 04                         BYTE $04 $03 $04 $03 $04 $03 $04 $03
2159: 04                         BYTE $04 $50 $0B $08 $00 $0E $01 $0D
2161: 86                         BYTE $86 $44 $45 $56 $4E $55 $4D $03
2169: 04                         BYTE $04 $03 $04 $03 $04 $03 $04 $03
2171: 04                         BYTE $04 $03 $04 $03 $04 $03 $04 $03
2179: 04                         BYTE $04 $03 $04 $03 $04 $03 $04 $03
2181: 04                         BYTE $04 $03 $36 $01 $0B $50 $86 $44
2189: 45                         BYTE $45 $56 $54 $59 $50 $40 $01 $5D
2191: 5E                         BYTE $5E $5F $5C $5D $5E $5F $5C $5D
2199: 5E                         BYTE $5E $5F $5C $5D $5E $5F $5C $5D
21A1: 5E                         BYTE $5E $5F $5C $5D $5E $5F $5C $5D
21A9: 5E                         BYTE $5E $27 $07 $31 $02 $68 $01 $07
21B1: 24                         BYTE $24 $3E $06 $CE $72 $01 $07 $51
21B9: 3A                         BYTE $3A $3B $38 $39 $3A $3B $38 $39
21C1: 3A                         BYTE $3A $3B $38 $39 $3A $3B $38 $39
21C9: 3A                         BYTE $3A $3B $38 $39 $3A $3B $38 $39
21D1: 3A                         BYTE $3A $01 $07 $50 $05 $00 $D0 $A4
21D9: 01                         BYTE $01 $07 $50 $05 $01 $D0 $AE $55
21E1: 3E                         BYTE $3E $3F $3C $3D $3E $3F $3C $3D
21E9: 3E                         BYTE $3E $3F $3C $3D $3E $3F $3C $3D
21F1: 3E                         BYTE $3E $3F $3C $3D $3E $3F $3C $3D
21F9: 3E                         BYTE $3E $02 $D6 $01 $07 $51 $3E $08
2201: 0F                         BYTE $0F $E0 $01 $07 $50 $07 $C4 $59
2209: 42                         BYTE $42 $43 $40 $41 $42 $43 $40 $41
2211: 42                         BYTE $42 $43 $40 $41 $42 $43 $40 $41
2219: 42                         BYTE $42 $43 $40 $41 $42 $43 $40 $41
2221: 42                         BYTE $42 $07 $24 $3E $08 $00 $12 $02
2229: 0A                         BYTE $0A $82 $50 $54 $51 $3E $08 $5D
2231: 46                         BYTE $46 $47 $44 $45 $46 $47 $44 $45
2239: 46                         BYTE $46 $47 $44 $45 $46 $47 $44 $45
2241: 46                         BYTE $46 $47 $44 $45 $46 $47 $44 $45
2249: 46                         BYTE $46 $02 $08 $50 $05 $40 $9F $39
2251: 44                         BYTE $44 $02 $04 $32 $4E $02 $07 $51
2259: 3A                         BYTE $3A $3B $38 $39 $3A $3B $38 $39
2261: 3A                         BYTE $3A $3B $38 $39 $3A $3B $38 $39
2269: 3A                         BYTE $3A $3B $38 $39 $3A $3B $38 $39
2271: 3A                         BYTE $3A $45 $58 $54 $76 $02 $0B $25
2279: 3E                         BYTE $3E $35 $84 $54 $45 $58 $54 $55
2281: 3E                         BYTE $3E $3F $3C $3D $3E $3F $3C $3D
2289: 3E                         BYTE $3E $3F $3C $3D $3E $3F $3C $3D
2291: 3E                         BYTE $3E $3F $3C $3D $3E $3F $3C $3D
2299: 3E                         BYTE $3E $A8 $02 $06 $26 $06 $DE $B2
22A1: 02                         BYTE $02 $06 $27 $06 $DF $BC $02 $59
22A9: 42                         BYTE $42 $43 $40 $41 $42 $43 $40 $41
22B1: 42                         BYTE $42 $43 $40 $41 $42 $43 $40 $41
22B9: 42                         BYTE $42 $43 $40 $41 $42 $43 $40 $41
22C1: 42                         BYTE $42 $02 $07 $20 $05 $5C $E4 $E4
22C9: 02                         BYTE $02 $0B $83 $50 $54 $32 $25 $5D
22D1: 46                         BYTE $46 $47 $44 $45 $46 $47 $44 $45
22D9: 46                         BYTE $46 $47 $44 $45 $46 $47 $44 $45
22E1: 46                         BYTE $46 $47 $44 $45 $46 $47 $44 $45
22E9: 46                         BYTE $46 $84 $4E $45 $57 $54 $0C $03
22F1: 07                         BYTE $07 $52 $3E $08 $0B $16 $03 $09
22F9: 46                         BYTE $46 $84 $43 $4F $4E $54 $20 $03
2301: 08                         BYTE $08 $50 $40 $06 $DE $37 $2A $03
2309: 04                         BYTE $04 $33 $34 $03 $08 $21 $83 $4C
2311: 45                         BYTE $45 $53 $3E $03 $09 $84 $4E $45
2319: 57                         BYTE $57 $54 $33 $48 $03 $04 $43 $52
2321: 03                         BYTE $03 $04 $2C $5C $03 $06 $4F $06
2329: DC                         BYTE $DC $66 $03 $06 $50 $06 $DC $70
2331: 03                         BYTE $03 $07 $44 $82 $50 $53 $7A $03
2339: 06                         BYTE $06 $23 $06 $DD $84 $03 $09 $82
2341: 50                         BYTE $50 $53 $51 $06 $DE $8E $03 $04
2349: 2C                         BYTE $2C $98 $03 $07 $4F $3E $08 $28
2351: A2                         BYTE $A2 $03 $06 $50 $06 $DE $AC $03
2359: 07                         BYTE $07 $44 $82 $49 $4D $B6 $03 $06
2361: 23                         BYTE $23 $06 $DF $C0 $03 $0B $82 $49
2369: 4D                         BYTE $4D $21 $83 $50 $54 $32 $CA $03
2371: 0C                         BYTE $0C $84 $43 $4F $4E $54 $51 $3E
2379: 08                         BYTE $08 $04 $D4 $03 $07 $50 $05 $14
2381: 9D                         BYTE $9D $DE $03 $07 $51 $3E $08 $2E
2389: E8        L_2389           BYTE $E8 $03 $07 $50 $07 $2F $02 $F2
2391: 03                         BYTE $03 $0C $84 $4C $4F $4F $50 $51
2399: 05                         BYTE $05 $0B $D4 $FC $03 $07 $4D $3E
23A1: 08                         BYTE $08 $03 $06 $04 $04 $3E $10 $04
23A9: 09                         BYTE $09 $51 $83 $43 $4F $4C $39 $1A
23B1: 04                         BYTE $04 $07 $50 $05 $0A $D4 $24 $04
23B9: 07                         BYTE $07 $50 $07 $C5 $02 $2E $04 $07
23C1: 50                         BYTE $50 $05 $17 $D0 $38 $04 $07 $51
23C9: 07                         BYTE $07 $1F $D0 $42 $04 $07 $52 $3E
23D1: 08                         BYTE $08 $06 $4C $04 $08 $48 $83 $4E
23D9: 53                         BYTE $53 $31 $56 $04 $0A $21 $85 $53
23E1: 54                         BYTE $54 $41 $52 $54 $60 $04 $0B $83
23E9: 4E        L_23E9           BYTE $4E $53 $31 $51 $07 $84 $02 $04
23F1: 00        L_23F1           BYTE $00 $00 $00 $84 $4C $4F $4F $10
23F9: 10                         BYTE $10 $10 $10 $10 $10 $53 $54 $41
2401: 52                         BYTE $52 $54 $7E $04 $08 $83 $52 $41
2409: 53                         BYTE $53 $35 $88 $04 $04 $41 $92 $04
2411: 04                         BYTE $04 $35 $9C $04 $04 $43 $A6 $04
2419: 04                         BYTE $04 $35 $B0 $04 $0B $83 $4B $45
2421: 59                         BYTE $59 $24 $3E $08 $00 $BA $04 $07
2429: 25                         BYTE $25 $3E $08 $00 $C4 $04 $07 $51
2431: 07                         BYTE $07 $FC $02 $CE $04 $06 $50 $06
2439: FF                         BYTE $FF $D8 $04 $0F $82 $4B $32 $51
2441: 86                         BYTE $86 $4B $45 $59 $44 $41 $54 $38
2449: E2                         BYTE $E2 $04 $06 $52 $06 $FF $EC $04
2451: 08                         BYTE $08 $46 $83 $41 $52 $50 $F6 $04
2459: 04                         BYTE $04 $33 $00 $05 $04 $33 $0A $05
2461: 04                         BYTE $04 $33 $14 $05 $04 $32 $1E $05
2469: 07                         BYTE $07 $28 $3E $08 $05 $28 $05 $07
2471: 48                         BYTE $48 $82 $4B $32 $32 $05 $0B $83
2479: 4F                         BYTE $4F $55 $54 $51 $3E $08 $FF $3C
2481: 05                         BYTE $05 $07 $50 $07 $FC $02 $46 $05
2489: 04                         BYTE $04 $37 $50 $05 $04 $3F $5A $05
2491: 04                         BYTE $04 $37 $64 $05 $04 $3E $6E $05
2499: 04                         BYTE $04 $37 $78 $05 $07 $21 $05 $62
24A1: E4                         BYTE $E4 $82 $05 $13 $83 $41 $52 $50
24A9: 51                         BYTE $51 $86 $4B $45 $59 $44 $41 $54
24B1: 12                         BYTE $12 $08 $01 $38 $8C $05 $06 $50
24B9: 06                         BYTE $06 $EC $96 $05 $0F $51 $86 $4B
24C1: 45                         BYTE $45 $59 $44 $41 $54 $12 $08 $02
24C9: 38                         BYTE $38 $A0 $05 $06 $50 $06 $ED $AA
24D1: 05                         BYTE $05 $06 $27 $06 $EE $B4 $05 $09
24D9: 25                         BYTE $25 $84 $4C $41 $53 $54 $BE $05
24E1: 0F                         BYTE $0F $51 $86 $4B $45 $59 $44 $41
24E9: 54                         BYTE $54 $12 $08 $01 $38 $C8 $05 $06
24F1: 50                         BYTE $50 $06 $EA $D2 $05 $0F $51 $86
24F9: 4B                         BYTE $4B $45 $59 $44 $41 $54 $12
2500: 8E 50 25  L_2500           stx $2550     ; L_254A+6
2503: 8C 51 25                   sty $2551     ; L_254A+7
2506: 18                         clc
2507: 0A                         asl
2508: AA                         tax
2509: BD 3A 25                   lda $253A,x   ; L_253A
250C: 8D 54 25                   sta $2554     ; L_2552+2
250F: BD 3B 25                   lda $253B,x   ; L_253A+1
2512: 8D 55 25                   sta $2555     ; L_2552+3
2515: A9 06                      lda #$06
2517: A0 56                      ldy #$56
2519: A2 25                      ldx #$25
251B: 20 00 1F                   jsr $1F00     ; L_1F00
251E: A9 00                      lda #$00
2520: 8D 53 25                   sta $2553     ; L_2552+1
2523: A9 00                      lda #$00
2525: 8D 08 D2                   sta $D208     ; AUDCTL
2528: A9 03                      lda #$03
252A: 8D 52 25                   sta $2552     ; L_2552
252D: 8D 0F D2                   sta $D20F     ; SKCTL
2530: 8D 32 02                   sta $0232     ; SSKCTL
2533: AE 50 25                   ldx $2550     ; L_254A+6
2536: AC 51 25                   ldy $2551     ; L_254A+7
2539: 60                         rts
253A: BE        L_253A           BYTE $BE $25 $E2 $25 $06 $26 $2A $26
2542: 4E                         BYTE $4E $26 $63 $26 $75 $26 $A5 $26
254A: B7        L_254A           BYTE $B7 $26 $C9 $26 $6B $27 $00 $00
2552: 00        L_2552           BYTE $00 $FF $DF $25
2556: 48                         pha
2557: 8A                         txa
2558: 48                         pha
2559: 98                         tya
255A: 48                         pha
255B: AD 52 25                   lda $2552     ; L_2552
255E: D0 03                      bne $2563     ; L_2563
2560: 4C 86 25                   jmp $2586     ; L_2586
2563: AE 54 25  L_2563           ldx $2554     ; L_2552+2
2566: AC 55 25                   ldy $2555     ; L_2552+3
2569: 86 60                      stx $60       ; FKDEF
256B: 84 61                      sty $61       ; FKDEF+1
256D: A0 01                      ldy #$01
256F: B1 60                      lda ($60),y   ; FKDEF
2571: C9 FF                      cmp #$FF
2573: F0 3B                      beq $25B0     ; L_25B0
2575: 99 00 D2                   sta $D200,y   ; AUDF1
2578: 88                         dey
2579: B1 60                      lda ($60),y   ; FKDEF
257B: 99 00 D2                   sta $D200,y   ; AUDF1
257E: AD 53 25                   lda $2553     ; L_2552+1
2581: F0 0B                      beq $258E     ; L_258E
2583: CE 53 25                   dec $2553     ; L_2552+1
2586: 68        L_2586           pla
2587: A8                         tay
2588: 68                         pla
2589: AA                         tax
258A: 68                         pla
258B: 4C 5F E4                   jmp $E45F     ; SYSVBV
258E: AD 54 25  L_258E           lda $2554     ; L_2552+2
2591: 18                         clc
2592: 69 03                      adc #$03
2594: 8D 54 25                   sta $2554     ; L_2552+2
2597: 90 03                      bcc $259C     ; L_259C
2599: EE 55 25                   inc $2555     ; L_2552+3
259C: AE 54 25  L_259C           ldx $2554     ; L_2552+2
259F: AC 55 25                   ldy $2555     ; L_2552+3
25A2: 86 60                      stx $60       ; FKDEF
25A4: 84 61                      sty $61       ; FKDEF+1
25A6: A0 02                      ldy #$02
25A8: B1 60                      lda ($60),y   ; FKDEF
25AA: 8D 53 25                   sta $2553     ; L_2552+1
25AD: 4C 86 25                   jmp $2586     ; L_2586
25B0: A9 00     L_25B0           lda #$00
25B2: 8D 52 25                   sta $2552     ; L_2552
25B5: 8D 00 D2                   sta $D200     ; AUDF1
25B8: 8D 01 D2                   sta $D201     ; AUDC1
25BB: 4C 86 25                   jmp $2586     ; L_2586
25BE: 00                         BYTE $00 $00 $00 $3C $AF $00 $3B $AD
25C6: 00                         BYTE $00 $3B $A7 $00 $3C $A5 $00 $3B
25CE: A5                         BYTE $A5 $00 $3C $A4 $00 $3C $A3 $00
25D6: 3C                         BYTE $3C $A1 $00 $3C $A0 $00 $3C $A1
25DE: 00                         BYTE $00 $FF $FF $FF $00 $00 $00 $32
25E6: AF                         BYTE $AF $00 $31 $AD $00 $31 $A7 $00
25EE: 32                         BYTE $32 $A5 $00 $31 $A5 $00 $32 $A4
25F6: 00                         BYTE $00 $32 $A3 $00 $32 $A1 $00 $32
25FE: A0                         BYTE $A0 $00 $32 $A1 $00 $FF $FF $FF
2606: 00                         BYTE $00 $00 $00 $19 $AF $00 $18 $AD
260E: 00                         BYTE $00 $18 $A7 $00 $19 $A5 $00 $18
2616: A5                         BYTE $A5 $00 $19 $A4 $00 $19 $A3 $00
261E: 19                         BYTE $19 $A1 $00 $19 $A0 $00 $19 $A1
2626: 00                         BYTE $00 $FF $FF $FF $00 $00 $00 $13
262E: AF                         BYTE $AF $00 $12 $AD $00 $12 $A7 $00
2636: 13                         BYTE $13 $A5 $00 $12 $A5 $00 $12 $A4
263E: 00                         BYTE $00 $12 $A3 $00 $12 $A1 $00 $12
2646: A0                         BYTE $A0 $00 $12 $A1 $00 $FF $FF $FF
264E: 00                         BYTE $00 $00 $00 $01 $27 $00 $02 $29
2656: 00                         BYTE $00 $04 $2A $00 $05 $28 $00 $04
265E: 25                         BYTE $25 $00 $FF $FF $FF $00 $00 $00
2666: 1E                         BYTE $1E $8A $04 $20 $88 $01 $24 $85
266E: 01                         BYTE $01 $2C $84 $01 $FF $FF $FF $14
2676: 29                         BYTE $29 $03 $10 $2C $04 $12 $2B $02
267E: 14                         BYTE $14 $27 $03 $10 $2A $04 $12 $29
2686: 02                         BYTE $02 $14 $25 $03 $10 $28 $04 $12
268E: 27                         BYTE $27 $02 $14 $23 $03 $10 $26 $04
2696: 12                         BYTE $12 $25 $02 $14 $22 $03 $10 $25
269E: 04                         BYTE $04 $12 $24 $02 $FF $FF $FF $00
26A6: 00                         BYTE $00 $00 $FF $AC $03 $F5 $AD $03
26AE: EB                         BYTE $EB $AE $02 $E1 $AF $02 $FF $FF
26B6: FF                         BYTE $FF $00 $00 $00 $2F $AC $02 $33
26BE: AC                         BYTE $AC $02 $2F $AE $03 $33 $AE $03
26C6: FF                         BYTE $FF $FF $FF $00 $00 $00 $03 $22
26CE: 03                         BYTE $03 $05 $22 $03 $04 $22 $03 $03
26D6: 22                         BYTE $22 $03 $03 $24 $03 $05 $24 $03
26DE: 04                         BYTE $04 $24 $03 $03 $24 $03 $03 $26
26E6: 03                         BYTE $03 $05 $26 $03 $04 $26 $03 $03
26EE: 26                         BYTE $26 $03 $03 $28 $03 $05 $28 $03
26F6: 04                         BYTE $04 $28 $03 $03 $28 $03 $03 $2A
26FE: 03                         BYTE $03 $05 $2A $03 $04 $2A $03 $03
2706: 2A                         BYTE $2A $03 $03 $2C $03 $05 $2C $03
270E: 04                         BYTE $04 $2C $03 $03 $2C $03 $03 $2E
2716: 03                         BYTE $03 $05 $2E $03 $04 $2E $03 $03
271E: 2E                         BYTE $2E $03 $03 $2C $03 $05 $2C $03
2726: 04                         BYTE $04 $2C $03 $03 $2C $03 $03 $2A
272E: 03                         BYTE $03 $05 $2A $03 $04 $2A $03 $03
2736: 2A                         BYTE $2A $03 $03 $28 $03 $05 $28 $03
273E: 04                         BYTE $04 $28 $03 $03 $28 $03 $03 $26
2746: 03                         BYTE $03 $05 $26 $03 $04 $26 $03 $03
274E: 26                         BYTE $26 $03 $03 $24 $03 $05 $24 $03
2756: 04                         BYTE $04 $24 $03 $03 $24 $03 $03 $22
275E: 03                         BYTE $03 $05 $22 $03 $04 $22 $03 $03
2766: 22                         BYTE $22 $03 $FF $FF $FF $00 $00 $00
276E: 1F                         BYTE $1F $2F $07 $21 $2D $07 $23 $2B
2776: 07                         BYTE $07 $25 $29 $07 $27 $27 $06 $29
277E: 25                         BYTE $25 $06 $2B $23 $06 $FF $FF $FF
2786: FF                         BYTE $FF $FF $65 $C1 $01 $C1 $01 $01
278E: C1                         BYTE $C1 $09 $C1 $01 $01 $C1 $09 $C1
2796: 01                         BYTE $01 $01 $CB $01 $0D $0D $FF $0D
279E: 0D                         BYTE $0D $0D $0D $6D $6D $0D $62 $C1
27A6: 01                         BYTE $01 $C1 $63 $C1 $01 $C1 $62 $62
27AE: C1                         BYTE $C1 $01 $C1 $63 $C1 $01 $C1 $62
27B6: 62                         BYTE $62 $C1 $01 $C1 $63 $C1 $01 $A1
27BE: 62                         BYTE $62 $62 $C1 $01 $C1 $63 $C1 $01
27C6: C1                         BYTE $C1 $62 $0D $6D $6D $0D $0D $0D
27CE: 0D                         BYTE $0D $0D $FF $0D $0D $0D $0D $6D
27D6: 0D                         BYTE $0D $02 $E3 $01 $E3 $01 $E3 $02
27DE: E1                         BYTE $E1 $A1 $E1 $01 $E1 $A1 $E1 $01
27E6: E1                         BYTE $E1 $A1 $E1 $02 $E3 $01 $E3 $01
27EE: E3                         BYTE $E3 $0D $01 $E3 $01 $E3 $01 $E3
27F6: 01                         BYTE $01 $01 $E1 $A1 $E1 $01 $E1 $A1
27FE: E1                         BYTE $E1 $01
2800: 9D C6 46  L_2800           sta $46C6,x   ; L_46C0+6
2803: A9 00                      lda #$00
2805: 20 00 25                   jsr $2500     ; L_2500
2808: 60                         rts
2809: 20 00 29  L_2809           jsr $2900     ; L_2900
280C: A9 01                      lda #$01
280E: 20 00 25                   jsr $2500     ; L_2500
2811: 60                         rts
2812: 99 43 4C  L_2812           sta $4C43,y   ; L_4C43
2815: A9 02                      lda #$02
2817: 20 00 25                   jsr $2500     ; L_2500
281A: 60                         rts
281B: 9D 01 D0                   sta $D001,x   ; HPOSP1
281E: A9 04                      lda #$04
2820: 20 00 25                   jsr $2500     ; L_2500
2823: 60                         rts
2824: 20 B4 3B  L_2824           jsr $3BB4     ; L_3BB0+4
2827: A9 05                      lda #$05
2829: 20 00 25                   jsr $2500     ; L_2500
282C: 60                         rts
282D: A9 06     L_282D           lda #$06
282F: 20 00 25                   jsr $2500     ; L_2500
2832: 4C 00 32                   jmp $3200     ; L_3200
2835: A9 08                      lda #$08
2837: 20 00 25                   jsr $2500     ; L_2500
283A: 4C 11 8F                   jmp $8F11
283D: AD 52 25                   lda $2552     ; L_2552
2840: D0 05                      bne $2847     ; L_2847
2842: A9 0A                      lda #$0A
2844: 20 00 25                   jsr $2500     ; L_2500
2847: AD 09 44  L_2847           lda $4409     ; L_4405+4
284A: 60                         rts
284B: 8D 7D 50                   sta $507D
284E: A9 07                      lda #$07
2850: 20 10 2A                   jsr $2A10     ; L_2A0B+5
2853: 60                         rts
2854: 70 01     L_2854           bvs $2857     ; L_2856+1
2856: 8D 54 28  L_2856           sta $2854     ; L_2854
2859: 20 03 3D                   jsr $3D03     ; L_3CFC+7
285C: AD 55 28                   lda $2855     ; L_2854+1
285F: C9 03                      cmp #$03
2861: B0 06                      bcs $2869     ; L_2869
2863: EE 55 28                   inc $2855     ; L_2854+1
2866: 4C 76 28                   jmp $2876     ; L_2876
2869: A9 00     L_2869           lda #$00
286B: 8D 55 28                   sta $2855     ; L_2854+1
286E: 4C 8C 2A                   jmp $2A8C     ; L_2A8C
2871: 00                         brk
2872: 00                         brk
2873: 8D F3 46                   sta $46F3     ; L_46F0+3
2876: AD 54 28  L_2876           lda $2854     ; L_2854
2879: 60                         rts
287A: 20 CB 44  L_287A           jsr $44CB     ; L_44CB
287D: 20 F1 44                   jsr $44F1     ; L_44F1
2880: 60                         rts
2881: A9 B1     L_2881           lda #$B1
2883: 8D 4D 46                   sta $464D     ; L_464D
2886: 20 1C 40                   jsr $401C     ; L_401C
2889: A9 91                      lda #$91
288B: 8D 4D 46                   sta $464D     ; L_464D
288E: 60                         rts
288F: A2 00     L_288F           ldx #$00
2891: 4C 1A 40                   jmp $401A     ; L_401A
2894: A9 00     L_2894           lda #$00
2896: A2 00                      ldx #$00
2898: 9D 60 9F  L_2898           sta $9F60,x
289B: E8                         inx
289C: E0 28                      cpx #$28
289E: D0 F8                      bne $2898     ; L_2898
28A0: 4C 3C 3A                   jmp $3A3C     ; L_3A3C
28A3: 00        L_28A3           brk
28A4: AD A3 28  L_28A4           lda $28A3     ; L_28A3
28A7: 8D 00 2E                   sta $2E00     ; L_2DFB+5
28AA: A9 00                      lda #$00
28AC: 8D 01 2E                   sta $2E01     ; L_2DFB+6
28AF: 4C 00 2D                   jmp $2D00     ; L_2D00
28B2: A9 00     L_28B2           lda #$00
28B4: 8D 70 50                   sta $5070
28B7: A9 B4                      lda #$B4
28B9: 8D 71 50                   sta $5071
28BC: 4C C6 28                   jmp $28C6     ; L_28C6
28BF: A9 00     L_28BF           lda #$00
28C1: 85 4D                      sta $4D       ; ATRACT
28C3: 4C 82 8F                   jmp $8F82
28C6: 20 13 51  L_28C6           jsr $5113
28C9: 4C 1B 45                   jmp $451B     ; L_4517+4
28CC: AD D8 46  L_28CC           lda $46D8     ; L_46D8
28CF: C9 01                      cmp #$01
28D1: F0 03                      beq $28D6     ; L_28D6
28D3: 4C 11 49                   jmp $4911     ; L_4911
28D6: BD 08 46  L_28D6           lda $4608,x   ; L_4607+1
28D9: 29 03                      and #$03
28DB: C9 03                      cmp #$03
28DD: F0 03                      beq $28E2     ; L_28E2
28DF: 4C 18 49                   jmp $4918     ; L_4918
28E2: 4C 1D 49  L_28E2           jmp $491D     ; L_491D
28E5: AD D8 46  L_28E5           lda $46D8     ; L_46D8
28E8: C9 08                      cmp #$08
28EA: F0 03                      beq $28EF     ; L_28EF
28EC: 4C 3C 49                   jmp $493C     ; L_493C
28EF: BD 0B 46  L_28EF           lda $460B,x   ; L_4607+4
28F2: 29 03                      and #$03
28F4: F0 03                      beq $28F9     ; L_28F9
28F6: 4C 45 49                   jmp $4945     ; L_4945
28F9: 4C 4A 49  L_28F9           jmp $494A     ; L_494A
28FC: 00                         brk
28FD: 00                         brk
28FE: 00                         brk
28FF: 00                         brk
2900: A5 DE     L_2900           lda $DE       ; FRE+4
2902: 85 F8                      sta $F8       ; ZTEMP4+1
2904: A5 DF                      lda $DF       ; FRE+5
2906: 85 F9                      sta $F9       ; ZTEMP3
2908: A5 DF                      lda $DF       ; FRE+5
290A: 85 FD                      sta $FD       ; FLPTR+1
290C: A5 DE                      lda $DE       ; FRE+4
290E: 38                         sec
290F: E9 2A                      sbc #$2A
2911: 85 FC                      sta $FC       ; FLPTR
2913: B0 02                      bcs $2917     ; L_2917
2915: C6 FD                      dec $FD       ; FLPTR+1
2917: A5 DF     L_2917           lda $DF       ; FRE+5
2919: 85 FF                      sta $FF       ; FPTR2+1
291B: A5 DE                      lda $DE       ; FRE+4
291D: 38                         sec
291E: E9 02                      sbc #$02
2920: 85 FE                      sta $FE       ; FPTR2
2922: B0 02                      bcs $2926     ; L_2926
2924: C6 FF                      dec $FF       ; FPTR2+1
2926: 8C D8 29  L_2926           sty $29D8     ; L_29D8
2929: 8E D7 29                   stx $29D7     ; L_29D7
292C: A2 00                      ldx #$00
292E: 98                         tya
292F: 18                         clc
2930: 69 28                      adc #$28
2932: A8                         tay
2933: B1 F8     L_2933           lda ($F8),y   ; ZTEMP4+1
2935: C9 50                      cmp #$50
2937: 30 09                      bmi $2942     ; L_2942
2939: C9 60                      cmp #$60
293B: 10 05                      bpl $2942     ; L_2942
293D: 38                         sec
293E: E9 18                      sbc #$18
2940: 91 F8                      sta ($F8),y   ; ZTEMP4+1
2942: C8        L_2942           iny
2943: E8                         inx
2944: E0 02                      cpx #$02
2946: D0 EB                      bne $2933     ; L_2933
2948: AC D8 29                   ldy $29D8     ; L_29D8
294B: A2 00                      ldx #$00
294D: 86 FB                      stx $FB       ; RADFLG
294F: 20 9A 29                   jsr $299A     ; L_299A
2952: B1 FC     L_2952           lda ($FC),y   ; FLPTR
2954: 29 7F                      and #$7F
2956: F0 0C                      beq $2964     ; L_2964
2958: C9 09                      cmp #$09
295A: 30 0D                      bmi $2969     ; L_2969
295C: C9 1D                      cmp #$1D
295E: F0 09                      beq $2969     ; L_2969
2960: C9 1E                      cmp #$1E
2962: F0 05                      beq $2969     ; L_2969
2964: C8        L_2964           iny
2965: C8                         iny
2966: 4C 86 29                   jmp $2986     ; L_2986
2969: B1 FE     L_2969           lda ($FE),y   ; FPTR2
296B: 29 7F                      and #$7F
296D: C9 38                      cmp #$38
296F: 30 0F                      bmi $2980     ; L_2980
2971: C9 60                      cmp #$60
2973: 10 04                      bpl $2979     ; L_2979
2975: C9 50                      cmp #$50
2977: 10 07                      bpl $2980     ; L_2980
2979: B1 FE     L_2979           lda ($FE),y   ; FPTR2
297B: 18                         clc
297C: 69 18                      adc #$18
297E: 91 FE                      sta ($FE),y   ; FPTR2
2980: C8        L_2980           iny
2981: E8                         inx
2982: E0 02                      cpx #$02
2984: D0 E3                      bne $2969     ; L_2969
2986: A2 00     L_2986           ldx #$00
2988: E6 FB                      inc $FB       ; RADFLG
298A: A5 FB                      lda $FB       ; RADFLG
298C: C9 02                      cmp #$02
298E: D0 C2                      bne $2952     ; L_2952
2990: AC D8 29                   ldy $29D8     ; L_29D8
2993: AE D7 29                   ldx $29D7     ; L_29D7
2996: AD 00 4A                   lda $4A00     ; L_49F9+7
2999: 60                         rts
299A: B1 FC     L_299A           lda ($FC),y   ; FLPTR
299C: C9 22                      cmp #$22
299E: 10 03                      bpl $29A3     ; L_29A3
29A0: 4C B8 29                   jmp $29B8     ; L_29B8
29A3: C9 2A     L_29A3           cmp #$2A
29A5: 10 11                      bpl $29B8     ; L_29B8
29A7: C8                         iny
29A8: B1 FC                      lda ($FC),y   ; FLPTR
29AA: C9 38                      cmp #$38
29AC: 30 09                      bmi $29B7     ; L_29B7
29AE: C9 48                      cmp #$48
29B0: 10 05                      bpl $29B7     ; L_29B7
29B2: 18                         clc
29B3: 69 18                      adc #$18
29B5: 91 FC                      sta ($FC),y   ; FLPTR
29B7: 88        L_29B7           dey
29B8: B1 FE     L_29B8           lda ($FE),y   ; FPTR2
29BA: C9 22                      cmp #$22
29BC: 10 01                      bpl $29BF     ; L_29BF
29BE: 60        L_29BE           rts
29BF: B1 FE     L_29BF           lda ($FE),y   ; FPTR2
29C1: C9 2A                      cmp #$2A
29C3: 10 F9                      bpl $29BE     ; L_29BE
29C5: C8                         iny
29C6: B1 FE                      lda ($FE),y   ; FPTR2
29C8: C9 38                      cmp #$38
29CA: 30 09                      bmi $29D5     ; L_29D5
29CC: C9 48                      cmp #$48
29CE: 10 05                      bpl $29D5     ; L_29D5
29D0: 18                         clc
29D1: 69 18                      adc #$18
29D3: 91 FE                      sta ($FE),y   ; FPTR2
29D5: 88        L_29D5           dey
29D6: 60                         rts
29D7: 00        L_29D7           brk
29D8: 00        L_29D8           brk
29D9: A5 03                      lda $03       ; CASINI+1
29DB: 85 F9                      sta $F9       ; ZTEMP3
29DD: 85 FD                      sta $FD       ; FLPTR+1
29DF: A5 02                      lda $02       ; CASINI
29E1: 85 F8                      sta $F8       ; ZTEMP4+1
29E3: 38                         sec
29E4: E9 2A                      sbc #$2A
29E6: 85 FC                      sta $FC       ; FLPTR
29E8: B0 02                      bcs $29EC     ; L_29EC
29EA: C6 FD                      dec $FD       ; FLPTR+1
29EC: A5 03     L_29EC           lda $03       ; CASINI+1
29EE: 85 FF                      sta $FF       ; FPTR2+1
29F0: A5 02                      lda $02       ; CASINI
29F2: 38                         sec
29F3: E9 02                      sbc #$02
29F5: 85 FE                      sta $FE       ; FPTR2
29F7: B0 02                      bcs $29FB     ; L_29FB
29F9: C6 FF                      dec $FF       ; FPTR2+1
29FB: 20 26 29  L_29FB           jsr $2926     ; L_2926
29FE: A6 DC                      ldx $DC       ; FRE+2
2A00: A4 DD                      ldy $DD       ; FRE+3
2A02: 60                         rts
2A03: 45                         BYTE $45 $20 $54 $4F $20 $55 $4E $4C
2A0B: 4F        L_2A0B           BYTE $4F $43 $4B $3F $9B $AD $52 $25
2A13: D0                         BYTE $D0 $05 $A9 $07 $20 $00 $25 $60
2A1B: 00        L_2A1B           BYTE $00 $00 $00 $00 $00
2A20: A0 00     L_2A20           ldy #$00
2A22: A2 00                      ldx #$00
2A24: B9 41 4C  L_2A24           lda $4C41,y   ; L_4C41
2A27: F0 1E                      beq $2A47     ; L_2A47
2A29: 85 DF                      sta $DF       ; FRE+5
2A2B: B9 40 4C                   lda $4C40,y   ; L_4C40
2A2E: 85 DE                      sta $DE       ; FRE+4
2A30: B9 43 4C                   lda $4C43,y   ; L_4C43
2A33: 85 DC                      sta $DC       ; FRE+2
2A35: 8C 1F 2A                   sty $2A1F     ; L_2A1B+4
2A38: A0 00                      ldy #$00
2A3A: A5 DC                      lda $DC       ; FRE+2
2A3C: 91 DE                      sta ($DE),y   ; FRE+4
2A3E: C8                         iny
2A3F: 18                         clc
2A40: 69 01                      adc #$01
2A42: 91 DE                      sta ($DE),y   ; FRE+4
2A44: AC 1F 2A                   ldy $2A1F     ; L_2A1B+4
2A47: E8        L_2A47           inx
2A48: C8                         iny
2A49: C8                         iny
2A4A: C8                         iny
2A4B: C8                         iny
2A4C: E0 0F                      cpx #$0F
2A4E: D0 D4                      bne $2A24     ; L_2A24
2A50: 4C 2D 28                   jmp $282D     ; L_282D
2A53: 20 12 28                   jsr $2812     ; L_2812
2A56: 4C 65 2C                   jmp $2C65     ; L_2C65
2A59: 00                         BYTE $00 $00 $00 $00 $00 $00 $00
2A60: AD 1F D0  L_2A60           lda $D01F     ; CONSOL
2A63: C9 06                      cmp #$06
2A65: F0 22                      beq $2A89     ; L_2A89
2A67: AD 7C 02                   lda $027C     ; PTRIG0
2A6A: F0 1D                      beq $2A89     ; L_2A89
2A6C: AD 7D 02                   lda $027D     ; PTRIG1
2A6F: F0 18                      beq $2A89     ; L_2A89
2A71: AD 84 02                   lda $0284     ; STRIG0
2A74: F0 13                      beq $2A89     ; L_2A89
2A76: AD 85 02                   lda $0285     ; STRIG1
2A79: F0 0E                      beq $2A89     ; L_2A89
2A7B: AD 0F D2                   lda $D20F     ; SKSTAT
2A7E: C9 F3                      cmp #$F3
2A80: F0 07                      beq $2A89     ; L_2A89
2A82: C9 F7                      cmp #$F7
2A84: F0 03                      beq $2A89     ; L_2A89
2A86: 4C 26 37                   jmp $3726     ; L_3726
2A89: 4C D0 37  L_2A89           jmp $37D0     ; L_37D0
2A8C: AD 76 50  L_2A8C           lda $5076
2A8F: 18                         clc
2A90: 6D 77 50                   adc $5077
2A93: D0 05                      bne $2A9A     ; L_2A9A
2A95: AD F3 46                   lda $46F3     ; L_46F0+3
2A98: C9 02                      cmp #$02
2A9A: 90 03     L_2A9A           bcc $2A9F     ; L_2A9F
2A9C: CE F3 46                   dec $46F3     ; L_46F0+3
2A9F: 60        L_2A9F           rts
2AA0: A9 40     L_2AA0           lda #$40
2AA2: 85 10                      sta $10       ; POKMSK
2AA4: 8D 0E D2                   sta $D20E     ; IRQEN
2AA7: 20 D5 43                   jsr $43D5     ; L_43D5
2AAA: 4C B9 2F                   jmp $2FB9     ; L_2FB9
2AAD: 00                         brk
2AAE: 00                         brk
2AAF: 00                         brk
2AB0: C9 18     L_2AB0           cmp #$18
2AB2: 10 04                      bpl $2AB8     ; L_2AB8
2AB4: AD 08 46                   lda $4608     ; L_4607+1
2AB7: 60                         rts
2AB8: 38        L_2AB8           sec
2AB9: E9 17                      sbc #$17
2ABB: 85 EA                      sta $EA       ; FR2+4
2ABD: AD 08 46                   lda $4608     ; L_4607+1
2AC0: 38                         sec
2AC1: E5 EA                      sbc $EA       ; FR2+4
2AC3: 8D 08 46                   sta $4608     ; L_4607+1
2AC6: 60                         rts
2AC7: 20 B4 3B  L_2AC7           jsr $3BB4     ; L_3BB0+4
2ACA: A9 05                      lda #$05
2ACC: 4C 00 25                   jmp $2500     ; L_2500
2ACF: 00                         brk
2AD0: 8D C8 02  L_2AD0           sta $02C8     ; COLOR4
2AD3: A9 40                      lda #$40
2AD5: 85 10                      sta $10       ; POKMSK
2AD7: 8D 0E D2                   sta $D20E     ; IRQEN
2ADA: 60                         rts
2ADB: 00        L_2ADB           BYTE $00 $00 $00 $00 $00 $00 $00 $00
2AE3: 00                         BYTE $00 $00
2AE5: BD E2 2A                   lda $2AE2,x   ; L_2ADB+7
2AE8: C9 14                      cmp #$14
2AEA: 10 03                      bpl $2AEF     ; L_2AEF
2AEC: FE E2 2A                   inc $2AE2,x   ; L_2ADB+7
2AEF: 60        L_2AEF           rts
2AF0: A9 00                      lda #$00
2AF2: 9D E2 2A                   sta $2AE2,x   ; L_2ADB+7
2AF5: 00                         brk
2AF6: 00                         brk
2AF7: 00                         brk
2AF8: 00                         brk
2AF9: 00                         brk
2AFA: 00                         brk
2AFB: 00                         brk
2AFC: 00                         brk
2AFD: 00                         brk
2AFE: 00                         brk
2AFF: 00                         brk
2B00: 20 D5 43  L_2B00           jsr $43D5     ; L_43D5
2B03: EA        L_2B03           nop
2B04: 4C E0 2F                   jmp $2FE0     ; L_2FE0
2B07: 86 DC     L_2B07           stx $DC       ; FRE+2
2B09: 84 DD                      sty $DD       ; FRE+3
2B0B: A2 80                      ldx #$80
2B0D: A0 8A                      ldy #$8A
2B0F: 86 DE                      stx $DE       ; FRE+4
2B11: 84 DF                      sty $DF       ; FRE+5
2B13: A2 00                      ldx #$00
2B15: A0 00     L_2B15           ldy #$00
2B17: B1 DC     L_2B17           lda ($DC),y   ; FRE+2
2B19: 29 CC                      and #$CC
2B1B: 91 DE                      sta ($DE),y   ; FRE+4
2B1D: C8                         iny
2B1E: B1 DC                      lda ($DC),y   ; FRE+2
2B20: 29 33                      and #$33
2B22: 91 DE                      sta ($DE),y   ; FRE+4
2B24: C8                         iny
2B25: C0 08                      cpy #$08
2B27: D0 EE                      bne $2B17     ; L_2B17
2B29: A5 DC                      lda $DC       ; FRE+2
2B2B: 18                         clc
2B2C: 69 08                      adc #$08
2B2E: 85 DC                      sta $DC       ; FRE+2
2B30: 90 02                      bcc $2B34     ; L_2B34
2B32: E6 DD                      inc $DD       ; FRE+3
2B34: A5 DE     L_2B34           lda $DE       ; FRE+4
2B36: 18                         clc
2B37: 69 08                      adc #$08
2B39: 85 DE                      sta $DE       ; FRE+4
2B3B: 90 02                      bcc $2B3F     ; L_2B3F
2B3D: E6 DF                      inc $DF       ; FRE+5
2B3F: E8        L_2B3F           inx
2B40: E0 10                      cpx #$10
2B42: D0 D1                      bne $2B15     ; L_2B15
2B44: A2 30                      ldx #$30
2B46: A0 9B                      ldy #$9B
2B48: 86 DC                      stx $DC       ; FRE+2
2B4A: 84 DD                      sty $DD       ; FRE+3
2B4C: A2 00                      ldx #$00
2B4E: A0 00     L_2B4E           ldy #$00
2B50: B1 DC     L_2B50           lda ($DC),y   ; FRE+2
2B52: 29 7F                      and #$7F
2B54: C9 01                      cmp #$01
2B56: F0 13                      beq $2B6B     ; L_2B6B
2B58: C9 03                      cmp #$03
2B5A: F0 0F                      beq $2B6B     ; L_2B6B
2B5C: C9 05                      cmp #$05
2B5E: F0 0B                      beq $2B6B     ; L_2B6B
2B60: C9 07                      cmp #$07
2B62: F0 07                      beq $2B6B     ; L_2B6B
2B64: C9 1D                      cmp #$1D
2B66: F0 03                      beq $2B6B     ; L_2B6B
2B68: 4C 91 2B                   jmp $2B91     ; L_2B91
2B6B: 84 FF     L_2B6B           sty $FF       ; FPTR2+1
2B6D: 86 FE                      stx $FE       ; FPTR2
2B6F: 98                         tya
2B70: 18                         clc
2B71: 69 29                      adc #$29
2B73: A8                         tay
2B74: A2 00                      ldx #$00
2B76: B1 DC     L_2B76           lda ($DC),y   ; FRE+2
2B78: 29 7F                      and #$7F
2B7A: C9 38                      cmp #$38
2B7C: 30 09                      bmi $2B87     ; L_2B87
2B7E: C9 48                      cmp #$48
2B80: 10 05                      bpl $2B87     ; L_2B87
2B82: 18                         clc
2B83: 69 18                      adc #$18
2B85: 91 DC                      sta ($DC),y   ; FRE+2
2B87: C8        L_2B87           iny
2B88: E8                         inx
2B89: E0 02                      cpx #$02
2B8B: D0 E9                      bne $2B76     ; L_2B76
2B8D: A6 FE                      ldx $FE       ; FPTR2
2B8F: A4 FF                      ldy $FF       ; FPTR2+1
2B91: C8        L_2B91           iny
2B92: C8                         iny
2B93: C0 1A                      cpy #$1A
2B95: D0 B9                      bne $2B50     ; L_2B50
2B97: A5 DC                      lda $DC       ; FRE+2
2B99: 18                         clc
2B9A: 69 28                      adc #$28
2B9C: 85 DC                      sta $DC       ; FRE+2
2B9E: 90 02                      bcc $2BA2     ; L_2BA2
2BA0: E6 DD                      inc $DD       ; FRE+3
2BA2: E8        L_2BA2           inx
2BA3: E0 13                      cpx #$13
2BA5: D0 A7                      bne $2B4E     ; L_2B4E
2BA7: A2 00                      ldx #$00
2BA9: BD 30 9B  L_2BA9           lda $9B30,x
2BAC: C9 38                      cmp #$38
2BAE: 30 0A                      bmi $2BBA     ; L_2BBA
2BB0: C9 48                      cmp #$48
2BB2: 10 06                      bpl $2BBA     ; L_2BBA
2BB4: 18                         clc
2BB5: 69 18                      adc #$18
2BB7: 9D 30 9B                   sta $9B30,x
2BBA: E8        L_2BBA           inx
2BBB: E0 1A                      cpx #$1A
2BBD: D0 EA                      bne $2BA9     ; L_2BA9
2BBF: A2 58                      ldx #$58
2BC1: A0 9B                      ldy #$9B
2BC3: 86 DC                      stx $DC       ; FRE+2
2BC5: 84 DD                      sty $DD       ; FRE+3
2BC7: A2 00                      ldx #$00
2BC9: A0 00                      ldy #$00
2BCB: B1 DC     L_2BCB           lda ($DC),y   ; FRE+2
2BCD: C9 38                      cmp #$38
2BCF: 30 09                      bmi $2BDA     ; L_2BDA
2BD1: C9 48                      cmp #$48
2BD3: 10 05                      bpl $2BDA     ; L_2BDA
2BD5: 18                         clc
2BD6: 69 18                      adc #$18
2BD8: 91 DC                      sta ($DC),y   ; FRE+2
2BDA: A5 DC     L_2BDA           lda $DC       ; FRE+2
2BDC: 18                         clc
2BDD: 69 28                      adc #$28
2BDF: 85 DC                      sta $DC       ; FRE+2
2BE1: 90 02                      bcc $2BE5     ; L_2BE5
2BE3: E6 DD                      inc $DD       ; FRE+3
2BE5: E8        L_2BE5           inx
2BE6: E0 19                      cpx #$19
2BE8: D0 E1                      bne $2BCB     ; L_2BCB
2BEA: 60                         rts
2BEB: 00                         BYTE $00 $00 $00 $00 $00 $00 $00 $00
2BF3: 00                         BYTE $00 $00 $00 $00 $00 $00 $00 $00
2BFB: 00        L_2BFB           BYTE $00 $00 $00 $00 $00 $10 $11 $12
2C03: 17        L_2C03           BYTE $17 $12 $10 $10 $10 $20 $71 $5C
2C0B: A2 00                      ldx #$00
2C0D: BD 67 9F  L_2C0D           lda $9F67,x
2C10: DD 00 2C                   cmp $2C00,x   ; L_2BFB+5
2C13: F0 04                      beq $2C19     ; L_2C19
2C15: 30 17                      bmi $2C2E     ; L_2C2E
2C17: B0 05                      bcs $2C1E     ; L_2C1E
2C19: E8        L_2C19           inx
2C1A: E0 06                      cpx #$06
2C1C: D0 EF                      bne $2C0D     ; L_2C0D
2C1E: A2 00     L_2C1E           ldx #$00
2C20: BD 67 9F  L_2C20           lda $9F67,x
2C23: 9D 71 9F                   sta $9F71,x
2C26: 9D 00 2C                   sta $2C00,x   ; L_2BFB+5
2C29: E8                         inx
2C2A: E0 06                      cpx #$06
2C2C: D0 F2                      bne $2C20     ; L_2C20
2C2E: 60        L_2C2E           rts
2C2F: AE 7F 36  L_2C2F           ldx $367F     ; L_367B+4
2C32: 8E 36 35                   stx $3536     ; L_3533+3
2C35: BD 28 35                   lda $3528,x   ; L_3523+5
2C38: 85 DC                      sta $DC       ; FRE+2
2C3A: BD 29 35                   lda $3529,x   ; L_3523+6
2C3D: 85 DD                      sta $DD       ; FRE+3
2C3F: A0 00                      ldy #$00
2C41: A9 04                      lda #$04
2C43: 91 DC                      sta ($DC),y   ; FRE+2
2C45: AD 80 36                   lda $3680     ; L_367B+5
2C48: 18                         clc
2C49: 69 11                      adc #$11
2C4B: 8D B6 9D                   sta $9DB6
2C4E: AD A3 28                   lda $28A3     ; L_28A3
2C51: 18                         clc
2C52: 69 11                      adc #$11
2C54: 8D 06 9E                   sta $9E06
2C57: 60                         rts
2C58: 00                         BYTE $00 $00 $00 $00 $00 $00 $00 $00
2C60: 00        L_2C60           BYTE $00 $00 $00 $00 $00
2C65: BD 60 2C  L_2C65           lda $2C60,x   ; L_2C60
2C68: C9 14                      cmp #$14
2C6A: 10 04                      bpl $2C70     ; L_2C70
2C6C: FE 60 2C                   inc $2C60,x   ; L_2C60
2C6F: 60                         rts
2C70: A9 00     L_2C70           lda #$00
2C72: 9D 60 2C                   sta $2C60,x   ; L_2C60
2C75: AD 0B D4  L_2C75           lda $D40B     ; VCOUNT
2C78: 29 03                      and #$03
2C7A: DD C9 46                   cmp $46C9,x   ; L_46C8+1
2C7D: F0 F6                      beq $2C75     ; L_2C75
2C7F: 9D C9 46                   sta $46C9,x   ; L_46C8+1
2C82: 60                         rts
2C83: 9D 00 6D  L_2C83           sta $6D00,x
2C86: 9D 80 6D                   sta $6D80,x
2C89: 9D 00 6E                   sta $6E00,x
2C8C: 9D 80 6E                   sta $6E80,x
2C8F: 9D 00 6F                   sta $6F00,x
2C92: 9D 80 6F                   sta $6F80,x
2C95: E8                         inx
2C96: E0 80                      cpx #$80
2C98: D0 E9                      bne $2C83     ; L_2C83
2C9A: 60                         rts
2C9B: 00                         BYTE $00 $00 $00 $00 $00 $00 $00 $00
2CA3: 00                         BYTE $00 $00 $00 $00 $00 $00 $00 $00
2CAB: A5 EA     L_2CAB           lda $EA       ; FR2+4
2CAD: 4C 56 28                   jmp $2856     ; L_2856
2CB0: AD 03 4E                   lda $4E03     ; L_4E03
2CB3: C9 01                      cmp #$01
2CB5: D0 0B                      bne $2CC2     ; L_2CC2
2CB7: A9 04                      lda #$04
2CB9: 8D F3 46                   sta $46F3     ; L_46F0+3
2CBC: 8D F4 46                   sta $46F4     ; L_46F0+4
2CBF: 8D F5 46                   sta $46F5     ; L_46F0+5
2CC2: AD FE 7F  L_2CC2           lda $7FFE
2CC5: 8D 03 4E                   sta $4E03     ; L_4E03
2CC8: 60                         rts
2CC9: 00                         BYTE $00 $00 $00 $00 $00 $00 $00
2CD0: 20 F6 2C  L_2CD0           jsr $2CF6     ; L_2CF6
2CD3: C9 20                      cmp #$20
2CD5: F0 09                      beq $2CE0     ; L_2CE0
2CD7: 20 AB 2C                   jsr $2CAB     ; L_2CAB
2CDA: AE D4 46                   ldx $46D4     ; L_46D0+4
2CDD: 4C 4D 49                   jmp $494D     ; L_494D
2CE0: 4C 30 49  L_2CE0           jmp $4930     ; L_4930
2CE3: 20 F6 2C  L_2CE3           jsr $2CF6     ; L_2CF6
2CE6: C9 20                      cmp #$20
2CE8: F0 09                      beq $2CF3     ; L_2CF3
2CEA: 20 AB 2C                   jsr $2CAB     ; L_2CAB
2CED: AE D4 46                   ldx $46D4     ; L_46D0+4
2CF0: 4C 20 49                   jmp $4920     ; L_4920
2CF3: 4C 05 49  L_2CF3           jmp $4905     ; L_4905
2CF6: 85 EA     L_2CF6           sta $EA       ; FR2+4
2CF8: AD 00 40                   lda $4000     ; L_3FFD+3
2CFB: 60                         rts
2CFC: 00                         brk
2CFD: 00                         brk
2CFE: 00                         brk
2CFF: 00                         brk
2D00: A9 04     L_2D00           lda #$04
2D02: 8D F0 23                   sta $23F0     ; L_23E9+7
2D05: A9 00                      lda #$00
2D07: 8D 04 2E                   sta $2E04     ; L_2E03+1
2D0A: 8D F1 23                   sta $23F1     ; L_23F1
2D0D: 8D F2 23                   sta $23F2     ; L_23F1+1
2D10: 8D F3 23                   sta $23F3     ; L_23F1+2
2D13: 8D 02 2E                   sta $2E02     ; L_2DFB+7
2D16: 8D 03 2E                   sta $2E03     ; L_2E03
2D19: AD 00 40                   lda $4000     ; L_3FFD+3
2D1C: C9 20                      cmp #$20
2D1E: F0 06                      beq $2D26     ; L_2D26
2D20: 20 8F 28                   jsr $288F     ; L_288F
2D23: 20 0F 40                   jsr $400F     ; L_400F
2D26: A2 00     L_2D26           ldx #$00
2D28: A0 20                      ldy #$20
2D2A: 86 DC                      stx $DC       ; FRE+2
2D2C: 84 DD                      sty $DD       ; FRE+3
2D2E: A2 30                      ldx #$30
2D30: A0 9B                      ldy #$9B
2D32: 86 DE                      stx $DE       ; FRE+4
2D34: 84 DF                      sty $DF       ; FRE+5
2D36: A2 00                      ldx #$00
2D38: A0 00     L_2D38           ldy #$00
2D3A: B1 DE     L_2D3A           lda ($DE),y   ; FRE+4
2D3C: 91 DC                      sta ($DC),y   ; FRE+2
2D3E: C8                         iny
2D3F: C0 1A                      cpy #$1A
2D41: D0 F7                      bne $2D3A     ; L_2D3A
2D43: A5 DC                      lda $DC       ; FRE+2
2D45: 18                         clc
2D46: 69 28                      adc #$28
2D48: 85 DC                      sta $DC       ; FRE+2
2D4A: 90 02                      bcc $2D4E     ; L_2D4E
2D4C: E6 DD                      inc $DD       ; FRE+3
2D4E: A5 DE     L_2D4E           lda $DE       ; FRE+4
2D50: 18                         clc
2D51: 69 28                      adc #$28
2D53: 85 DE                      sta $DE       ; FRE+4
2D55: 90 02                      bcc $2D59     ; L_2D59
2D57: E6 DF                      inc $DF       ; FRE+5
2D59: E8        L_2D59           inx
2D5A: E0 13                      cpx #$13
2D5C: D0 DA                      bne $2D38     ; L_2D38
2D5E: A2 00                      ldx #$00
2D60: A9 10                      lda #$10
2D62: 9D F8 23  L_2D62           sta $23F8,x   ; L_23F1+7
2D65: E8                         inx
2D66: E0 06                      cpx #$06
2D68: D0 F8                      bne $2D62     ; L_2D62
2D6A: 4C 00 8E                   jmp $8E00
2D6D: AD 04 1F                   lda $1F04     ; L_1F04
2D70: 9D 48 03                   sta $0348,x   ; B0_ICBLL
2D73: AD 05 1F                   lda $1F05     ; L_1F05
2D76: 9D 49 03                   sta $0349,x   ; B0_ICBLH
2D79: A9 07                      lda #$07
2D7B: 9D 42 03                   sta $0342,x   ; B0_ICCOM
2D7E: 20 56 E4                   jsr $E456     ; CIOV
2D81: 10 0A                      bpl $2D8D     ; L_2D8D
2D83: C0 88                      cpy #$88
2D85: F0 03                      beq $2D8A     ; L_2D8A
2D87: 4C F0 31                   jmp $31F0     ; L_31EB+5
2D8A: CE 0A 1F  L_2D8A           dec $1F0A     ; L_1F0A
2D8D: A2 2C     L_2D8D           ldx #$2C
2D8F: A9 7D                      lda #$7D
2D91: 20 B0 31                   jsr $31B0     ; L_31AB+5
2D94: 20 37 30                   jsr $3037     ; L_3033+4
2D97: 2C F5 1E                   bit $1EF5     ; L_1EF5
2D9A: 10 03                      bpl $2D9F     ; L_2D9F
2D9C: 4C 1A 2E                   jmp $2E1A     ; L_2E1A
2D9F: A2 20     L_2D9F           ldx #$20
2DA1: A0 09                      ldy #$09
2DA3: AD 0B 1F                   lda $1F0B     ; L_1F0B
2DA6: D0 05                      bne $2DAD     ; L_2DAD
2DA8: A0 08                      ldy #$08
2DAA: EE 0B 1F                   inc $1F0B     ; L_1F0B
2DAD: 98        L_2DAD           tya
2DAE: 9D 4A 03                   sta $034A,x   ; B0_ICAX1
2DB1: A9 03                      lda #$03
2DB3: 9D 42 03                   sta $0342,x   ; B0_ICCOM
2DB6: A9 7C                      lda #$7C
2DB8: A0 1D                      ldy #$1D
2DBA: 2C 8F 23                   bit $238F     ; L_2389+6
2DBD: 50 04                      bvc $2DC3     ; L_2DC3
2DBF: A9 B2                      lda #$B2
2DC1: A0 23                      ldy #$23
2DC3: 9D 44 03  L_2DC3           sta $0344,x   ; B0_ICBAL
2DC6: 98                         tya
2DC7: 9D 45 03                   sta $0345,x   ; B0_ICBAH
2DCA: 20 E9 31                   jsr $31E9     ; L_31E3+6
2DCD: A0 10                      ldy #$10
2DCF: A2 20                      ldx #$20
2DD1: A9 00                      lda #$00
2DD3: D9 48 03                   cmp $0348,y   ; B0_ICBLL
2DD6: D0 05                      bne $2DDD     ; L_2DDD
2DD8: D9 49 03                   cmp $0349,y   ; B0_ICBLH
2DDB: F0 1E                      beq $2DFB     ; L_2DFB
2DDD: A9 0B     L_2DDD           lda #$0B
2DDF: 9D AE 04  L_2DDF           sta $04AE,x
2DE2: 2E A9 01                   rol $01A9
2DE5: 9D 02 2E                   sta $2E02,x   ; L_2DFB+7
2DE8: 4C 05 2E                   jmp $2E05     ; L_2E05
2DEB: 03                         BYTE $03 $B9 $48 $03 $9D $48 $03 $B9
2DF3: 49                         BYTE $49 $03 $9D $49 $03 $20 $0A $26
2DFB: 2D        L_2DFB           BYTE $2D $C0 $00 $FF $47 $00 $00 $00
2E03: 00        L_2E03           BYTE $00 $00
2E05: AD 02 2E  L_2E05           lda $2E02     ; L_2DFB+7
2E08: 18                         clc
2E09: 6D 03 2E                   adc $2E03     ; L_2E03
2E0C: F0 05                      beq $2E13     ; L_2E13
2E0E: A9 00                      lda #$00
2E10: 8D 00 2E                   sta $2E00     ; L_2DFB+5
2E13: C9 02     L_2E13           cmp #$02
2E15: D0 03                      bne $2E1A     ; L_2E1A
2E17: 4C FD 2F                   jmp $2FFD     ; L_2FFD
2E1A: AD 04 2E  L_2E1A           lda $2E04     ; L_2E03+1
2E1D: 49 01                      eor #$01
2E1F: AA                         tax
2E20: 8E 04 2E                   stx $2E04     ; L_2E03+1
2E23: AD 80 36                   lda $3680     ; L_367B+5
2E26: F0 08                      beq $2E30     ; L_2E30
2E28: AD 01 2E                   lda $2E01     ; L_2DFB+6
2E2B: 49 01                      eor #$01
2E2D: 8D 01 2E                   sta $2E01     ; L_2DFB+6
2E30: A2 00     L_2E30           ldx #$00
2E32: A0 20                      ldy #$20
2E34: 86 DC                      stx $DC       ; FRE+2
2E36: 84 DD                      sty $DD       ; FRE+3
2E38: A2 00                      ldx #$00
2E3A: A0 6D                      ldy #$6D
2E3C: 86 DE                      stx $DE       ; FRE+4
2E3E: 84 DF                      sty $DF       ; FRE+5
2E40: A2 30                      ldx #$30
2E42: A0 9B                      ldy #$9B
2E44: 86 FC                      stx $FC       ; FLPTR
2E46: 84 FD                      sty $FD       ; FLPTR+1
2E48: A2 00                      ldx #$00
2E4A: A0 00     L_2E4A           ldy #$00
2E4C: B1 DC     L_2E4C           lda ($DC),y   ; FRE+2
2E4E: 85 FF                      sta $FF       ; FPTR2+1
2E50: B1 FC                      lda ($FC),y   ; FLPTR
2E52: 91 DC                      sta ($DC),y   ; FRE+2
2E54: A5 FF                      lda $FF       ; FPTR2+1
2E56: 91 DE                      sta ($DE),y   ; FRE+4
2E58: C8                         iny
2E59: C0 1A                      cpy #$1A
2E5B: D0 EF                      bne $2E4C     ; L_2E4C
2E5D: A5 DE                      lda $DE       ; FRE+4
2E5F: 18                         clc
2E60: 69 28                      adc #$28
2E62: 85 DE                      sta $DE       ; FRE+4
2E64: 85 DC                      sta $DC       ; FRE+2
2E66: 90 04                      bcc $2E6C     ; L_2E6C
2E68: E6 DF                      inc $DF       ; FRE+5
2E6A: E6 DD                      inc $DD       ; FRE+3
2E6C: A5 FC     L_2E6C           lda $FC       ; FLPTR
2E6E: 18                         clc
2E6F: 69 28                      adc #$28
2E71: 85 FC                      sta $FC       ; FLPTR
2E73: 90 02                      bcc $2E77     ; L_2E77
2E75: E6 FD                      inc $FD       ; FLPTR+1
2E77: E8        L_2E77           inx
2E78: E0 13                      cpx #$13
2E7A: D0 CE                      bne $2E4A     ; L_2E4A
2E7C: AE F4 31                   ldx $31F4     ; LIVES
2E7F: AC F0 23                   ldy $23F0     ; L_23E9+7
2E82: 8C F4 31                   sty $31F4     ; LIVES
2E85: 8E F0 23                   stx $23F0     ; L_23E9+7
2E88: AE 00 40                   ldx $4000     ; L_3FFD+3
2E8B: AC F1 23                   ldy $23F1     ; L_23F1
2E8E: 8C 00 40                   sty $4000     ; L_3FFD+3
2E91: 8E F1 23                   stx $23F1     ; L_23F1
2E94: AE 00 39                   ldx $3900     ; L_38FE+2
2E97: AC F2 23                   ldy $23F2     ; L_23F1+1
2E9A: 8C 00 39                   sty $3900     ; L_38FE+2
2E9D: 8E F2 23                   stx $23F2     ; L_23F1+1
2EA0: A2 00                      ldx #$00
2EA2: BD F8 23  L_2EA2           lda $23F8,x   ; L_23F1+7
2EA5: 85 FF                      sta $FF       ; FPTR2+1
2EA7: BD 67 9F                   lda $9F67,x
2EAA: 9D F8 23                   sta $23F8,x   ; L_23F1+7
2EAD: A5 FF                      lda $FF       ; FPTR2+1
2EAF: 9D 00 8F                   sta $8F00,x
2EB2: E8                         inx
2EB3: E0 06                      cpx #$06
2EB5: D0 EB                      bne $2EA2     ; L_2EA2
2EB7: A2 00                      ldx #$00
2EB9: A9 00     L_2EB9           lda #$00
2EBB: 9D 60 9F                   sta $9F60,x
2EBE: E8                         inx
2EBF: E0 28                      cpx #$28
2EC1: D0 F6                      bne $2EB9     ; L_2EB9
2EC3: A2 00                      ldx #$00
2EC5: A0 00                      ldy #$00
2EC7: 20 81 28                   jsr $2881     ; L_2881
2ECA: AD 00 40                   lda $4000     ; L_3FFD+3
2ECD: C9 20                      cmp #$20
2ECF: D0 06                      bne $2ED7     ; L_2ED7
2ED1: 20 03 15                   jsr $1503     ; L_1503
2ED4: 4C DD 2E                   jmp $2EDD     ; L_2EDD
2ED7: 20 F9 42  L_2ED7           jsr $42F9     ; L_42F9
2EDA: 20 4A 4D                   jsr $4D4A     ; L_4D4A
2EDD: A2 00     L_2EDD           ldx #$00
2EDF: A0 6D                      ldy #$6D
2EE1: 86 DC                      stx $DC       ; FRE+2
2EE3: 84 DD                      sty $DD       ; FRE+3
2EE5: A2 30                      ldx #$30
2EE7: A0 9B                      ldy #$9B
2EE9: 86 DE                      stx $DE       ; FRE+4
2EEB: 84 DF                      sty $DF       ; FRE+5
2EED: A2 00                      ldx #$00
2EEF: A0 00     L_2EEF           ldy #$00
2EF1: B1 DC     L_2EF1           lda ($DC),y   ; FRE+2
2EF3: 91 DE                      sta ($DE),y   ; FRE+4
2EF5: C8                         iny
2EF6: C0 1A                      cpy #$1A
2EF8: D0 F7                      bne $2EF1     ; L_2EF1
2EFA: A5 DC                      lda $DC       ; FRE+2
2EFC: 18                         clc
2EFD: 69 28                      adc #$28
2EFF: 85 DC                      sta $DC       ; FRE+2
2F01: 90 02                      bcc $2F05     ; L_2F05
2F03: E6 DD                      inc $DD       ; FRE+3
2F05: A5 DE     L_2F05           lda $DE       ; FRE+4
2F07: 18                         clc
2F08: 69 28                      adc #$28
2F0A: 85 DE                      sta $DE       ; FRE+4
2F0C: 90 02                      bcc $2F10     ; L_2F10
2F0E: E6 DF                      inc $DF       ; FRE+5
2F10: E8        L_2F10           inx
2F11: E0 13                      cpx #$13
2F13: D0 DA                      bne $2EEF     ; L_2EEF
2F15: AD 00 40                   lda $4000     ; L_3FFD+3
2F18: C9 20                      cmp #$20
2F1A: D0 08                      bne $2F24     ; L_2F24
2F1C: A2 00                      ldx #$00
2F1E: 20 1A 40                   jsr $401A     ; L_401A
2F21: 20 03 15                   jsr $1503     ; L_1503
2F24: 20 D5 43  L_2F24           jsr $43D5     ; L_43D5
2F27: A9 03                      lda #$03
2F29: 8D 1D D0                   sta $D01D     ; GRACTL
2F2C: A9 2E                      lda #$2E
2F2E: 8D 2F 02                   sta $022F     ; SDMCTL
2F31: 20 03 2B                   jsr $2B03     ; L_2B03
2F34: 4C 4C 3A                   jmp $3A4C     ; L_3A4C
2F37: 20 65 2C  L_2F37           jsr $2C65     ; L_2C65
2F3A: 4C 09 28                   jmp $2809     ; L_2809
2F3D: 00                         BYTE $00 $00 $00 $00 $C0 $30 $FF $46
2F45: 49                         BYTE $49 $4E $0C $22 $2E $C0 $39 $FF
2F4D: 4F                         BYTE $4F $4E $45 $44 $45 $56 $09 $34
2F55: 2E                         BYTE $2E $C0 $4E $00 $42 $52 $32 $08
2F5D: 36                         BYTE $36 $2E $C0 $00 $FF $42 $52 $08
2F65: 56                         BYTE $56 $2E $C0 $56 $FF $53 $57 $09
2F6D: 94                         BYTE $94 $2E $C0 $67 $00 $41 $48 $31
2F75: 09                         BYTE $09 $96 $2E $C0 $00 $FF $41 $48
2F7D: 32                         BYTE $32 $08 $AA $2E $C0 $78 $00 $4D
2F85: 31                         BYTE $31 $08 $B5 $2E $C0 $00 $FF $4D
2F8D: 32                         BYTE $32 $07 $BA $2E $C0 $80 $FF $4C
2F95: 00                         BYTE $00 $00 $00 $00 $00 $00 $00 $00
2F9D: 00                         BYTE $00 $00 $00
2FA0: 8D 08 D0  L_2FA0           sta $D008     ; SIZEP0
2FA3: 8D 60 2C                   sta $2C60     ; L_2C60
2FA6: 8D 61 2C                   sta $2C61     ; L_2C60+1
2FA9: 8D 62 2C                   sta $2C62     ; L_2C60+2
2FAC: 60                         rts
2FAD: 00                         brk
2FAE: 00                         brk
2FAF: 00                         brk
2FB0: 20 00 28  L_2FB0           jsr $2800     ; L_2800
2FB3: A9 00                      lda #$00
2FB5: 9D 60 2C                   sta $2C60,x   ; L_2C60
2FB8: 60                         rts
2FB9: A2 CC     L_2FB9           ldx #$CC
2FBB: A0 2F                      ldy #$2F
2FBD: 86 02                      stx $02       ; CASINI
2FBF: 84 03                      sty $03       ; CASINI+1
2FC1: 86 0A                      stx $0A       ; DOSVEC
2FC3: 84 0B                      sty $0B       ; DOSVEC+1
2FC5: 86 0C                      stx $0C       ; DOSINI
2FC7: 84 0D                      sty $0D       ; DOSINI+1
2FC9: 4C D2 2F                   jmp $2FD2     ; L_2FD2
2FCC: A2 FF                      ldx #$FF
2FCE: 9A                         txs
2FCF: 4C 00 35                   jmp $3500     ; L_3500
2FD2: A9 8A     L_2FD2           lda #$8A
2FD4: 8D 40 44                   sta $4440     ; L_443F+1
2FD7: A9 88                      lda #$88
2FD9: 8D 53 44                   sta $4453     ; L_4452+1
2FDC: 4C 81 36                   jmp $3681     ; L_3681
2FDF: 00                         brk
2FE0: AD 00 40  L_2FE0           lda $4000     ; L_3FFD+3
2FE3: C9 20                      cmp #$20
2FE5: D0 01                      bne $2FE8     ; L_2FE8
2FE7: 60                         rts
2FE8: A2 C0     L_2FE8           ldx #$C0
2FEA: A0 89                      ldy #$89
2FEC: 4C 07 2B                   jmp $2B07     ; L_2B07
2FEF: 00                         BYTE $00 $00 $00 $00 $00 $00 $00 $00
2FF7: 00                         BYTE $00 $00 $00 $00 $00 $00
2FFD: 4C C7 33  L_2FFD           jmp $33C7     ; L_33C7
3000: 4C 20 2A  L_3000           jmp $2A20     ; L_2A20
3003: 00                         BYTE $00 $00 $00 $00 $00 $00 $00 $50
300B: 64                         BYTE $64 $82 $7F $E5 $E4 $60 $26 $00
3013: 00                         BYTE $00 $00 $00 $00 $00 $00 $88 $CC
301B: 82                         BYTE $82 $FC $2E $2E $4C $88 $00 $00
3023: 00                         BYTE $00 $00 $00 $00 $00 $17 $1B $15
302B: 00                         BYTE $00 $1A $1B $1F $1D $00 $00 $00
3033: 00        L_3033           BYTE $00 $00 $00 $00 $70 $30 $70 $00
303B: D0                         BYTE $D0 $D0 $B0 $70 $00 $00 $00 $00
3043: 00                         BYTE $00 $00 $00 $20 $60 $80 $E0 $E1
304B: 64                         BYTE $64 $20 $00 $00 $00 $00 $00 $00
3053: 00                         BYTE $00 $00 $08 $0C $0E $02 $0E $2E
305B: 4C                         BYTE $4C $88 $00 $00 $00 $00 $00 $01
3063: 17                         BYTE $17 $17 $1B $7D $1D $1C $1B $1F
306B: 19                         BYTE $19 $00 $00 $00 $00 $00 $00 $60
3073: 70                         BYTE $70 $B0 $F0 $FC $D0 $D0 $B0 $70
307B: 00                         BYTE $00 $00 $00 $00 $00 $00 $00 $22
3083: 60                         BYTE $60 $80 $E0 $E0 $64 $64 $26 $00
308B: 00                         BYTE $00 $00 $00 $00 $00 $08 $0C $0E
3093: 06                         BYTE $06 $0A $2E $4E $8C $08 $00 $00
309B: 00                         BYTE $00 $01 $03 $17 $16 $10 $1D $7D
30A3: 1D                         BYTE $1D $1B $1B $19 $1B $00 $00 $00
30AB: 20                         BYTE $20 $60 $70 $20 $30 $70 $78 $55
30B3: D0                         BYTE $D0 $90 $30 $70 $00 $00 $C0 $C0
30BB: 80                         BYTE $80 $00 $40 $C0 $80 $40 $C1 $C1
30C3: 90                         BYTE $90 $00 $00 $00 $00 $08 $0C $04
30CB: 00                         BYTE $00 $08 $0C $04 $00 $08 $2C $0C
30D3: 04                         BYTE $04 $00 $0F $0F $08 $00 $00 $21
30DB: 21                         BYTE $21 $11 $18 $1E $1E $1C $00 $00
30E3: 00                         BYTE $00 $00 $60 $70 $30 $30 $10 $80
30EB: B0                         BYTE $B0 $72 $F2 $92 $12 $22 $00 $00
30F3: 30                         BYTE $30 $30 $20 $10 $30 $20 $40 $40
30FB: 20                         BYTE $20 $60 $40 $00 $00 $00 $00 $00
3103: 00                         BYTE $00 $08 $0C $04 $00 $8C $28 $64
310B: C0                         BYTE $C0 $08 $28 $08 $04 $04 $00 $06
3113: 07                         BYTE $07 $00 $40 $41 $00 $04 $06 $07
311B: 07                         BYTE $07 $02 $00 $00 $00 $00 $40 $AC
3123: 70                         BYTE $70 $10 $00 $00 $04 $00 $00 $00
312B: 00                         BYTE $00 $04 $14 $20 $00 $08 $10 $00
3133: 10                         BYTE $10 $08 $10 $00 $40 $20 $40 $40
313B: 00                         BYTE $00 $00 $00 $00 $04 $04 $02 $00
3143: 04                         BYTE $04 $00 $02 $00 $04 $06 $00 $02
314B: 00                         BYTE $00 $00 $04 $00 $00 $00 $04 $06
3153: 00                         BYTE $00 $02 $00 $00 $00 $00 $00 $00
315B: 00                         BYTE $00 $A0 $80 $28 $88 $80 $40 $10
3163: 30                         BYTE $30 $00 $80 $80 $10 $00 $00 $00
316B: 00                         BYTE $00 $00 $20 $40 $00 $10 $20 $00
3173: 40                         BYTE $40 $40 $80 $00 $00 $00 $00 $00
317B: 00                         BYTE $00 $00 $00 $08 $00 $08 $00 $10
3183: 00                         BYTE $00 $00 $08 $00 $04 $00 $0A $00
318B: 00                         BYTE $00 $02 $08 $04 $00 $00 $04 $00
3193: 00                         BYTE $00 $00 $00 $00 $00 $00 $00 $00
319B: 00                         BYTE $00 $50 $00 $00 $00 $20 $00 $00
31A3: 10                         BYTE $10 $00 $00 $00 $00 $00 $00 $00
31AB: 00        L_31AB           BYTE $00 $08 $00 $00 $04 $00 $00 $10
31B3: 00                         BYTE $00 $00 $00 $00 $00 $00 $00 $00
31BB: 00                         BYTE $00 $00 $08 $00 $00 $10 $00 $00
31C3: 08                         BYTE $08 $00 $00 $00 $00 $00 $00 $00
31CB: 00                         BYTE $00 $00 $01 $00 $00 $01 $00 $00
31D3: 00                         BYTE $00 $00 $00 $00 $00 $00 $00 $10
31DB: 40                         BYTE $40 $00 $00 $00 $00 $00 $00 $10
31E3: 27        L_31E3           BYTE $27 $21 $2D $25 $00 $2F $36 $25
31EB: 32        L_31EB           BYTE $32 $00 $30 $2C $21 $39 $25 $32
31F3: 01        L_31F3           BYTE $01 $04 $00
31F6: 48                         pha
31F7: A9 01                      lda #$01
31F9: 8D F3 31                   sta $31F3     ; L_31F3
31FC: 68                         pla
31FD: 4C 62 E4                   jmp $E462     ; XITVBV
3200: A9 0F     L_3200           lda #$0F
3202: 8D 1D D0                   sta $D01D     ; GRACTL
3205: A2 00                      ldx #$00
3207: 8E F3 31                   stx $31F3     ; L_31F3
320A: 8E 00 D0                   stx $D000     ; HPOSP0
320D: 8E 01 D0                   stx $D001     ; HPOSP1
3210: 8E 02 D0                   stx $D002     ; HPOSP2
3213: 8E 03 D0                   stx $D003     ; HPOSP3
3216: 8E 04 D0                   stx $D004     ; HPOSM0
3219: 8E 05 D0                   stx $D005     ; HPOSM1
321C: 8E 06 D0                   stx $D006     ; HPOSM2
321F: 8E 07 D0                   stx $D007     ; HPOSM3
3222: 8A                         txa
3223: 9D 00 6C  L_3223           sta $6C00,x
3226: 9D 00 6D                   sta $6D00,x
3229: 9D 00 6E                   sta $6E00,x
322C: 9D 00 6F                   sta $6F00,x
322F: E8                         inx
3230: D0 F1                      bne $3223     ; L_3223
3232: A9 01                      lda #$01
3234: 8D 6F 02                   sta $026F     ; GPRIOR
3237: A2 3E                      ldx #$3E
3239: A0 03                      ldy #$03
323B: A9 68                      lda #$68
323D: 8D 07 D4                   sta $D407     ; PMBASE
3240: 8E 2F 02                   stx $022F     ; SDMCTL
3243: 8C 1D D0                   sty $D01D     ; GRACTL
3246: A9 00                      lda #$00
3248: 85 FF                      sta $FF       ; FPTR2+1
324A: 8D F3 31                   sta $31F3     ; L_31F3
324D: A9 07                      lda #$07
324F: A0 F6                      ldy #$F6
3251: A2 31                      ldx #$31
3253: 20 00 1F                   jsr $1F00     ; L_1F00
3256: AD F3 31  L_3256           lda $31F3     ; L_31F3
3259: F0 FB                      beq $3256     ; L_3256
325B: AD 09 44                   lda $4409     ; L_4405+4
325E: 18                         clc
325F: 69 36                      adc #$36
3261: 8D 00 D0                   sta $D000     ; HPOSP0
3264: 8D 02 D0                   sta $D002     ; HPOSP2
3267: 18                         clc
3268: 69 08                      adc #$08
326A: 8D 01 D0                   sta $D001     ; HPOSP1
326D: 8D 03 D0                   sta $D003     ; HPOSP3
3270: A9 1F                      lda #$1F
3272: 8D C0 02                   sta $02C0     ; PCOLR0
3275: 8D C1 02                   sta $02C1     ; PCOLR1
3278: AD C4 02                   lda $02C4     ; COLOR0
327B: 8D C2 02                   sta $02C2     ; PCOLR2
327E: 8D C3 02                   sta $02C3     ; PCOLR3
3281: A9 00                      lda #$00
3283: 8D 09 44                   sta $4409     ; L_4405+4
3286: 20 CB 44                   jsr $44CB     ; L_44CB
3289: 20 F1 44                   jsr $44F1     ; L_44F1
328C: A2 03                      ldx #$03
328E: A0 30                      ldy #$30
3290: 86 DC                      stx $DC       ; FRE+2
3292: 84 DD                      sty $DD       ; FRE+3
3294: A2 C8     L_3294           ldx #$C8
3296: A0 6C                      ldy #$6C
3298: 86 DE                      stx $DE       ; FRE+4
329A: 84 DF                      sty $DF       ; FRE+5
329C: A2 00                      ldx #$00
329E: 8E C6 02                   stx $02C6     ; COLOR2
32A1: A0 00     L_32A1           ldy #$00
32A3: B1 DC     L_32A3           lda ($DC),y   ; FRE+2
32A5: 91 DE                      sta ($DE),y   ; FRE+4
32A7: C8                         iny
32A8: C0 0F                      cpy #$0F
32AA: D0 F7                      bne $32A3     ; L_32A3
32AC: E6 DF                      inc $DF       ; FRE+5
32AE: A5 DC                      lda $DC       ; FRE+2
32B0: 18                         clc
32B1: 69 0F                      adc #$0F
32B3: 85 DC                      sta $DC       ; FRE+2
32B5: 90 02                      bcc $32B9     ; L_32B9
32B7: E6 DD                      inc $DD       ; FRE+3
32B9: E8        L_32B9           inx
32BA: E0 04                      cpx #$04
32BC: D0 E3                      bne $32A1     ; L_32A1
32BE: A2 00                      ldx #$00
32C0: A0 00                      ldy #$00
32C2: C8        L_32C2           iny
32C3: D0 FD                      bne $32C2     ; L_32C2
32C5: E8                         inx
32C6: E0 50                      cpx #$50
32C8: D0 F8                      bne $32C2     ; L_32C2
32CA: E6 FF                      inc $FF       ; FPTR2+1
32CC: CE C0 02                   dec $02C0     ; PCOLR0
32CF: CE C1 02                   dec $02C1     ; PCOLR1
32D2: CE C2 02                   dec $02C2     ; PCOLR2
32D5: CE C3 02                   dec $02C3     ; PCOLR3
32D8: A5 FF                      lda $FF       ; FPTR2+1
32DA: C9 08                      cmp #$08
32DC: D0 B6                      bne $3294     ; L_3294
32DE: A9 00                      lda #$00
32E0: 8D 00 D0                   sta $D000     ; HPOSP0
32E3: 8D 01 D0                   sta $D001     ; HPOSP1
32E6: 8D 02 D0                   sta $D002     ; HPOSP2
32E9: 8D 03 D0                   sta $D003     ; HPOSP3
32EC: 8D 04 D0                   sta $D004     ; HPOSM0
32EF: 8D 05 D0                   sta $D005     ; HPOSM1
32F2: 8D 06 D0                   sta $D006     ; HPOSM2
32F5: 8D 07 D0                   sta $D007     ; HPOSM3
32F8: A9 00                      lda #$00
32FA: 8D 1D D0                   sta $D01D     ; GRACTL
32FD: 8D B0 57                   sta $57B0
3300: 8D B1 57                   sta $57B1
3303: 8D B2 57                   sta $57B2
3306: 8D B3 57                   sta $57B3
3309: 8D B4 57                   sta $57B4
330C: 8D B5 57                   sta $57B5
330F: 20 C5 59                   jsr $59C5
3312: 20 C5 59                   jsr $59C5
3315: 20 C5 59                   jsr $59C5
3318: 4C 53 33                   jmp $3353     ; L_3353
331B: A2 00     L_331B           ldx #$00
331D: A0 6D                      ldy #$6D
331F: 86 DC                      stx $DC       ; FRE+2
3321: 84 DD                      sty $DD       ; FRE+3
3323: A2 30                      ldx #$30
3325: A0 9B                      ldy #$9B
3327: 86 DE                      stx $DE       ; FRE+4
3329: 84 DF                      sty $DF       ; FRE+5
332B: A2 00                      ldx #$00
332D: A0 00     L_332D           ldy #$00
332F: B1 DC     L_332F           lda ($DC),y   ; FRE+2
3331: 91 DE     L_3331           sta ($DE),y   ; FRE+4
3333: C8                         iny
3334: C0 1A                      cpy #$1A
3336: D0 F7                      bne $332F     ; L_332F
3338: A5 DE                      lda $DE       ; FRE+4
333A: 18                         clc
333B: 69 28                      adc #$28
333D: 85 DE                      sta $DE       ; FRE+4
333F: 90 02                      bcc $3343     ; L_3343
3341: E6 DF                      inc $DF       ; FRE+5
3343: 98        L_3343           tya
3344: 18                         clc
3345: 65 DC                      adc $DC       ; FRE+2
3347: 85 DC                      sta $DC       ; FRE+2
3349: 90 02                      bcc $334D     ; L_334D
334B: E6 DD                      inc $DD       ; FRE+3
334D: E8        L_334D           inx
334E: E0 13                      cpx #$13
3350: D0 DB                      bne $332D     ; L_332D
3352: 60                         rts
3353: AD F4 31  L_3353           lda $31F4     ; LIVES
3356: F0 6F                      beq $33C7     ; L_33C7
3358: CE F4 31                   dec $31F4     ; LIVES
335B: A9 00                      lda #$00
335D: 8D 2F 02                   sta $022F     ; SDMCTL
3360: A9 DE                      lda #$DE
3362: 8D 30 33                   sta $3330     ; L_332F+1
3365: A9 DC                      lda #$DC
3367: 8D 32 33                   sta $3332     ; L_3331+1
336A: 20 1B 33                   jsr $331B     ; L_331B
336D: AD 00 2E                   lda $2E00     ; L_2DFB+5
3370: F0 03                      beq $3375     ; L_3375
3372: 4C 05 2E                   jmp $2E05     ; L_2E05
3375: A2 00     L_3375           ldx #$00
3377: BD 67 9F  L_3377           lda $9F67,x
337A: 9D 00 8F                   sta $8F00,x
337D: E8                         inx
337E: E0 06                      cpx #$06
3380: D0 F5                      bne $3377     ; L_3377
3382: A2 00                      ldx #$00
3384: 8A                         txa
3385: 9D 60 9F  L_3385           sta $9F60,x
3388: E8                         inx
3389: E0 28                      cpx #$28
338B: D0 F8                      bne $3385     ; L_3385
338D: A2 00                      ldx #$00
338F: A0 00                      ldy #$00
3391: 20 81 28                   jsr $2881     ; L_2881
3394: A9 DE                      lda #$DE
3396: 8D 32 33                   sta $3332     ; L_3331+1
3399: A9 DC                      lda #$DC
339B: 8D 30 33                   sta $3330     ; L_332F+1
339E: 20 1B 33                   jsr $331B     ; L_331B
33A1: AD 00 40                   lda $4000     ; L_3FFD+3
33A4: C9 20                      cmp #$20
33A6: D0 06                      bne $33AE     ; L_33AE
33A8: 20 03 15                   jsr $1503     ; L_1503
33AB: 4C B1 33                   jmp $33B1     ; L_33B1
33AE: 20 12 40  L_33AE           jsr $4012     ; L_4012
33B1: A9 07     L_33B1           lda #$07
33B3: A0 62                      ldy #$62
33B5: A2 E4                      ldx #$E4
33B7: 20 00 1F                   jsr $1F00     ; L_1F00
33BA: A9 03                      lda #$03
33BC: 8D 1D D0                   sta $D01D     ; GRACTL
33BF: A9 2E                      lda #$2E
33C1: 8D 2F 02                   sta $022F     ; SDMCTL
33C4: 4C 4C 3A                   jmp $3A4C     ; L_3A4C
33C7: A2 00     L_33C7           ldx #$00
33C9: 8A                         txa
33CA: 9D 60 9F  L_33CA           sta $9F60,x
33CD: E8                         inx
33CE: E0 28                      cpx #$28
33D0: D0 F8                      bne $33CA     ; L_33CA
33D2: A2 00                      ldx #$00
33D4: 86 DD                      stx $DD       ; FRE+3
33D6: BD E3 31  L_33D6           lda $31E3,x   ; L_31E3
33D9: 9D 6C 9F                   sta $9F6C,x
33DC: E8                         inx
33DD: E0 10                      cpx #$10
33DF: D0 F5                      bne $33D6     ; L_33D6
33E1: AD 04 2E                   lda $2E04     ; L_2E03+1
33E4: 18                         clc
33E5: 69 11                      adc #$11
33E7: 9D 6D 9F                   sta $9F6D,x
33EA: A9 3B                      lda #$3B
33EC: 9D 6E 9F                   sta $9F6E,x
33EF: A2 00     L_33EF           ldx #$00
33F1: A0 00     L_33F1           ldy #$00
33F3: C8        L_33F3           iny
33F4: D0 FD                      bne $33F3     ; L_33F3
33F6: E8                         inx
33F7: D0 F8                      bne $33F1     ; L_33F1
33F9: E6 DD                      inc $DD       ; FRE+3
33FB: A5 DD                      lda $DD       ; FRE+3
33FD: C9 06                      cmp #$06
33FF: D0 EE                      bne $33EF     ; L_33EF
3401: AD 00 2E                   lda $2E00     ; L_2DFB+5
3404: D0 03                      bne $3409     ; L_3409
3406: 4C 00 35                   jmp $3500     ; L_3500
3409: 4C E0 2D  L_3409           jmp $2DE0     ; L_2DDF+1
340C: 00                         BYTE $00 $00 $00 $00 $5C $C0 $1B $01
3414: 09                         BYTE $09 $09 $44 $C2 $00 $FF $58 $43
341C: 4F                         BYTE $4F $08 $81 $36 $C0 $09 $FF $45
3424: 50                         BYTE $50 $08 $03 $35 $C0 $42 $00 $44
342C: 4C                         BYTE $4C $09 $23 $35 $C0 $87 $00 $43
3434: 4F                         BYTE $4F $4C $0C $27 $35 $C0 $B6 $00
343C: 4B                         BYTE $4B $45 $59 $44 $41 $54 $0A $36
3444: 35                         BYTE $35 $C0 $74 $00 $4C $41 $53 $54
344C: 0A                         BYTE $0A $37 $35 $C0 $38 $FF $54 $45
3454: 58                         BYTE $58 $54 $0C $7F $36 $C0 $4E $00
345C: 44                         BYTE $44 $45 $56 $54 $59 $50 $0C $80
3464: 36                         BYTE $36 $C0 $D9 $00 $44 $45 $56 $4E
346C: 55                         BYTE $55 $4D $08 $C2 $36 $C0 $6B $00
3474: 50                         BYTE $50 $54 $09 $47 $37 $C0 $62 $FF
347C: 52                         BYTE $52 $41 $53 $09 $F1 $36 $C0 $91
3484: 00                         BYTE $00 $50 $54 $32 $09 $F3 $36 $C0
348C: A1                         BYTE $A1 $00 $4C $45 $53 $0A $03 $37
3494: C0                         BYTE $C0 $7D $FF $4E $45 $57 $54 $0A
349C: 1C                         BYTE $1C $37 $C0 $4E $FF $43 $4F $4E
34A4: 54                         BYTE $54 $08 $0E $37 $C0 $E2 $00 $50
34AC: 53                         BYTE $53 $08 $19 $37 $C0 $99 $FF $49
34B4: 4D                         BYTE $4D $0A $26 $37 $C0 $F6 $FF $4C
34BC: 4F                         BYTE $4F $4F $50 $0B $B6 $37 $C0 $AB
34C4: FF                         BYTE $FF $53 $54 $41 $52 $54 $09 $4C
34CC: 37                         BYTE $37 $C0 $BF $00 $4B $45 $59 $08
34D4: 55                         BYTE $55 $37 $C0 $45 $FF $4B $32 $09
34DC: 71                         BYTE $71 $37 $C0 $C7 $FF $41 $52 $50
34E4: 09                         BYTE $09 $64 $37 $C0 $D0 $FF $4F $55
34EC: 54                         BYTE $54 $09 $AB $37 $C0 $0A $FF $44
34F4: 45                         BYTE $45 $56 $08 $D3 $37 $C0 $4E $FF
34FC: 50                         BYTE $50 $50 $C2 $DA
3500: 4C A0 2A  L_3500           jmp $2AA0     ; L_2AA0
3503: 70        L_3503           BYTE $70 ; DL 8 scanlines
3504: 70                         BYTE $70 ; DL 8 scanlines
3505: 70                         BYTE $70 ; DL 8 scanlines
3506: 42                         BYTE $42 ; DL LMS Antic Mode 2
3507: 40 9C                      WORD $9C40
3509: 02                         BYTE $02 ; DL Antic Mode 2
350A: 02                         BYTE $02 ; DL Antic Mode 2
350B: 02                         BYTE $02 ; DL Antic Mode 2
350C: 02                         BYTE $02 ; DL Antic Mode 2
350D: 02                         BYTE $02 ; DL Antic Mode 2
350E: 02                         BYTE $02 ; DL Antic Mode 2
350F: 02                         BYTE $02 ; DL Antic Mode 2
3510: 02                         BYTE $02 ; DL Antic Mode 2
3511: 02                         BYTE $02 ; DL Antic Mode 2
3512: 02                         BYTE $02 ; DL Antic Mode 2
3513: 02                         BYTE $02 ; DL Antic Mode 2
3514: 02                         BYTE $02 ; DL Antic Mode 2
3515: 02                         BYTE $02 ; DL Antic Mode 2
3516: 02                         BYTE $02 ; DL Antic Mode 2
3517: 02                         BYTE $02 ; DL Antic Mode 2
3518: 02                         BYTE $02 ; DL Antic Mode 2
3519: 02                         BYTE $02 ; DL Antic Mode 2
351A: 02                         BYTE $02 ; DL Antic Mode 2
351B: 02                         BYTE $02 ; DL Antic Mode 2
351C: 02                         BYTE $02 ; DL Antic Mode 2
351D: 02                         BYTE $02 ; DL Antic Mode 2
351E: 02                         BYTE $02 ; DL Antic Mode 2
351F: 02                         BYTE $02 ; DL Antic Mode 2
3520: 41                         BYTE $41 ; DL JMP
3521: 03 35                      WORD $3503    ; L_3503
3523: 06        L_3523           BYTE $06 $0C $0A $08 $3F $C4 $9C $01
352B: 14                         BYTE $14 $9D $05 $64 $9D $12 $B4 $9D
3533: 0A        L_3533           BYTE $0A $04 $9E $03 $00 $00 $00 $00
353B: 00                         BYTE $00 $00 $00 $00 $33 $25 $2C $25
3543: 23                         BYTE $23 $34 $00 $39 $2F $35 $32 $00
354B: 29                         BYTE $29 $2E $30 $35 $34 $00 $24 $25
3553: 36                         BYTE $36 $29 $23 $25 $3B $0A $0A $0A
355B: 00                         BYTE $00 $00 $00 $00 $00 $00 $00 $00
3563: 00                         BYTE $00 $00 $00 $00 $00 $00 $21 $34
356B: 21                         BYTE $21 $32 $29 $00 $30 $21 $24 $24
3573: 2C                         BYTE $2C $25 $33 $3B $0A $0A $00 $00
357B: 00                         BYTE $00 $00 $00 $00 $00 $00 $00 $00
3583: 00                         BYTE $00 $00 $00 $00 $2A $2F $39 $33
358B: 34                         BYTE $34 $29 $23 $2B $3B $0A $0A $00
3593: 00                         BYTE $00 $00 $00 $00 $00 $00 $00 $00
359B: 00                         BYTE $00 $00 $00 $00 $00 $2B $25 $39
35A3: 22                         BYTE $22 $2F $21 $32 $24 $3B $0A $0A
35AB: 00                         BYTE $00 $00 $00 $00 $00 $00 $00 $00
35B3: 00                         BYTE $00 $00 $00 $00 $00 $00 $11 $00
35BB: 23                         BYTE $23 $2F $2E $34 $32 $2F $2C $2C
35C3: 25                         BYTE $25 $32 $3B $0A $0A $00 $00 $00
35CB: 00                         BYTE $00 $00 $00 $00 $00 $00 $00 $00
35D3: 00                         BYTE $00 $00 $00 $11 $00 $30 $2C $21
35DB: 39                         BYTE $39 $25 $32 $00 $2D $2F $24 $25
35E3: 3B                         BYTE $3B $0A $0A $0A $00 $00 $00 $00
35EB: 33                         BYTE $33 $25 $2C $25 $23 $34 $00 $2F
35F3: 30                         BYTE $30 $34 $29 $2F $2E $00 $35 $33
35FB: 29                         BYTE $29 $2E $27 $00 $26 $29 $32 $33
3603: 34                         BYTE $34 $00 $2C $25 $34 $34 $25 $32
360B: 3B                         BYTE $3B $0A $0A $00 $00 $00 $00 $26
3613: 29                         BYTE $29 $32 $25 $00 $22 $35 $34 $34
361B: 2F                         BYTE $2F $2E $03 $33 $34 $21 $32 $34
3623: 00                         BYTE $00 $2B $25 $39 $00 $22 $25 $27
362B: 29                         BYTE $29 $2E $33 $00 $27 $21 $2D $25
3633: 3B                         BYTE $3B $0A $0A $0A $00 $00 $00 $00
363B: 00                         BYTE $00 $00 $00 $01 $00 $34 $21 $29
3643: 34                         BYTE $34 $2F $00 $11 $19 $18 $17 $00
364B: 01                         BYTE $01 $00 $29 $2D $21 $27 $29 $2E
3653: 25                         BYTE $25 $00 $11 $19 $18 $17 $3B $0A
365B: 0A                         BYTE $0A $00 $00 $00 $00 $00 $00 $00
3663: 00                         BYTE $00 $00 $23 $2F $24 $25 $24 $00
366B: 22                         BYTE $22 $39 $00 $2D $29 $2B $25 $00
3673: 28                         BYTE $28 $35 $34 $23 $28 $29 $2E $33
367B: 2F        L_367B           BYTE $2F $2E $3B $0B $03 $00
3681: A9 00     L_3681           lda #$00
3683: 8D 2F 02                   sta $022F     ; SDMCTL
3686: A9 00                      lda #$00
3688: 85 4D                      sta $4D       ; ATRACT
368A: EA                         nop
368B: A2 03                      ldx #$03
368D: A0 35                      ldy #$35
368F: 8E 30 02                   stx $0230     ; SDLSTL
3692: 8C 31 02                   sty $0231     ; SDLSTH
3695: A2 19                      ldx #$19
3697: A0 1F                      ldy #$1F
3699: 8E 00 02                   stx $0200     ; VDSLST
369C: 8C 01 02                   sty $0201     ; VDSLST+1
369F: A9 00                      lda #$00
36A1: 8D 00 D0                   sta $D000     ; HPOSP0
36A4: 8D 01 D0                   sta $D001     ; HPOSP1
36A7: 8D 02 D0                   sta $D002     ; HPOSP2
36AA: 8D 03 D0                   sta $D003     ; HPOSP3
36AD: 8D C6 02                   sta $02C6     ; COLOR2
36B0: 20 D0 2A                   jsr $2AD0     ; L_2AD0
36B3: A9 0F                      lda #$0F
36B5: 8D C4 02                   sta $02C4     ; COLOR0
36B8: 8D C4 02                   sta $02C4     ; COLOR0
36BB: A9 03                      lda #$03
36BD: 8D 36 35                   sta $3536     ; L_3533+3
36C0: A2 00                      ldx #$00
36C2: A9 00     L_36C2           lda #$00
36C4: 9D 40 9C                   sta $9C40,x
36C7: 9D 40 9D                   sta $9D40,x
36CA: 9D 40 9E                   sta $9E40,x
36CD: 9D 40 9F                   sta $9F40,x
36D0: E8                         inx
36D1: D0 EF                      bne $36C2     ; L_36C2
36D3: A9 8C                      lda #$8C
36D5: 8D F4 02                   sta $02F4     ; CHBAS
36D8: A2 37                      ldx #$37
36DA: A0 35                      ldy #$35
36DC: 86 DC                      stx $DC       ; FRE+2
36DE: 84 DD                      sty $DD       ; FRE+3
36E0: A2 40                      ldx #$40
36E2: A0 9C                      ldy #$9C
36E4: 86 DE                      stx $DE       ; FRE+4
36E6: 84 DF                      sty $DF       ; FRE+5
36E8: A9 07                      lda #$07
36EA: A0 4A                      ldy #$4A
36EC: A2 37                      ldx #$37
36EE: 20 00 1F                   jsr $1F00     ; L_1F00
36F1: A0 00     L_36F1           ldy #$00
36F3: B1 DC     L_36F3           lda ($DC),y   ; FRE+2
36F5: C9 0A                      cmp #$0A
36F7: F0 0A                      beq $3703     ; L_3703
36F9: C9 0B                      cmp #$0B
36FB: F0 1F                      beq $371C     ; L_371C
36FD: 91 DE                      sta ($DE),y   ; FRE+4
36FF: C8                         iny
3700: 4C F3 36                   jmp $36F3     ; L_36F3
3703: C8        L_3703           iny
3704: 98                         tya
3705: 18                         clc
3706: 65 DC                      adc $DC       ; FRE+2
3708: 85 DC                      sta $DC       ; FRE+2
370A: 90 02                      bcc $370E     ; L_370E
370C: E6 DD                      inc $DD       ; FRE+3
370E: A5 DE     L_370E           lda $DE       ; FRE+4
3710: 18                         clc
3711: 69 28                      adc #$28
3713: 85 DE                      sta $DE       ; FRE+4
3715: 90 02                      bcc $3719     ; L_3719
3717: E6 DF                      inc $DF       ; FRE+5
3719: 4C F1 36  L_3719           jmp $36F1     ; L_36F1
371C: A9 04     L_371C           lda #$04
371E: 20 2F 2C                   jsr $2C2F     ; L_2C2F
3721: A9 2E                      lda #$2E
3723: 8D 2F 02                   sta $022F     ; SDMCTL
3726: AD 0B D4  L_3726           lda $D40B     ; VCOUNT
3729: 29 03                      and #$03
372B: AA                         tax
372C: BD 23 35                   lda $3523,x   ; L_3523
372F: 8D 0A D4                   sta $D40A     ; WSYNC
3732: 8D C5 02                   sta $02C5     ; COLOR1
3735: 8D 17 D0                   sta $D017     ; COLPF1
3738: 4C 60 2A                   jmp $2A60     ; L_2A60
373B: 00                         BYTE $00 $00 $00 $00 $00 $00 $00 $00
3743: 00                         BYTE $00 $00 $00 $00 $00 $00 $00
374A: 48                         pha
374B: 8A                         txa
374C: 48                         pha
374D: 98                         tya
374E: 48                         pha
374F: A2 00                      ldx #$00
3751: A0 00                      ldy #$00
3753: AD FC 02                   lda $02FC     ; CH
3756: 85 FF                      sta $FF       ; FPTR2+1
3758: B9 27 35  L_3758           lda $3527,y   ; L_3523+4
375B: C5 FF                      cmp $FF       ; FPTR2+1
375D: F0 15                      beq $3774     ; L_3774
375F: C8                         iny
3760: C8                         iny
3761: C8                         iny
3762: E8                         inx
3763: E0 05                      cpx #$05
3765: D0 F1                      bne $3758     ; L_3758
3767: A9 FF     L_3767           lda #$FF
3769: 8D FC 02                   sta $02FC     ; CH
376C: 68                         pla
376D: A8                         tay
376E: 68                         pla
376F: AA                         tax
3770: 68                         pla
3771: 4C 62 E4                   jmp $E462     ; XITVBV
3774: B9 28 35  L_3774           lda $3528,y   ; L_3523+5
3777: 85 EC                      sta $EC       ; FRX
3779: B9 29 35                   lda $3529,y   ; L_3523+6
377C: 85 ED                      sta $ED       ; EEXP
377E: 84 EE                      sty $EE       ; NSIGN
3780: AC 36 35                   ldy $3536     ; L_3533+3
3783: B9 28 35                   lda $3528,y   ; L_3523+5
3786: 85 EA                      sta $EA       ; FR2+4
3788: B9 29 35                   lda $3529,y   ; L_3523+6
378B: 85 EB                      sta $EB       ; FR2+5
378D: A5 EE                      lda $EE       ; NSIGN
378F: 8D 36 35                   sta $3536     ; L_3533+3
3792: A0 00                      ldy #$00
3794: A9 00                      lda #$00
3796: 91 EA                      sta ($EA),y   ; FR2+4
3798: A9 04                      lda #$04
379A: 91 EC                      sta ($EC),y   ; FRX
379C: A5 FF                      lda $FF       ; FPTR2+1
379E: C9 0A                      cmp #$0A
37A0: F0 0C                      beq $37AE     ; L_37AE
37A2: C9 12                      cmp #$12
37A4: F0 08                      beq $37AE     ; L_37AE
37A6: A4 EE                      ldy $EE       ; NSIGN
37A8: 8C 7F 36                   sty $367F     ; L_367B+4
37AB: 4C 67 37                   jmp $3767     ; L_3767
37AE: C9 0A     L_37AE           cmp #$0A
37B0: D0 0B                      bne $37BD     ; L_37BD
37B2: AD A3 28                   lda $28A3     ; L_28A3
37B5: 49 01                      eor #$01
37B7: 8D A3 28                   sta $28A3     ; L_28A3
37BA: 4C C5 37                   jmp $37C5     ; L_37C5
37BD: AD 80 36  L_37BD           lda $3680     ; L_367B+5
37C0: 49 01                      eor #$01
37C2: 8D 80 36                   sta $3680     ; L_367B+5
37C5: A0 02     L_37C5           ldy #$02
37C7: B1 EC                      lda ($EC),y   ; FRX
37C9: 49 03                      eor #$03
37CB: 91 EC                      sta ($EC),y   ; FRX
37CD: 4C 67 37                   jmp $3767     ; L_3767
37D0: A9 00     L_37D0           lda #$00
37D2: 8D 2F 02                   sta $022F     ; SDMCTL
37D5: A9 07                      lda #$07
37D7: A0 62                      ldy #$62
37D9: A2 E4                      ldx #$E4
37DB: 20 00 1F                   jsr $1F00     ; L_1F00
37DE: A9 2E                      lda #$2E
37E0: 8D 2F 02                   sta $022F     ; SDMCTL
37E3: A2 00                      ldx #$00
37E5: 8E 00 39                   stx $3900     ; L_38FE+2
37E8: 8E 00 40                   stx $4000     ; L_3FFD+3
37EB: A9 10                      lda #$10
37ED: 9D 00 8F  L_37ED           sta $8F00,x
37F0: E8                         inx
37F1: E0 06                      cpx #$06
37F3: D0 F8                      bne $37ED     ; L_37ED
37F5: A9 04                      lda #$04
37F7: 85 4D                      sta $4D       ; ATRACT
37F9: 8D F4 31                   sta $31F4     ; LIVES
37FC: 4C A4 28                   jmp $28A4     ; L_28A4
37FF: 00                         brk
3800: AD 76 50                   lda $5076
3803: D0 0F                      bne $3814     ; L_3814
3805: AD 77 50                   lda $5077
3808: D0 0A                      bne $3814     ; L_3814
380A: AD 0B 46                   lda $460B     ; L_4607+4
380D: C9 6A                      cmp #$6A
380F: 90 03                      bcc $3814     ; L_3814
3811: 4C 00 30                   jmp $3000     ; L_3000
3814: AE 00 40  L_3814           ldx $4000     ; L_3FFD+3
3817: AD 00 39                   lda $3900     ; L_38FE+2
381A: DD C0 8F                   cmp $8FC0,x
381D: F0 03                      beq $3822     ; L_3822
381F: 4C 1B 45                   jmp $451B     ; L_4517+4
3822: EE 00 40  L_3822           inc $4000     ; L_3FFD+3
3825: A9 00                      lda #$00
3827: 8D 00 39                   sta $3900     ; L_38FE+2
382A: 85 DD                      sta $DD       ; FRE+3
382C: A2 00     L_382C           ldx #$00
382E: A0 00     L_382E           ldy #$00
3830: C8        L_3830           iny
3831: D0 FD                      bne $3830     ; L_3830
3833: E8                         inx
3834: D0 F8                      bne $382E     ; L_382E
3836: E6 DD                      inc $DD       ; FRE+3
3838: A5 DD                      lda $DD       ; FRE+3
383A: C9 02                      cmp #$02
383C: D0 EE                      bne $382C     ; L_382C
383E: A2 00                      ldx #$00
3840: BD 67 9F  L_3840           lda $9F67,x
3843: 9D 00 8F                   sta $8F00,x
3846: E8                         inx
3847: E0 06                      cpx #$06
3849: D0 F5                      bne $3840     ; L_3840
384B: 4C 94 28                   jmp $2894     ; L_2894
384E: 59                         BYTE $59 $4F $42 $08 $1A $53 $C0 $0C
3856: 01                         BYTE $01 $53 $48 $08 $93 $54 $C0 $14
385E: 01                         BYTE $01 $53 $54 $09 $2D $53 $C0 $2E
3866: 01                         BYTE $01 $53 $4F $4E $09 $52 $53 $C0
386E: 26                         BYTE $26 $01 $43 $48 $4B $08 $3F $53
3876: C0                         BYTE $C0 $53 $01 $43 $4C $0A $6E $53
387E: C0                         BYTE $C0 $5B $01 $53 $45 $45 $4E $08
3886: 73                         BYTE $73 $53 $C0 $38 $FF $49 $47 $09
388E: 9F                         BYTE $9F $53 $C0 $65 $01 $52 $45 $4D
3896: 0A                         BYTE $0A $79 $53 $C0 $6D $01 $42 $41
389E: 43                         BYTE $43 $4B $08 $94 $53 $C0 $25 $02
38A6: 43                         BYTE $43 $48 $0A $95 $53 $C0 $BD $01
38AE: 53                         BYTE $53 $54 $4F $50 $08 $AA $53 $C0
38B6: 48                         BYTE $48 $FF $52 $32 $08 $B1 $53 $C0
38BE: 7F                         BYTE $7F $01 $42 $31 $0A $B7 $54 $C0
38C6: 75                         BYTE $75 $FF $47 $4C $49 $53 $08 $B8
38CE: 53                         BYTE $53 $C0 $87 $01 $42 $32 $08 $BF
38D6: 53                         BYTE $53 $C0 $8F $01 $42 $33 $08 $C6
38DE: 53                         BYTE $53 $C0 $97 $01 $42 $34 $0A $06
38E6: 54                         BYTE $54 $C0 $13 $02 $42 $4F $4F $4D
38EE: 0B                         BYTE $0B $DB $53 $C0 $1C $02 $00 $00
38F6: 41                         BYTE $41 $54 $48 $08 $D8 $53 $C0 $AC
38FE: FF        L_38FE           BYTE $FF $55 $00 $00 $28 $A0 $0B $B0
3906: 0B                         BYTE $0B $C0 $0B $D0 $0B $50 $05 $60
390E: 07                         BYTE $07 $70 $07 $80 $07 $E0 $09 $F0
3916: 09                         BYTE $09 $10 $08 $20 $08 $30 $08 $40
391E: 05                         BYTE $05 $90 $0C $00 $0A
3923: 8D B0 39                   sta $39B0     ; L_39B0
3926: 8E 01 39                   stx $3901     ; L_38FE+3
3929: 8C 02 39                   sty $3902     ; L_38FE+4
392C: A5 03                      lda $03       ; CASINI+1
392E: 18                         clc
392F: 0A                         asl
3930: AA        L_3930           tax
3931: B1 DE                      lda ($DE),y   ; FRE+4
3933: C9 05                      cmp #$05
3935: F0 4E                      beq $3985     ; L_3985
3937: C9 06                      cmp #$06
3939: F0 4A                      beq $3985     ; L_3985
393B: C9 07                      cmp #$07
393D: F0 4C                      beq $398B     ; L_398B
393F: C9 08                      cmp #$08
3941: F0 48                      beq $398B     ; L_398B
3943: 29 80                      and #$80
3945: F0 01                      beq $3948     ; L_3948
3947: E8                         inx
3948: AD 22 3C  L_3948           lda $3C22     ; BRICK_COLORS_L
394B: 8D 55 39                   sta $3955     ; L_3954+1
394E: AD 23 3C                   lda $3C23     ; BRICK_COLORS_H
3951: 8D 56 39                   sta $3956     ; L_3954+2
3954: BD 4C 7B  L_3954           lda $7B4C,x
3957: 29 F0     L_3957           and #$F0
3959: A2 00                      ldx #$00
395B: DD 03 39  L_395B           cmp $3903,x   ; L_38FE+5
395E: F0 09                      beq $3969     ; L_3969
3960: E8                         inx
3961: E8                         inx
3962: E0 20                      cpx #$20
3964: D0 F5                      bne $395B     ; L_395B
3966: 4C 7B 39                   jmp $397B     ; L_397B
3969: E8        L_3969           inx
396A: BD 03 39                   lda $3903,x   ; L_38FE+5
396D: A8                         tay
396E: C0 00     L_396E           cpy #$00
3970: F0 09                      beq $397B     ; L_397B
3972: A2 01                      ldx #$01
3974: 20 B4 3B                   jsr $3BB4     ; L_3BB0+4
3977: 88                         dey
3978: 4C 6E 39                   jmp $396E     ; L_396E
397B: AD B0 39  L_397B           lda $39B0     ; L_39B0
397E: AE 01 39                   ldx $3901     ; L_38FE+3
3981: 20 A9 39                   jsr $39A9     ; L_39A9
3984: 60                         rts
3985: AD C4 02  L_3985           lda $02C4     ; COLOR0
3988: 4C 57 39                   jmp $3957     ; L_3957
398B: AD C5 02  L_398B           lda $02C5     ; COLOR1
398E: 4C 57 39                   jmp $3957     ; L_3957
3991: 8D B0 39                   sta $39B0     ; L_39B0
3994: 8E 01 39                   stx $3901     ; L_38FE+3
3997: 8C 02 39                   sty $3902     ; L_38FE+4
399A: BD 7B 50                   lda $507B,x
399D: 29 FC                      and #$FC
399F: 4A                         lsr
39A0: 4A                         lsr
39A1: 18                         clc
39A2: 0A                         asl
39A3: 38                         sec
39A4: E9 06                      sbc #$06
39A6: 4C 30 39                   jmp $3930     ; L_3930
39A9: AC 02 39  L_39A9           ldy $3902     ; L_38FE+4
39AC: EE 00 39                   inc $3900     ; L_38FE+2
39AF: 60                         rts
39B0: 04        L_39B0           BYTE $04 $02 $FF $4C $50 $34 $08 $53
39B8: 33                         BYTE $33 $C0 $39 $FF $43 $52 $0A $1B
39C0: 33                         BYTE $33 $C0 $50 $FF $42 $52 $49 $4B
39C8: 09                         BYTE $09 $2D $33 $C0 $C0 $FF $52 $45
39D0: 32                         BYTE $32 $09 $2F $33 $C0 $BD $00 $53
39D8: 54                         BYTE $54 $31 $09 $31 $33 $C0 $C0 $FF
39E0: 53                         BYTE $53 $54 $32 $08 $43 $33 $C0 $E0
39E8: 00                         BYTE $00 $41 $42 $09 $4D $33 $C0 $F1
39F0: 00                         BYTE $00 $43 $41 $52 $09 $B2 $33 $C0
39F8: 00                         BYTE $00 $00 $45 $4E $44 $09 $6F $33
3A00: 20        L_3A00           BYTE $20 $20 $20 $20 $20 $32 $2F $35
3A08: 2E                         BYTE $2E $24 $20 $20 $20 $20 $32 $25
3A10: 21        L_3A10           BYTE $21 $24 $39 $3B $11 $35 $30 $20
3A18: 10                         BYTE $10 $10 $10 $10 $10 $10 $20 $28
3A20: 29                         BYTE $29 $20 $10 $10 $10 $10 $10 $10
3A28: 20                         BYTE $20 $2C $29 $26 $25 $20 $14 $20
3A30: 32                         BYTE $32 $2F $35 $2E $24 $20 $11 $20
3A38: 20        L_3A38           BYTE $20 $11 $04 $00
3A3C: 20 67 3B  L_3A3C           jsr $3B67     ; L_3B67
3A3F: C9 20                      cmp #$20
3A41: D0 06                      bne $3A49     ; L_3A49
3A43: 20 03 15                   jsr $1503     ; L_1503
3A46: 4C 4C 3A                   jmp $3A4C     ; L_3A4C
3A49: 20 0F 40  L_3A49           jsr $400F     ; L_400F
3A4C: A2 00     L_3A4C           ldx #$00
3A4E: BD 00 3A  L_3A4E           lda $3A00,x   ; L_3A00
3A51: 9D 6A 9F                   sta $9F6A,x
3A54: E8                         inx
3A55: E0 0E                      cpx #$0E
3A57: D0 F5                      bne $3A4E     ; L_3A4E
3A59: AD 00 40                   lda $4000     ; L_3FFD+3
3A5C: 85 DE                      sta $DE       ; FRE+4
3A5E: E6 DE                      inc $DE       ; FRE+4
3A60: A9 20                      lda #$20
3A62: 8D 38 3A                   sta $3A38     ; L_3A38
3A65: A0 00                      ldy #$00
3A67: 84 DF                      sty $DF       ; FRE+5
3A69: A5 DE     L_3A69           lda $DE       ; FRE+4
3A6B: 38                         sec
3A6C: E9 0A                      sbc #$0A
3A6E: 85 DE                      sta $DE       ; FRE+4
3A70: F0 05                      beq $3A77     ; L_3A77
3A72: B0 03                      bcs $3A77     ; L_3A77
3A74: 4C 7E 3A                   jmp $3A7E     ; L_3A7E
3A77: E6 DF     L_3A77           inc $DF       ; FRE+5
3A79: A0 01                      ldy #$01
3A7B: 4C 69 3A                   jmp $3A69     ; L_3A69
3A7E: 18        L_3A7E           clc
3A7F: 69 0A                      adc #$0A
3A81: 85 DE                      sta $DE       ; FRE+4
3A83: A2 00                      ldx #$00
3A85: A9 20                      lda #$20
3A87: C0 00                      cpy #$00
3A89: F0 09                      beq $3A94     ; L_3A94
3A8B: A5 DF                      lda $DF       ; FRE+5
3A8D: 18                         clc
3A8E: 69 10                      adc #$10
3A90: 9D 75 9F                   sta $9F75,x
3A93: E8                         inx
3A94: 8D 38 3A  L_3A94           sta $3A38     ; L_3A38
3A97: A5 DE                      lda $DE       ; FRE+4
3A99: 18                         clc
3A9A: 69 10                      adc #$10
3A9C: 9D 75 9F                   sta $9F75,x
3A9F: 8D 39 3A                   sta $3A39     ; L_3A38+1
3AA2: 86 DC                      stx $DC       ; FRE+2
3AA4: A9 2E                      lda #$2E
3AA6: 8D 2F 02                   sta $022F     ; SDMCTL
3AA9: A2 00                      ldx #$00
3AAB: A0 00     L_3AAB           ldy #$00
3AAD: C8        L_3AAD           iny
3AAE: D0 FD                      bne $3AAD     ; L_3AAD
3AB0: E8                         inx
3AB1: E0 F0                      cpx #$F0
3AB3: D0 F6                      bne $3AAB     ; L_3AAB
3AB5: A5 DC                      lda $DC       ; FRE+2
3AB7: 18                         clc
3AB8: 69 0D                      adc #$0D
3ABA: AA                         tax
3ABB: 18                         clc
3ABC: 69 06                      adc #$06
3ABE: 85 DC                      sta $DC       ; FRE+2
3AC0: A0 0E                      ldy #$0E
3AC2: B9 00 3A  L_3AC2           lda $3A00,y   ; L_3A00
3AC5: 9D 6A 9F                   sta $9F6A,x
3AC8: E8                         inx
3AC9: C8                         iny
3ACA: E4 DC                      cpx $DC       ; FRE+2
3ACC: D0 F4                      bne $3AC2     ; L_3AC2
3ACE: A9 00                      lda #$00
3AD0: 85 DD                      sta $DD       ; FRE+3
3AD2: A2 00     L_3AD2           ldx #$00
3AD4: A0 00     L_3AD4           ldy #$00
3AD6: C8        L_3AD6           iny
3AD7: D0 FD                      bne $3AD6     ; L_3AD6
3AD9: E8                         inx
3ADA: D0 F8                      bne $3AD4     ; L_3AD4
3ADC: E6 DD                      inc $DD       ; FRE+3
3ADE: A5 DD                      lda $DD       ; FRE+3
3AE0: C9 03                      cmp #$03
3AE2: D0 EE                      bne $3AD2     ; L_3AD2
3AE4: A2 00                      ldx #$00
3AE6: BD 14 3A  L_3AE6           lda $3A14,x   ; L_3A10+4
3AE9: 9D 63 9F                   sta $9F63,x
3AEC: E8                         inx
3AED: E0 23                      cpx #$23
3AEF: D0 F5                      bne $3AE6     ; L_3AE6
3AF1: A2 00                      ldx #$00
3AF3: AD 38 3A                   lda $3A38     ; L_3A38
3AF6: C9 20                      cmp #$20
3AF8: F0 04                      beq $3AFE     ; L_3AFE
3AFA: 9D 85 9F                   sta $9F85,x
3AFD: E8                         inx
3AFE: AD 39 3A  L_3AFE           lda $3A39     ; L_3A38+1
3B01: 9D 85 9F                   sta $9F85,x
3B04: AD 3A 3A                   lda $3A3A     ; L_3A38+2
3B07: 18                         clc
3B08: 69 10                      adc #$10
3B0A: 8D 7D 9F                   sta $9F7D
3B0D: A2 00                      ldx #$00
3B0F: A0 01                      ldy #$01
3B11: 20 0E 46                   jsr $460E     ; L_460E
3B14: A2 00                      ldx #$00
3B16: A0 03                      ldy #$03
3B18: 20 0E 46                   jsr $460E     ; L_460E
3B1B: A9 01                      lda #$01
3B1D: 8D 02 50                   sta $5002
3B20: 8D 02 4A                   sta $4A02     ; L_4A01+1
3B23: 8D 3B 3A                   sta $3A3B     ; L_3A38+3
3B26: A9 02                      lda #$02
3B28: 8D 03 4E                   sta $4E03     ; L_4E03
3B2B: A2 00                      ldx #$00
3B2D: BD 00 8F  L_3B2D           lda $8F00,x
3B30: 9D 67 9F                   sta $9F67,x
3B33: BD 00 2C                   lda $2C00,x   ; L_2BFB+5
3B36: 9D 71 9F                   sta $9F71,x
3B39: E8                         inx
3B3A: E0 06                      cpx #$06
3B3C: D0 EF                      bne $3B2D     ; L_3B2D
3B3E: AD F4 31                   lda $31F4     ; LIVES
3B41: 18                         clc
3B42: 69 10                      adc #$10
3B44: 8D 7D 9F                   sta $9F7D
3B47: AD 04 2E                   lda $2E04     ; L_2E03+1
3B4A: 18                         clc
3B4B: 69 11                      adc #$11
3B4D: 8D 63 9F                   sta $9F63
3B50: AD 00 40                   lda $4000     ; L_3FFD+3
3B53: C9 20                      cmp #$20
3B55: D0 03                      bne $3B5A     ; L_3B5A
3B57: 4C 90 16                   jmp $1690     ; L_1690
3B5A: 4C B2 28  L_3B5A           jmp $28B2     ; L_28B2
3B5D: A9 07                      lda #$07
3B5F: A0 62                      ldy #$62
3B61: A2 E4                      ldx #$E4
3B63: 20 00 1F                   jsr $1F00     ; L_1F00
3B66: 60                         rts
3B67: A2 00     L_3B67           ldx #$00
3B69: 20 1A 40                   jsr $401A     ; L_401A
3B6C: AD 00 40                   lda $4000     ; L_3FFD+3
3B6F: 60                         rts
3B70: 45                         BYTE $45 $57 $44 $45 $46 $0A $10 $52
3B78: C0                         BYTE $C0 $41 $FF $4E $45 $57 $46 $0A
3B80: 3A                         BYTE $3A $52 $C0 $04 $03 $46 $52 $45
3B88: 44                         BYTE $44 $08 $00 $57 $C0 $76 $FF $46
3B90: 52                         BYTE $52 $08 $74 $57 $C0 $09 $FF $42
3B98: 54                         BYTE $54 $09 $19 $57 $C0 $F4 $FF $47
3BA0: 45                         BYTE $45 $4F $08 $65 $57 $C0 $DF $FF
3BA8: 53                         BYTE $53 $4D $09 $81 $57 $C0 $2E $03
3BB0: 05        L_3BB0           BYTE $05 $01 $01 $01 $8D $B0 $3B
3BB7: 8E B1 3B                   stx $3BB1     ; L_3BB0+1
3BBA: 8C B2 3B                   sty $3BB2     ; L_3BB0+2
3BBD: 8A                         txa
3BBE: 8D B3 3B                   sta $3BB3     ; L_3BB0+3
3BC1: A9 06                      lda #$06
3BC3: 38                         sec
3BC4: ED B3 3B                   sbc $3BB3     ; L_3BB0+3
3BC7: AA                         tax
3BC8: BD 66 9F  L_3BC8           lda $9F66,x
3BCB: C9 19                      cmp #$19
3BCD: F0 06                      beq $3BD5     ; L_3BD5
3BCF: FE 66 9F                   inc $9F66,x
3BD2: 4C E9 3B                   jmp $3BE9     ; L_3BE9
3BD5: A9 10     L_3BD5           lda #$10
3BD7: 9D 66 9F                   sta $9F66,x
3BDA: CA                         dex
3BDB: D0 EB                      bne $3BC8     ; L_3BC8
3BDD: A2 00                      ldx #$00
3BDF: A9 10     L_3BDF           lda #$10
3BE1: 9D 66 9F                   sta $9F66,x
3BE4: E8                         inx
3BE5: E0 06                      cpx #$06
3BE7: D0 F6                      bne $3BDF     ; L_3BDF
3BE9: AE B1 3B  L_3BE9           ldx $3BB1     ; L_3BB0+1
3BEC: AC B2 3B                   ldy $3BB2     ; L_3BB0+2
3BEF: AD B0 3B                   lda $3BB0     ; L_3BB0
3BF2: 60                         rts
3BF3: 33                         BYTE $33 $0A $0E $3E $C0 $6B $02 $55
3BFB: 50                         BYTE $50 $43 $48 $0C $4F $C4 $00 $9B
3C03: 84                         BYTE $84 $84 $84 $84 $84 $84 $84 $84
3C0B: 84                         BYTE $84 $84 $84 $84 $84 $84 $84 $84
3C13: 84                         BYTE $84 $84 $84 $84 $84 $84 $84 $84
3C1B: 84                         BYTE $84 $04 $84 $02 $41 $00 $92 $00
3C23: 00        BRICK_COLORS_H   BYTE $00 $00 $00
3C26: AD 31 02  L_3C26           lda $0231     ; SDLSTH
3C29: C9 3C                      cmp #$3C
3C2B: F0 39                      beq $3C66     ; L_3C66
3C2D: A2 00                      ldx #$00
3C2F: A0 3C                      ldy #$3C
3C31: 8E 30 02                   stx $0230     ; SDLSTL
3C34: 8C 31 02                   sty $0231     ; SDLSTH
3C37: A2 00                      ldx #$00
3C39: A0 7B                      ldy #$7B
3C3B: 8E 22 3C                   stx $3C22     ; BRICK_COLORS_L
3C3E: 8C 23 3C                   sty $3C23     ; BRICK_COLORS_H
3C41: 8E 24 3C                   stx $3C24     ; ROW_INDEX
3C44: 8A                         txa
3C45: 9D 00 9B  L_3C45           sta $9B00,x
3C48: 9D 00 9C                   sta $9C00,x
3C4B: 9D 00 9D                   sta $9D00,x
3C4E: 9D 00 9E                   sta $9E00,x
3C51: 9D 00 9F                   sta $9F00,x
3C54: E8                         inx
3C55: D0 EE                      bne $3C45     ; L_3C45

  Setup DLI

3C57: A2 67                      ldx #$67
3C59: A0 3C                      ldy #$3C
3C5B: 8E 00 02                   stx $0200     ; VDSLST
3C5E: 8C 01 02                   sty $0201     ; VDSLST+1
3C61: A9 C0                      lda #$C0
3C63: 8D 0E D4                   sta $D40E     ; NMIEN
3C66: 60        L_3C66           rts

  Display List Interrupt Service Routine

3C67: 48        DLI              pha
3C68: 98                         tya
3C69: 48                         pha
3C6A: 8A                         txa
3C6B: 48                         pha
3C6C: AD 0B D4                   lda $D40B     ; VCOUNT
3C6F: C9 F2                      cmp #$F2
3C71: 10 05                      bpl $3C78     ; USE_GFX_SET
3C73: A9 8C                      lda #$8C
3C75: 8D 09 D4                   sta $D409     ; CHBASE
3C78: AD 24 3C  USE_GFX_SET      lda $3C24     ; ROW_INDEX
3C7B: A8                         tay
3C7C: 18                         clc
3C7D: 69 02                      adc #$02
3C7F: 8D 24 3C                   sta $3C24     ; ROW_INDEX
3C82: AE 22 3C                   ldx $3C22     ; BRICK_COLORS_L
3C85: AD 23 3C                   lda $3C23     ; BRICK_COLORS_H
3C88: 86 DA                      stx $DA       ; ROW_COLOR_L
3C8A: 85 DB                      sta $DB       ; ROW_COLOR_H
3C8C: C0 30                      cpy #$30
3C8E: F0 35                      beq $3CC5     ; SET_SHIP_COLORS
3C90: C0 34                      cpy #$34
3C92: F0 44                      beq $3CD8     ; SET_SCORE_COLORS

  Set colors for each brick row

3C94: B1 DA                      lda ($DA),y   ; ROW_COLOR_L
3C96: 8D 18 D0                   sta $D018     ; COLPF2
3C99: C8                         iny
3C9A: B1 DA                      lda ($DA),y   ; ROW_COLOR_L
3C9C: 8D 19 D0                   sta $D019     ; COLPF3
3C9F: 88                         dey
3CA0: C0 00                      cpy #$00
3CA2: D0 03                      bne $3CA7     ; L_3CA7
3CA4: 8C 25 3C                   sty $3C25     ; TIMER_MAYBE
3CA7: C0 32     L_3CA7           cpy #$32
3CA9: F0 25                      beq $3CD0     ; L_3CD0
3CAB: 20 F3 3C  DLI_EXIT         jsr $3CF3     ; CHECK_LAST_KEY
3CAE: 29 04                      and #$04
3CB0: D0 06                      bne $3CB8     ; NO_NEW_KEY
3CB2: AD 09 D2                   lda $D209     ; KBCODE
3CB5: 8D FC 02                   sta $02FC     ; CH
3CB8: A9 00     NO_NEW_KEY       lda #$00
3CBA: 85 10                      sta $10       ; POKMSK
3CBC: 8D 0E D2                   sta $D20E     ; IRQEN
3CBF: 68                         pla
3CC0: AA                         tax
3CC1: 68                         pla
3CC2: A8                         tay
3CC3: 68                         pla
3CC4: 40                         rti
3CC5: A9 1F     SET_SHIP_COLORS  lda #$1F
3CC7: 8D 18 D0                   sta $D018     ; COLPF2
3CCA: EE 25 3C                   inc $3C25     ; TIMER_MAYBE
3CCD: 4C AB 3C                   jmp $3CAB     ; DLI_EXIT
3CD0: A9 00     L_3CD0           lda #$00
3CD2: 8D 18 D0                   sta $D018     ; COLPF2
3CD5: 4C AB 3C                   jmp $3CAB     ; DLI_EXIT
3CD8: A9 0F     SET_SCORE_COLORS lda #$0F
3CDA: 8D 16 D0                   sta $D016     ; COLPF0
3CDD: 8D 17 D0                   sta $D017     ; COLPF1
3CE0: A9 00                      lda #$00
3CE2: 8D 24 3C                   sta $3C24     ; ROW_INDEX
3CE5: A9 8C                      lda #$8C
3CE7: 8D 09 D4                   sta $D409     ; CHBASE
3CEA: 4C AB 3C                   jmp $3CAB     ; DLI_EXIT
3CED: 4C AB 3C                   jmp $3CAB     ; DLI_EXIT
3CF0: 3C                         BYTE $3C $00 $00
3CF3: A9 00     CHECK_LAST_KEY   lda #$00
3CF5: 8D BE 02                   sta $02BE     ; SHFLOK
3CF8: AD 0F D2                   lda $D20F     ; SKSTAT
3CFB: 60                         rts
3CFC: 00        L_3CFC           BYTE $00 $00 $00 $00 $04 $28 $70 $8E
3D04: 00                         BYTE $00 $3D $8C $01 $3D $8D $02 $3D
3D0C: C9 69                      cmp #$69
3D0E: 10 05                      bpl $3D15     ; L_3D15
3D10: A2 00                      ldx #$00
3D12: 4C 20 3D                   jmp $3D20     ; L_3D20
3D15: C9 72     L_3D15           cmp #$72
3D17: 10 05                      bpl $3D1E     ; L_3D1E
3D19: A2 01                      ldx #$01
3D1B: 4C 20 3D                   jmp $3D20     ; L_3D20
3D1E: A2 02     L_3D1E           ldx #$02
3D20: A9 06     L_3D20           lda #$06
3D22: 4C E0 45                   jmp $45E0     ; L_45E0
3D25: AE 00 3D  L_3D25           ldx $3D00     ; L_3CFC+4
3D28: AC 01 3D                   ldy $3D01     ; L_3CFC+5
3D2B: AD 02 3D                   lda $3D02     ; L_3CFC+6
3D2E: 60                         rts
3D2F: BD B0 57                   lda $57B0,x
3D32: 29 02                      and #$02
3D34: 4A                         lsr
3D35: 8D E4 57                   sta $57E4
3D38: BD B0 57                   lda $57B0,x
3D3B: 18                         clc
3D3C: 0A                         asl
3D3D: 0A                         asl
3D3E: 0A                         asl
3D3F: 0A                         asl
3D40: 0A                         asl
3D41: 0A                         asl
3D42: 0A                         asl
3D43: 8D E3 57                   sta $57E3
3D46: BD B0 57                   lda $57B0,x
3D49: 29 03                      and #$03
3D4B: 18                         clc
3D4C: 0A                         asl
3D4D: 0A                         asl
3D4E: 0A                         asl
3D4F: 0A                         asl
3D50: 0A                         asl
3D51: 0A                         asl
3D52: 18                         clc
3D53: 6D E3 57                   adc $57E3
3D56: 8D E3 57                   sta $57E3
3D59: 90 03                      bcc $3D5E     ; L_3D5E
3D5B: EE E4 57                   inc $57E4
3D5E: BD AB 3D  L_3D5E           lda $3DAB,x   ; L_3DAB
3D61: 29 F8                      and #$F8
3D63: 4A                         lsr
3D64: 4A                         lsr
3D65: 4A                         lsr
3D66: 18                         clc
3D67: 6D E4 57                   adc $57E4
3D6A: 8D E4 57                   sta $57E4
3D6D: BD AB 3D                   lda $3DAB,x   ; L_3DAB
3D70: 29 07                      and #$07
3D72: 18                         clc
3D73: 0A                         asl
3D74: 0A                         asl
3D75: 0A                         asl
3D76: 0A                         asl
3D77: 0A                         asl
3D78: 18                         clc
3D79: 6D E3 57                   adc $57E3
3D7C: 8D E3 57                   sta $57E3
3D7F: 90 03                      bcc $3D84     ; L_3D84
3D81: EE E4 57                   inc $57E4
3D84: BD AB 3D  L_3D84           lda $3DAB,x   ; L_3DAB
3D87: 29 F0                      and #$F0
3D89: 4A                         lsr
3D8A: 4A                         lsr
3D8B: 4A                         lsr
3D8C: 4A                         lsr
3D8D: 18                         clc
3D8E: 6D E4 57                   adc $57E4
3D91: 8D E4 57                   sta $57E4
3D94: BD AB 3D                   lda $3DAB,x   ; L_3DAB
3D97: 29 0F                      and #$0F
3D99: 18                         clc
3D9A: 0A                         asl
3D9B: 0A                         asl
3D9C: 0A                         asl
3D9D: 0A                         asl
3D9E: 18                         clc
3D9F: 6D E3 57                   adc $57E3
3DA2: 8D E3 57                   sta $57E3
3DA5: 90 03                      bcc $3DAA     ; L_3DAA
3DA7: EE E4 57                   inc $57E4
3DAA: 60        L_3DAA           rts
3DAB: 00        L_3DAB           BYTE $00 $00 $00 $00 $00 $00
3DB1: A9 04                      lda #$04
3DB3: 9D BC 57                   sta $57BC,x
3DB6: BD AB 3D                   lda $3DAB,x   ; L_3DAB
3DB9: C9 03                      cmp #$03
3DBB: F0 04                      beq $3DC1     ; L_3DC1
3DBD: FE AB 3D                   inc $3DAB,x   ; L_3DAB
3DC0: 60                         rts
3DC1: A9 00     L_3DC1           lda #$00
3DC3: 9D B0 57                   sta $57B0,x
3DC6: 9D B3 57                   sta $57B3,x
3DC9: 9D AB 3D                   sta $3DAB,x   ; L_3DAB
3DCC: 9D AE 3D                   sta $3DAE,x   ; L_3DAB+3
3DCF: AD 6F 5C                   lda $5C6F
3DD2: 85 DE                      sta $DE       ; FRE+4
3DD4: 20 93 3F                   jsr $3F93     ; L_3F93
3DD7: A5 DE                      lda $DE       ; FRE+4
3DD9: 8D 6F 5C                   sta $5C6F
3DDC: AD 00 40                   lda $4000     ; L_3FFD+3
3DDF: 29 03                      and #$03
3DE1: A8                         tay
3DE2: B9 E9 3D                   lda $3DE9,y   ; L_3DE9
3DE5: 9D BC 57                   sta $57BC,x
3DE8: 60                         rts
3DE9: 02        L_3DE9           BYTE $02 $03 $01 $00 $00 $00 $00 $00
3DF1: 00                         BYTE $00 $00 $00 $00 $00 $00 $00 $00
3DF9: 00                         BYTE $00 $00 $00 $00 $00 $00 $00
3E00: AE E8 57  L_3E00           ldx $57E8
3E03: BD D4 5D                   lda $5DD4,x
3E06: 29 06                      and #$06
3E08: 49 06                      eor #$06
3E0A: 9D D4 5D                   sta $5DD4,x
3E0D: 60        L_3E0D           rts
3E0E: AE E8 57                   ldx $57E8
3E11: BD B3 57                   lda $57B3,x
3E14: C9 20                      cmp #$20
3E16: 90 F5                      bcc $3E0D     ; L_3E0D
3E18: A2 00                      ldx #$00
3E1A: A0 01                      ldy #$01
3E1C: 86 DD                      stx $DD       ; FRE+3
3E1E: B1 DE     L_3E1E           lda ($DE),y   ; FRE+4
3E20: C9 37                      cmp #$37
3E22: 30 13                      bmi $3E37     ; L_3E37
3E24: C9 60                      cmp #$60
3E26: 10 0F                      bpl $3E37     ; L_3E37
3E28: E8                         inx
3E29: 98                         tya
3E2A: 18                         clc
3E2B: 69 28                      adc #$28
3E2D: A8                         tay
3E2E: EC DB 5D                   cpx $5DDB
3E31: D0 EB                      bne $3E1E     ; L_3E1E
3E33: 4C 30 5F                   jmp $5F30
3E36: 60                         rts
3E37: A2 00     L_3E37           ldx #$00
3E39: A0 04                      ldy #$04
3E3B: E6 DD                      inc $DD       ; FRE+3
3E3D: A5 DD                      lda $DD       ; FRE+3
3E3F: C9 02                      cmp #$02
3E41: D0 DB                      bne $3E1E     ; L_3E1E
3E43: AD D3 5D                   lda $5DD3
3E46: 85 DF                      sta $DF       ; FRE+5
3E48: AD D2 5D                   lda $5DD2
3E4B: 38                         sec
3E4C: E9 28                      sbc #$28
3E4E: 85 DE                      sta $DE       ; FRE+4
3E50: B0 02                      bcs $3E54     ; L_3E54
3E52: C6 DF                      dec $DF       ; FRE+5
3E54: A0 02     L_3E54           ldy #$02
3E56: B1 DE     L_3E56           lda ($DE),y   ; FRE+4
3E58: C9 37                      cmp #$37
3E5A: 10 03                      bpl $3E5F     ; L_3E5F
3E5C: 4C 30 5F  L_3E5C           jmp $5F30
3E5F: 4C C9 3F  L_3E5F           jmp $3FC9     ; L_3FC9
3E62: EA        L_3E62           nop
3E63: E8                         inx
3E64: C8                         iny
3E65: EC DA 5D                   cpx $5DDA
3E68: D0 EC                      bne $3E56     ; L_3E56
3E6A: AE E8 57                   ldx $57E8
3E6D: A9 01                      lda #$01
3E6F: 9D D4 5D                   sta $5DD4,x
3E72: 60                         rts
3E73: AE E8 57                   ldx $57E8
3E76: BD B3 57                   lda $57B3,x
3E79: 29 07                      and #$07
3E7B: F0 03                      beq $3E80     ; L_3E80
3E7D: 4C E2 3E                   jmp $3EE2     ; L_3EE2
3E80: AE E8 57  L_3E80           ldx $57E8
3E83: BD DF 5D                   lda $5DDF,x
3E86: D0 5A                      bne $3EE2     ; L_3EE2
3E88: AD D2 5D                   lda $5DD2
3E8B: 85 DE                      sta $DE       ; FRE+4
3E8D: AD D3 5D                   lda $5DD3
3E90: 85 DF                      sta $DF       ; FRE+5
3E92: A0 01                      ldy #$01
3E94: A2 00                      ldx #$00
3E96: 86 DD                      stx $DD       ; FRE+3
3E98: 86 DC                      stx $DC       ; FRE+2
3E9A: B1 DE     L_3E9A           lda ($DE),y   ; FRE+4
3E9C: C9 37                      cmp #$37
3E9E: 30 13                      bmi $3EB3     ; L_3EB3
3EA0: C9 60                      cmp #$60
3EA2: 10 0F                      bpl $3EB3     ; L_3EB3
3EA4: E8                         inx
3EA5: 98                         tya
3EA6: 18                         clc
3EA7: 69 28                      adc #$28
3EA9: A8                         tay
3EAA: EC DB 5D                   cpx $5DDB
3EAD: D0 EB                      bne $3E9A     ; L_3E9A
3EAF: 84 D9                      sty $D9       ; FR0+5
3EB1: E6 DC                      inc $DC       ; FRE+2
3EB3: E6 DD     L_3EB3           inc $DD       ; FRE+3
3EB5: A0 04                      ldy #$04
3EB7: A2 00                      ldx #$00
3EB9: A5 DD                      lda $DD       ; FRE+3
3EBB: C9 02                      cmp #$02
3EBD: D0 DB                      bne $3E9A     ; L_3E9A
3EBF: A5 DC                      lda $DC       ; FRE+2
3EC1: F0 1F                      beq $3EE2     ; L_3EE2
3EC3: A0 04                      ldy #$04
3EC5: AE E8 57                   ldx $57E8
3EC8: A5 D9                      lda $D9       ; FR0+5
3ECA: C9 01                      cmp #$01
3ECC: F0 02                      beq $3ED0     ; L_3ED0
3ECE: A0 02                      ldy #$02
3ED0: 98        L_3ED0           tya
3ED1: 9D D4 5D                   sta $5DD4,x
3ED4: AD 0B D4  L_3ED4           lda $D40B     ; VCOUNT
3ED7: 29 07                      and #$07
3ED9: F0 F9                      beq $3ED4     ; L_3ED4
3EDB: 18                         clc
3EDC: 0A                         asl
3EDD: 0A                         asl
3EDE: 9D DC 5D                   sta $5DDC,x
3EE1: 60                         rts
3EE2: AE E8 57  L_3EE2           ldx $57E8
3EE5: BD B0 57                   lda $57B0,x
3EE8: 29 03                      and #$03
3EEA: D0 33                      bne $3F1F     ; L_3F1F
3EEC: BD B3 57                   lda $57B3,x
3EEF: 29 07                      and #$07
3EF1: D0 2C                      bne $3F1F     ; L_3F1F
3EF3: AD D3 5D                   lda $5DD3
3EF6: 85 DF                      sta $DF       ; FRE+5
3EF8: AD D2 5D                   lda $5DD2
3EFB: 38                         sec
3EFC: E9 28                      sbc #$28
3EFE: 85 DE                      sta $DE       ; FRE+4
3F00: B0 02                      bcs $3F04     ; L_3F04
3F02: C6 DF                      dec $DF       ; FRE+5
3F04: A2 00     L_3F04           ldx #$00
3F06: A0 02                      ldy #$02
3F08: B1 DE     L_3F08           lda ($DE),y   ; FRE+4
3F0A: C9 37                      cmp #$37
3F0C: 10 03                      bpl $3F11     ; L_3F11
3F0E: 4C BB 3F                   jmp $3FBB     ; L_3FBB
3F11: C9 60     L_3F11           cmp #$60
3F13: 30 03                      bmi $3F18     ; L_3F18
3F15: 4C BB 3F                   jmp $3FBB     ; L_3FBB
3F18: E8        L_3F18           inx
3F19: C8                         iny
3F1A: EC DA 5D                   cpx $5DDA
3F1D: D0 E9                      bne $3F08     ; L_3F08
3F1F: AE E8 57  L_3F1F           ldx $57E8
3F22: DE B3 57                   dec $57B3,x
3F25: DE B3 57                   dec $57B3,x
3F28: 60                         rts
3F29: AE E8 57                   ldx $57E8
3F2C: BD B3 57                   lda $57B3,x
3F2F: C9 20                      cmp #$20
3F31: 90 1B                      bcc $3F4E     ; L_3F4E
3F33: A9 08                      lda #$08
3F35: 9D DC 5D                   sta $5DDC,x
3F38: A0 04     L_3F38           ldy #$04
3F3A: AD 0B D4                   lda $D40B     ; VCOUNT
3F3D: 29 03                      and #$03
3F3F: F0 F7                      beq $3F38     ; L_3F38
3F41: C9 03                      cmp #$03
3F43: F0 F3                      beq $3F38     ; L_3F38
3F45: C9 02                      cmp #$02
3F47: D0 01                      bne $3F4A     ; L_3F4A
3F49: A8                         tay
3F4A: 98        L_3F4A           tya
3F4B: 9D D4 5D                   sta $5DD4,x
3F4E: 60        L_3F4E           rts
3F4F: AE E8 57                   ldx $57E8
3F52: AD D2 5D                   lda $5DD2
3F55: 85 DE                      sta $DE       ; FRE+4
3F57: AD D3 5D                   lda $5DD3
3F5A: 85 DF                      sta $DF       ; FRE+5
3F5C: A0 51                      ldy #$51
3F5E: BD D4 5D                   lda $5DD4,x
3F61: C9 04                      cmp #$04
3F63: F0 02                      beq $3F67     ; L_3F67
3F65: A0 54                      ldy #$54
3F67: B1 DE     L_3F67           lda ($DE),y   ; FRE+4
3F69: C9 37                      cmp #$37
3F6B: 30 07                      bmi $3F74     ; L_3F74
3F6D: C9 60                      cmp #$60
3F6F: 10 03                      bpl $3F74     ; L_3F74
3F71: 4C 30 5F                   jmp $5F30
3F74: 4C 00 3E  L_3F74           jmp $3E00     ; L_3E00
3F77: BD B3 57                   lda $57B3,x
3F7A: C9 FA                      cmp #$FA
3F7C: B0 15                      bcs $3F93     ; L_3F93
3F7E: FE B3 57                   inc $57B3,x
3F81: FE B3 57                   inc $57B3,x
3F84: BD D4 5D                   lda $5DD4,x
3F87: C9 04                      cmp #$04
3F89: F0 04                      beq $3F8F     ; L_3F8F
3F8B: FE B0 57                   inc $57B0,x
3F8E: 60                         rts
3F8F: DE B0 57  L_3F8F           dec $57B0,x
3F92: 60                         rts
3F93: A9 00     L_3F93           lda #$00
3F95: 9D 60 5C                   sta $5C60,x
3F98: 9D 66 5C                   sta $5C66,x
3F9B: 9D 69 5C                   sta $5C69,x
3F9E: 9D 6C 5C                   sta $5C6C,x
3FA1: 8D 6F 5C                   sta $5C6F
3FA4: 9D D7 5D                   sta $5DD7,x
3FA7: 9D DC 5D                   sta $5DDC,x
3FAA: 9D DF 5D                   sta $5DDF,x
3FAD: 9D E2 5D                   sta $5DE2,x
3FB0: A9 03                      lda #$03
3FB2: 9D 63 5C                   sta $5C63,x
3FB5: A9 04                      lda #$04
3FB7: 9D D4 5D                   sta $5DD4,x
3FBA: 60                         rts
3FBB: AE E8 57  L_3FBB           ldx $57E8
3FBE: A9 00                      lda #$00
3FC0: 9D DC 5D                   sta $5DDC,x
3FC3: 9D DF 5D                   sta $5DDF,x
3FC6: 4C 38 3F                   jmp $3F38     ; L_3F38
3FC9: C9 5F     L_3FC9           cmp #$5F
3FCB: F0 02                      beq $3FCF     ; L_3FCF
3FCD: 10 03                      bpl $3FD2     ; L_3FD2
3FCF: 4C 62 3E  L_3FCF           jmp $3E62     ; L_3E62
3FD2: 4C 5C 3E  L_3FD2           jmp $3E5C     ; L_3E5C
3FD5: 00                         BYTE $00 $00 $00 $00 $00 $00 $00 $00
3FDD: 00                         BYTE $00 $00 $00 $00 $00 $00 $00 $00
3FE5: 00                         BYTE $00 $00 $00 $00 $00 $00 $00 $00
3FED: 00                         BYTE $00 $00 $00 $00 $00 $00 $00 $00
3FF5: 00                         BYTE $00 $00 $00 $00 $00 $00 $00 $00
3FFD: 00        L_3FFD           BYTE $00 $00 $00 $00 $0D $00 $00 $00
4005: 07                         BYTE $07 $05 $03 $00 $83 $9D $01
400C: 20 18 40                   jsr $4018     ; L_4018
400F: 20 F9 42  L_400F           jsr $42F9     ; L_42F9
4012: 20 00 2B  L_4012           jsr $2B00     ; L_2B00
4015: 4C 4A 4D                   jmp $4D4A     ; L_4D4A
4018: A2 2E     L_4018           ldx #$2E
401A: A0 03     L_401A           ldy #$03
401C: A9 6C     L_401C           lda #$6C
401E: 8E 2F 02                   stx $022F     ; SDMCTL
4021: 8C 1D D0                   sty $D01D     ; GRACTL
4024: 8D 07 D4                   sta $D407     ; PMBASE
4027: A9 8F                      lda #$8F
4029: 8D C0 02                   sta $02C0     ; PCOLR0
402C: 8D C1 02                   sta $02C1     ; PCOLR1
402F: 8D C2 02                   sta $02C2     ; PCOLR2
4032: A9 04                      lda #$04
4034: 8D F3 46                   sta $46F3     ; L_46F0+3
4037: 8D F4 46                   sta $46F4     ; L_46F0+4
403A: 8D F5 46                   sta $46F5     ; L_46F0+5
403D: A9 1A                      lda #$1A
403F: 8D 03 4A                   sta $4A03     ; L_4A01+2
4042: A2 40                      ldx #$40
4044: A9 00                      lda #$00
4046: 20 97 46                   jsr $4697     ; L_4697
4049: 8D 70 5C                   sta $5C70
404C: 8D 04 4E                   sta $4E04     ; L_4E04
404F: 8D 02 50                   sta $5002
4052: 8D 72 50                   sta $5072
4055: 8D 73 50                   sta $5073
4058: 8D 74 50                   sta $5074
405B: 8D 0B 44                   sta $440B     ; L_4405+6
405E: 8D 77 52                   sta $5277
4061: 8D 78 52                   sta $5278
4064: 8D 79 52                   sta $5279
4067: 8D 79 50                   sta $5079
406A: 8D 7A 50                   sta $507A
406D: 8D 7B 50                   sta $507B
4070: 8D 7C 50                   sta $507C
4073: 9D 00 4C  L_4073           sta $4C00,x   ; L_4C00
4076: E8                         inx
4077: E0 D5                      cpx #$D5
4079: D0 F8                      bne $4073     ; L_4073
407B: A2 00                      ldx #$00
407D: BD 00 5C  L_407D           lda $5C00,x
4080: 9D 90 89                   sta $8990,x
4083: 9D A8 89                   sta $89A8,x
4086: E8                         inx
4087: E0 18                      cpx #$18
4089: D0 F2                      bne $407D     ; L_407D
408B: A2 AC                      ldx #$AC
408D: A0 9E                      ldy #$9E
408F: 8E C0 46                   stx $46C0     ; L_46C0
4092: 8E C2 46                   stx $46C2     ; L_46C0+2
4095: 8E C4 46                   stx $46C4     ; L_46C0+4
4098: 8C C1 46                   sty $46C1     ; L_46C0+1
409B: 8C C3 46                   sty $46C3     ; L_46C0+3
409E: 8C C5 46                   sty $46C5     ; L_46C0+5
40A1: A2 09                      ldx #$09
40A3: 8E C6 46                   stx $46C6     ; L_46C0+6
40A6: 8E C7 46                   stx $46C7     ; L_46C0+7
40A9: 8E C8 46                   stx $46C8     ; L_46C8
40AC: A2 0E                      ldx #$0E
40AE: A0 17                      ldy #$17
40B0: 8E F6 46                   stx $46F6     ; L_46F0+6
40B3: 8E F7 46                   stx $46F7     ; L_46F0+7
40B6: 8E F8 46                   stx $46F8     ; L_46F8
40B9: 8C F9 46                   sty $46F9     ; L_46F8+1
40BC: 8C FA 46                   sty $46FA     ; L_46F8+2
40BF: 8C FB 46                   sty $46FB     ; L_46F8+3
40C2: A2 01                      ldx #$01
40C4: 8E C9 46                   stx $46C9     ; L_46C8+1
40C7: 8E CA 46                   stx $46CA     ; L_46C8+2
40CA: 8E CB 46                   stx $46CB     ; L_46C8+3
40CD: 8E 75 50                   stx $5075
40D0: CA                         dex
40D1: 8E 76 50                   stx $5076
40D4: 8E 77 50                   stx $5077
40D7: 8E 09 46                   stx $4609     ; L_4607+2
40DA: 8E 0A 46                   stx $460A     ; L_4607+3
40DD: 8E 0C 46                   stx $460C     ; L_4607+5
40E0: 8E 0D 46                   stx $460D     ; L_4607+6
40E3: 8E D9 46                   stx $46D9     ; L_46D8+1
40E6: 8E DA 46                   stx $46DA     ; L_46D8+2
40E9: 8E DB 46                   stx $46DB     ; L_46D8+3
40EC: 8E DC 46                   stx $46DC     ; L_46D8+4
40EF: 8E DD 46                   stx $46DD     ; L_46D8+5
40F2: 8E DE 46                   stx $46DE     ; L_46D8+6
40F5: 8E DF 46                   stx $46DF     ; L_46D8+7
40F8: A9 04                      lda #$04
40FA: 8D 78 02                   sta $0278     ; STICK0
40FD: A2 83                      ldx #$83
40FF: A0 62                      ldy #$62
4101: 8E 08 46                   stx $4608     ; L_4607+1
4104: 8C 0B 46                   sty $460B     ; L_4607+4
4107: A2 00                      ldx #$00
4109: A0 03                      ldy #$03
410B: 20 0E 46                   jsr $460E     ; L_460E
410E: A2 00                      ldx #$00
4110: A0 02                      ldy #$02
4112: 20 0E 46                   jsr $460E     ; L_460E
4115: A9 88                      lda #$88
4117: 8D F4 02                   sta $02F4     ; CHBAS
411A: 20 26 3C                   jsr $3C26     ; L_3C26
411D: AD 00 40                   lda $4000     ; L_3FFD+3
4120: 29 03                      and #$03
4122: 8D 01 40                   sta $4001     ; L_3FFD+4
4125: A2 00                      ldx #$00
4127: A0 90                      ldy #$90
4129: 86 DC                      stx $DC       ; FRE+2
412B: 84 DD                      sty $DD       ; FRE+3
412D: EC 01 40  L_412D           cpx $4001     ; L_3FFD+4
4130: F0 0F                      beq $4141     ; L_4141
4132: A5 DC                      lda $DC       ; FRE+2
4134: 18                         clc
4135: 69 80                      adc #$80
4137: 85 DC                      sta $DC       ; FRE+2
4139: 90 02                      bcc $413D     ; L_413D
413B: E6 DD                      inc $DD       ; FRE+3
413D: E8        L_413D           inx
413E: 4C 2D 41                   jmp $412D     ; L_412D
4141: A0 00     L_4141           ldy #$00
4143: B1 DC     L_4143           lda ($DC),y   ; FRE+2
4145: 99 C0 89                   sta $89C0,y
4148: C8                         iny
4149: C0 80                      cpy #$80
414B: D0 F6                      bne $4143     ; L_4143
414D: A2 07                      ldx #$07
414F: A0 9B                      ldy #$9B
4151: 86 DC                      stx $DC       ; FRE+2
4153: 84 DD                      sty $DD       ; FRE+3
4155: A9 38                      lda #$38
4157: 85 DE                      sta $DE       ; FRE+4
4159: A2 00                      ldx #$00
415B: A0 00     L_415B           ldy #$00
415D: 8E 01 40  L_415D           stx $4001     ; L_3FFD+4
4160: 8C 02 40                   sty $4002     ; L_3FFD+5
4163: A2 00                      ldx #$00
4165: A0 00                      ldy #$00
4167: 98        L_4167           tya
4168: 18                         clc
4169: 69 04                      adc #$04
416B: 85 DF                      sta $DF       ; FRE+5
416D: A5 DE     L_416D           lda $DE       ; FRE+4
416F: 91 DC                      sta ($DC),y   ; FRE+2
4171: C8                         iny
4172: E6 DE                      inc $DE       ; FRE+4
4174: C4 DF                      cpy $DF       ; FRE+5
4176: D0 F5                      bne $416D     ; L_416D
4178: 88                         dey
4179: 88                         dey
417A: 88                         dey
417B: 88                         dey
417C: 98                         tya
417D: 18                         clc
417E: 69 28                      adc #$28
4180: A8                         tay
4181: E8                         inx
4182: E0 04                      cpx #$04
4184: D0 E1                      bne $4167     ; L_4167
4186: AE 01 40                   ldx $4001     ; L_3FFD+4
4189: AC 02 40                   ldy $4002     ; L_3FFD+5
418C: A9 38                      lda #$38
418E: 85 DE                      sta $DE       ; FRE+4
4190: A5 DC                      lda $DC       ; FRE+2
4192: 18                         clc
4193: 69 04                      adc #$04
4195: 85 DC                      sta $DC       ; FRE+2
4197: 90 02                      bcc $419B     ; L_419B
4199: E6 DD                      inc $DD       ; FRE+3
419B: C8        L_419B           iny
419C: C0 07                      cpy #$07
419E: D0 BD                      bne $415D     ; L_415D
41A0: A5 DC                      lda $DC       ; FRE+2
41A2: 18                         clc
41A3: 69 84                      adc #$84
41A5: 85 DC                      sta $DC       ; FRE+2
41A7: 90 02                      bcc $41AB     ; L_41AB
41A9: E6 DD                      inc $DD       ; FRE+3
41AB: E8        L_41AB           inx
41AC: E0 07                      cpx #$07
41AE: D0 AB                      bne $415B     ; L_415B
41B0: A2 88                      ldx #$88
41B2: A0 82                      ldy #$82
41B4: AD 00 40                   lda $4000     ; L_3FFD+3
41B7: 29 01                      and #$01
41B9: F0 04                      beq $41BF     ; L_41BF
41BB: A2 BA                      ldx #$BA
41BD: A0 B4                      ldy #$B4
41BF: 8E C4 02  L_41BF           stx $02C4     ; COLOR0
41C2: 8C C5 02                   sty $02C5     ; COLOR1
41C5: A2 00                      ldx #$00
41C7: A9 17     L_41C7           lda #$17
41C9: 9D 08 9B                   sta $9B08,x
41CC: A9 1C                      lda #$1C
41CE: 9D 40 9F                   sta $9F40,x
41D1: E8                         inx
41D2: E0 1C                      cpx #$1C
41D4: D0 F1                      bne $41C7     ; L_41C7
41D6: A2 13                      ldx #$13
41D8: 8E 06 9B                   stx $9B06
41DB: E8                         inx
41DC: 8E 07 9B                   stx $9B07
41DF: E8                         inx
41E0: 8E 22 9B                   stx $9B22
41E3: E8                         inx
41E4: 8E 23 9B                   stx $9B23
41E7: A2 2E                      ldx #$2E
41E9: A0 9B                      ldy #$9B
41EB: 86 DC                      stx $DC       ; FRE+2
41ED: 84 DD                      sty $DD       ; FRE+3
41EF: A2 00                      ldx #$00
41F1: A0 00     L_41F1           ldy #$00
41F3: A9 22                      lda #$22
41F5: 91 DC                      sta ($DC),y   ; FRE+2
41F7: C8                         iny
41F8: A9 23                      lda #$23
41FA: 91 DC                      sta ($DC),y   ; FRE+2
41FC: A0 28                      ldy #$28
41FE: A9 24                      lda #$24
4200: 91 DC                      sta ($DC),y   ; FRE+2
4202: C8                         iny
4203: A9 25                      lda #$25
4205: 91 DC                      sta ($DC),y   ; FRE+2
4207: A0 50                      ldy #$50
4209: A9 26                      lda #$26
420B: 91 DC                      sta ($DC),y   ; FRE+2
420D: C8                         iny
420E: A9 27                      lda #$27
4210: 91 DC                      sta ($DC),y   ; FRE+2
4212: A0 78                      ldy #$78
4214: A9 28                      lda #$28
4216: 91 DC                      sta ($DC),y   ; FRE+2
4218: C8                         iny
4219: A9 29                      lda #$29
421B: 91 DC                      sta ($DC),y   ; FRE+2
421D: A0 1C                      ldy #$1C
421F: A9 2A                      lda #$2A
4221: 91 DC                      sta ($DC),y   ; FRE+2
4223: C8                         iny
4224: A9 2B                      lda #$2B
4226: 91 DC                      sta ($DC),y   ; FRE+2
4228: A0 44                      ldy #$44
422A: A9 2C                      lda #$2C
422C: 91 DC                      sta ($DC),y   ; FRE+2
422E: C8                         iny
422F: A9 2D                      lda #$2D
4231: 91 DC                      sta ($DC),y   ; FRE+2
4233: A0 6C                      ldy #$6C
4235: A9 2E                      lda #$2E
4237: 91 DC                      sta ($DC),y   ; FRE+2
4239: C8                         iny
423A: A9 2F                      lda #$2F
423C: 91 DC                      sta ($DC),y   ; FRE+2
423E: A0 94                      ldy #$94
4240: A9 30                      lda #$30
4242: 91 DC                      sta ($DC),y   ; FRE+2
4244: C8                         iny
4245: A9 31                      lda #$31
4247: 91 DC                      sta ($DC),y   ; FRE+2
4249: A5 DC                      lda $DC       ; FRE+2
424B: 18                         clc
424C: 69 A0                      adc #$A0
424E: 85 DC                      sta $DC       ; FRE+2
4250: 90 02                      bcc $4254     ; L_4254
4252: E6 DD                      inc $DD       ; FRE+3
4254: E8        L_4254           inx
4255: E0 07                      cpx #$07
4257: D0 98                      bne $41F1     ; L_41F1
4259: A2 18                      ldx #$18
425B: 8E 3E 9F                   stx $9F3E
425E: E8                         inx
425F: 8E 3F 9F                   stx $9F3F
4262: E8                         inx
4263: 8E 5A 9F                   stx $9F5A
4266: E8                         inx
4267: 8E 5B 9F                   stx $9F5B
426A: A2 00                      ldx #$00
426C: 8A        L_426C           txa
426D: 18                         clc
426E: 69 32                      adc #$32
4270: 9D 0E 9B                   sta $9B0E,x
4273: 8A                         txa
4274: 18                         clc
4275: 69 35                      adc #$35
4277: 9D 1A 9B                   sta $9B1A,x
427A: A9 00                      lda #$00
427C: 9D 66 5C                   sta $5C66,x
427F: 9D 69 5C                   sta $5C69,x
4282: 9D 6C 5C                   sta $5C6C,x
4285: 9D B0 57                   sta $57B0,x
4288: 9D B3 57                   sta $57B3,x
428B: 9D B6 57                   sta $57B6,x
428E: 9D B9 57                   sta $57B9,x
4291: 9D E5 57                   sta $57E5,x
4294: 8D E8 57                   sta $57E8
4297: 9D D7 5D                   sta $5DD7,x
429A: 9D DC 5D                   sta $5DDC,x
429D: 9D DF 5D                   sta $5DDF,x
42A0: 9D E2 5D                   sta $5DE2,x
42A3: A9 04                      lda #$04
42A5: 9D D4 5D                   sta $5DD4,x
42A8: E8                         inx
42A9: E0 03                      cpx #$03
42AB: D0 BF                      bne $426C     ; L_426C
42AD: A2 00                      ldx #$00
42AF: BD FA 9E  L_42AF           lda $9EFA,x
42B2: 9D 00 44                   sta $4400,x   ; L_43FD+3
42B5: 8A                         txa
42B6: 18                         clc
42B7: 69 48                      adc #$48
42B9: 9D FA 9E                   sta $9EFA,x
42BC: E8                         inx
42BD: E0 08                      cpx #$08
42BF: D0 EE                      bne $42AF     ; L_42AF
42C1: A2 00                      ldx #$00
42C3: A9 00     L_42C3           lda #$00
42C5: 9D 65 9F                   sta $9F65,x
42C8: 9D 6A 9F                   sta $9F6A,x
42CB: E8                         inx
42CC: E0 1B                      cpx #$1B
42CE: D0 F3                      bne $42C3     ; L_42C3
42D0: A9 48                      lda #$48
42D2: 8D 08 44                   sta $4408     ; L_4405+3
42D5: 8D 09 44                   sta $4409     ; L_4405+4
42D8: 20 7A 28                   jsr $287A     ; L_287A
42DB: AD 0B D4                   lda $D40B     ; VCOUNT
42DE: 29 07                      and #$07
42E0: 18                         clc
42E1: 69 03                      adc #$03
42E3: 8D 00 4E                   sta $4E00     ; L_4E00
42E6: AD 00 40                   lda $4000     ; L_3FFD+3
42E9: 29 03                      and #$03
42EB: AA                         tax
42EC: BD E5 43                   lda $43E5,x   ; L_43E5
42EF: 8D BC 57                   sta $57BC
42F2: 8D BD 57                   sta $57BD
42F5: 8D BE 57                   sta $57BE
42F8: 60                         rts
42F9: A2 00     L_42F9           ldx #$00
42FB: A0 7B                      ldy #$7B
42FD: 86 DC                      stx $DC       ; FRE+2
42FF: 84 DD                      sty $DD       ; FRE+3
4301: A0 70                      ldy #$70
4303: 86 DE                      stx $DE       ; FRE+4
4305: 84 DF                      sty $DF       ; FRE+5
4307: A2 00                      ldx #$00
4309: EC 00 40  L_4309           cpx $4000     ; L_3FFD+3
430C: F0 0F                      beq $431D     ; L_431D
430E: A5 DC                      lda $DC       ; FRE+2
4310: 18                         clc
4311: 69 26                      adc #$26
4313: 85 DC                      sta $DC       ; FRE+2
4315: 90 02                      bcc $4319     ; L_4319
4317: E6 DD                      inc $DD       ; FRE+3
4319: E8        L_4319           inx
431A: 4C 09 43                   jmp $4309     ; L_4309
431D: A2 00     L_431D           ldx #$00
431F: EC 00 40  L_431F           cpx $4000     ; L_3FFD+3
4322: F0 20                      beq $4344     ; L_4344
4324: A0 00                      ldy #$00
4326: B1 DE     L_4326           lda ($DE),y   ; FRE+4
4328: C9 FF                      cmp #$FF
432A: F0 04                      beq $4330     ; L_4330
432C: C8                         iny
432D: 4C 26 43                   jmp $4326     ; L_4326
4330: C8        L_4330           iny
4331: 8C 01 40                   sty $4001     ; L_3FFD+4
4334: A5 DE                      lda $DE       ; FRE+4
4336: 18                         clc
4337: 6D 01 40                   adc $4001     ; L_3FFD+4
433A: 85 DE                      sta $DE       ; FRE+4
433C: 90 02                      bcc $4340     ; L_4340
433E: E6 DF                      inc $DF       ; FRE+5
4340: E8        L_4340           inx
4341: 4C 1F 43                   jmp $431F     ; L_431F
4344: A6 DC     L_4344           ldx $DC       ; FRE+2
4346: A4 DD                      ldy $DD       ; FRE+3
4348: 8E 22 3C                   stx $3C22     ; BRICK_COLORS_L
434B: 8C 23 3C                   sty $3C23     ; BRICK_COLORS_H
434E: A2 30                      ldx #$30
4350: A0 9B                      ldy #$9B
4352: 86 DC                      stx $DC       ; FRE+2
4354: 84 DD                      sty $DD       ; FRE+3
4356: A2 00                      ldx #$00
4358: 8E 03 40                   stx $4003     ; L_3FFD+6
435B: A0 00     L_435B           ldy #$00
435D: B1 DE                      lda ($DE),y   ; FRE+4
435F: C9 FF                      cmp #$FF
4361: F0 71                      beq $43D4     ; L_43D4
4363: 8D 01 40                   sta $4001     ; L_3FFD+4
4366: 29 1F                      and #$1F
4368: 8D 02 40                   sta $4002     ; L_3FFD+5
436B: AA                         tax
436C: AD 01 40                   lda $4001     ; L_3FFD+4
436F: 29 E0                      and #$E0
4371: 4A                         lsr
4372: 4A                         lsr
4373: 4A                         lsr
4374: 4A                         lsr
4375: 4A                         lsr
4376: A8                         tay
4377: B9 04 40                   lda $4004,y   ; L_3FFD+7
437A: 8D 02 40                   sta $4002     ; L_3FFD+5
437D: A0 00     L_437D           ldy #$00
437F: AD 01 40                   lda $4001     ; L_3FFD+4
4382: 29 E0                      and #$E0
4384: F0 11                      beq $4397     ; L_4397
4386: AD 02 40                   lda $4002     ; L_3FFD+5
4389: 91 DC                      sta ($DC),y   ; FRE+2
438B: EE 02 40                   inc $4002     ; L_3FFD+5
438E: C8                         iny
438F: AD 02 40                   lda $4002     ; L_3FFD+5
4392: 91 DC                      sta ($DC),y   ; FRE+2
4394: CE 02 40                   dec $4002     ; L_3FFD+5
4397: A5 DC     L_4397           lda $DC       ; FRE+2
4399: 18                         clc
439A: 69 02                      adc #$02
439C: 85 DC                      sta $DC       ; FRE+2
439E: 90 02                      bcc $43A2     ; L_43A2
43A0: E6 DD                      inc $DD       ; FRE+3
43A2: CA        L_43A2           dex
43A3: E0 00                      cpx #$00
43A5: D0 D6                      bne $437D     ; L_437D
43A7: A5 DE                      lda $DE       ; FRE+4
43A9: C9 FF                      cmp #$FF
43AB: D0 02                      bne $43AF     ; L_43AF
43AD: E6 DF                      inc $DF       ; FRE+5
43AF: E6 DE     L_43AF           inc $DE       ; FRE+4
43B1: AD 01 40                   lda $4001     ; L_3FFD+4
43B4: 29 1F                      and #$1F
43B6: 18                         clc
43B7: 6D 03 40                   adc $4003     ; L_3FFD+6
43BA: 8D 03 40                   sta $4003     ; L_3FFD+6
43BD: C9 0D                      cmp #$0D
43BF: D0 9A                      bne $435B     ; L_435B
43C1: A9 00                      lda #$00
43C3: 8D 03 40                   sta $4003     ; L_3FFD+6
43C6: A5 DC                      lda $DC       ; FRE+2
43C8: 18                         clc
43C9: 69 0E                      adc #$0E
43CB: 85 DC                      sta $DC       ; FRE+2
43CD: 90 02                      bcc $43D1     ; L_43D1
43CF: E6 DD                      inc $DD       ; FRE+3
43D1: 4C 5B 43  L_43D1           jmp $435B     ; L_435B
43D4: 60        L_43D4           rts
43D5: A2 00     L_43D5           ldx #$00
43D7: 8A                         txa
43D8: 9D 00 6D  L_43D8           sta $6D00,x
43DB: 9D 00 6E                   sta $6E00,x
43DE: 9D 00 6F                   sta $6F00,x
43E1: E8                         inx
43E2: D0 F4                      bne $43D8     ; L_43D8
43E4: 60                         rts
43E5: 02        L_43E5           BYTE $02 $03 $01 $00 $00 $00 $00 $00
43ED: 00                         BYTE $00 $00 $00 $00 $00 $00 $00 $00
43F5: 00                         BYTE $00 $00 $00 $00 $00 $00 $00 $00
43FD: 00        L_43FD           BYTE $00 $00 $00 $3F $3C $3D $3E $3F
4405: 3C        L_4405           BYTE $3C $3D $3E $48 $48 $1A $00 $00
440D: 00                         BYTE $00
440E: 29 FC     L_440E           and #$FC
4410: 4A                         lsr
4411: 4A                         lsr
4412: AD 0B 44                   lda $440B     ; L_4405+6
4415: 18                         clc
4416: 69 80                      adc #$80
4418: 85 DD                      sta $DD       ; FRE+3
441A: AD 0B 44                   lda $440B     ; L_4405+6
441D: 29 07                      and #$07
441F: 18                         clc
4420: 0A                         asl
4421: 0A                         asl
4422: 0A                         asl
4423: 0A                         asl
4424: A9 00                      lda #$00
4426: 85 DC                      sta $DC       ; FRE+2
4428: AD 09 44                   lda $4409     ; L_4405+4
442B: 29 03                      and #$03
442D: 18                         clc
442E: 0A                         asl
442F: 0A                         asl
4430: 0A                         asl
4431: 0A                         asl
4432: 0A                         asl
4433: 0A                         asl
4434: 18                         clc
4435: 65 DC                      adc $DC       ; FRE+2
4437: 85 DC                      sta $DC       ; FRE+2
4439: 90 02                      bcc $443D     ; L_443D
443B: E6 DD                      inc $DD       ; FRE+3
443D: A2 40     L_443D           ldx #$40
443F: A0 8A     L_443F           ldy #$8A
4441: 86 00                      stx $00       ; LNFLG
4443: 84 01                      sty $01       ; NGFLAG
4445: A2 00                      ldx #$00
4447: BD 00 44  L_4447           lda $4400,x   ; L_43FD+3
444A: 29 E0                      and #$E0
444C: 4A                         lsr
444D: 4A                         lsr
444E: 4A                         lsr
444F: 4A                         lsr
4450: 4A                         lsr
4451: 18                         clc
4452: 69 88     L_4452           adc #$88
4454: 85 03                      sta $03       ; CASINI+1
4456: BD 00 44                   lda $4400,x   ; L_43FD+3
4459: 29 1F                      and #$1F
445B: 0A                         asl
445C: 0A                         asl
445D: 0A                         asl
445E: 85 02                      sta $02       ; CASINI
4460: A0 00                      ldy #$00
4462: A5 DC     L_4462           lda $DC       ; FRE+2
4464: 85 DE                      sta $DE       ; FRE+4
4466: A5 DD                      lda $DD       ; FRE+3
4468: 18                         clc
4469: 69 04                      adc #$04
446B: 85 DF                      sta $DF       ; FRE+5
446D: B1 02                      lda ($02),y   ; CASINI
446F: 31 DE                      and ($DE),y   ; FRE+4
4471: 11 DC                      ora ($DC),y   ; FRE+2
4473: 91 00                      sta ($00),y   ; LNFLG
4475: C8                         iny
4476: C0 08                      cpy #$08
4478: D0 E8                      bne $4462     ; L_4462
447A: A5 DC                      lda $DC       ; FRE+2
447C: 18                         clc
447D: 69 08                      adc #$08
447F: 85 DC                      sta $DC       ; FRE+2
4481: A5 00                      lda $00       ; LNFLG
4483: 18                         clc
4484: 69 08                      adc #$08
4486: 85 00                      sta $00       ; LNFLG
4488: E8                         inx
4489: E0 08                      cpx #$08
448B: D0 BA                      bne $4447     ; L_4447
448D: 60                         rts
448E: AD 09 44  L_448E           lda $4409     ; L_4405+4
4491: 8D 08 44                   sta $4408     ; L_4405+3
4494: 29 FC                      and #$FC
4496: 4A                         lsr
4497: 4A                         lsr
4498: 8D 0A 44                   sta $440A     ; L_4405+5
449B: A2 E8                      ldx #$E8
449D: A0 9E                      ldy #$9E
449F: 86 DE                      stx $DE       ; FRE+4
44A1: 84 DF                      sty $DF       ; FRE+5
44A3: A5 DE                      lda $DE       ; FRE+4
44A5: 18                         clc
44A6: 6D 0A 44                   adc $440A     ; L_4405+5
44A9: 85 DE                      sta $DE       ; FRE+4
44AB: 90 02                      bcc $44AF     ; L_44AF
44AD: E6 DF                      inc $DF       ; FRE+5
44AF: 60        L_44AF           rts
44B0: A0 00     L_44B0           ldy #$00
44B2: AD 08 44  L_44B2           lda $4408     ; L_4405+3
44B5: C9 08                      cmp #$08
44B7: 90 09                      bcc $44C2     ; L_44C2
44B9: C9 22                      cmp #$22
44BB: B0 05                      bcs $44C2     ; L_44C2
44BD: B9 00 44                   lda $4400,y   ; L_43FD+3
44C0: 91 DE                      sta ($DE),y   ; FRE+4
44C2: EE 08 44  L_44C2           inc $4408     ; L_4405+3
44C5: C8                         iny
44C6: C0 08                      cpy #$08
44C8: D0 E8                      bne $44B2     ; L_44B2
44CA: 60                         rts
44CB: AD 08 44  L_44CB           lda $4408     ; L_4405+3
44CE: 29 FC                      and #$FC
44D0: 4A                         lsr
44D1: 4A                         lsr
44D2: 8D 08 44                   sta $4408     ; L_4405+3
44D5: A2 E8                      ldx #$E8
44D7: A0 9E                      ldy #$9E
44D9: 86 DE                      stx $DE       ; FRE+4
44DB: 84 DF                      sty $DF       ; FRE+5
44DD: A5 DE                      lda $DE       ; FRE+4
44DF: 18                         clc
44E0: 6D 08 44                   adc $4408     ; L_4405+3
44E3: 85 DE                      sta $DE       ; FRE+4
44E5: 90 02                      bcc $44E9     ; L_44E9
44E7: E6 DF                      inc $DF       ; FRE+5
44E9: AD 25 3C  L_44E9           lda $3C25     ; TIMER_MAYBE
44EC: EA                         nop
44ED: EA                         nop
44EE: 4C B0 44                   jmp $44B0     ; L_44B0
44F1: 20 8E 44  L_44F1           jsr $448E     ; L_448E
44F4: A0 00                      ldy #$00
44F6: AD 0A 44  L_44F6           lda $440A     ; L_4405+5
44F9: C9 08                      cmp #$08
44FB: 90 0F                      bcc $450C     ; L_450C
44FD: C9 22                      cmp #$22
44FF: B0 0B                      bcs $450C     ; L_450C
4501: B1 DE                      lda ($DE),y   ; FRE+4
4503: 99 00 44                   sta $4400,y   ; L_43FD+3
4506: 98                         tya
4507: 18                         clc
4508: 69 48                      adc #$48
450A: 91 DE                      sta ($DE),y   ; FRE+4
450C: EE 0A 44  L_450C           inc $440A     ; L_4405+5
450F: C8                         iny
4510: C0 08                      cpy #$08
4512: D0 E2                      bne $44F6     ; L_44F6
4514: 4C 4F 45                   jmp $454F     ; L_454F
4517: 01        L_4517           BYTE $01 $20 $0C $40 $AD $24 $3C
451E: C9 1C                      cmp #$1C
4520: 30 03                      bmi $4525     ; L_4525
4522: 20 FD 46                   jsr $46FD     ; L_46FD
4525: AD 25 3C  L_4525           lda $3C25     ; TIMER_MAYBE
4528: F0 F1                      beq $451B     ; L_4517+4
452A: 20 CB 44                   jsr $44CB     ; L_44CB
452D: 20 C7 59                   jsr $59C7
4530: 20 F1 44                   jsr $44F1     ; L_44F1
4533: 20 FA 4E                   jsr $4EFA     ; L_4EFA
4536: 20 E5 5D                   jsr $5DE5
4539: A9 00                      lda #$00
453B: 20 D7 4C                   jsr $4CD7     ; L_4CD7
453E: 20 7A 8E  L_453E           jsr $8E7A
4541: 20 03 50                   jsr $5003
4544: 20 08 2C                   jsr $2C08     ; L_2C03+5
4547: 4C BF 28                   jmp $28BF     ; L_28BF
454A: E8        L_454A           inx
454B: 08        L_454B           php
454C: 4F 0A 10  L_454C           lse $100A     ; L_1008+2
454F: 8E 4A 45  L_454F           stx $454A     ; L_454A
4552: 8C 4B 45                   sty $454B     ; L_454B
4555: 8D 4C 45                   sta $454C     ; L_454C
4558: A0 0F                      ldy #$0F
455A: AD 03 4A                   lda $4A03     ; L_4A01+2
455D: C9 1A                      cmp #$1A
455F: D0 02                      bne $4563     ; L_4563
4561: A0 0A                      ldy #$0A
4563: 8C 4D 45  L_4563           sty $454D     ; L_454C+1
4566: A0 10                      ldy #$10
4568: AD 03 4A                   lda $4A03     ; L_4A01+2
456B: C9 1A                      cmp #$1A
456D: F0 02                      beq $4571     ; L_4571
456F: A0 14                      ldy #$14
4571: 8C 4E 45  L_4571           sty $454E     ; L_454C+2
4574: AE E8 57                   ldx $57E8
4577: BD 69 5C                   lda $5C69,x
457A: C9 06                      cmp #$06
457C: F0 30                      beq $45AE     ; L_45AE
457E: BD B3 57                   lda $57B3,x
4581: C9 D0                      cmp #$D0
4583: 90 29                      bcc $45AE     ; L_45AE
4585: C9 E0                      cmp #$E0
4587: B0 25                      bcs $45AE     ; L_45AE
4589: BD B0 57                   lda $57B0,x
458C: 18                         clc
458D: 6D 4D 45                   adc $454D     ; L_454C+1
4590: CD 09 44                   cmp $4409     ; L_4405+4
4593: 90 19                      bcc $45AE     ; L_45AE
4595: BD B0 57                   lda $57B0,x
4598: 38                         sec
4599: ED 4E 45                   sbc $454E     ; L_454C+2
459C: CD 09 44                   cmp $4409     ; L_4405+4
459F: B0 0D                      bcs $45AE     ; L_45AE
45A1: A9 06                      lda #$06
45A3: 9D 69 5C                   sta $5C69,x
45A6: A2 02                      ldx #$02
45A8: 20 B4 3B                   jsr $3BB4     ; L_3BB0+4
45AB: 20 C7 2A                   jsr $2AC7     ; L_2AC7
45AE: AE 4A 45  L_45AE           ldx $454A     ; L_454A
45B1: AC 4B 45                   ldy $454B     ; L_454B
45B4: AD 4C 45                   lda $454C     ; L_454C
45B7: 4C 0E 44                   jmp $440E     ; L_440E
45BA: AD 78 02                   lda $0278     ; STICK0
45BD: 8D 17 45                   sta $4517     ; L_4517
45C0: C9 0B                      cmp #$0B
45C2: D0 0C                      bne $45D0     ; L_45D0
45C4: CE 09 44                   dec $4409     ; L_4405+4
45C7: CE 09 44                   dec $4409     ; L_4405+4
45CA: CE 09 44                   dec $4409     ; L_4405+4
45CD: 4C DD 45                   jmp $45DD     ; L_45DD
45D0: C9 07     L_45D0           cmp #$07
45D2: D0 09                      bne $45DD     ; L_45DD
45D4: EE 09 44                   inc $4409     ; L_4405+4
45D7: EE 09 44                   inc $4409     ; L_4405+4
45DA: EE 09 44                   inc $4409     ; L_4405+4
45DD: 60        L_45DD           rts
45DE: 00                         brk
45DF: 00                         brk
45E0: BD 69 5C  L_45E0           lda $5C69,x
45E3: C9 05                      cmp #$05
45E5: D0 15                      bne $45FC     ; L_45FC
45E7: AD 02 3D                   lda $3D02     ; L_3CFC+6
45EA: A9 06                      lda #$06
45EC: 9D 69 5C                   sta $5C69,x
45EF: A9 04                      lda #$04
45F1: 9D BC 57                   sta $57BC,x
45F4: A2 02                      ldx #$02
45F6: 20 24 28                   jsr $2824     ; L_2824
45F9: 20 B4 3B                   jsr $3BB4     ; L_3BB0+4
45FC: 4C 25 3D  L_45FC           jmp $3D25     ; L_3D25
45FF: 00        L_45FF           BYTE $00 $00 $00 $40 $A0 $40 $00 $00
4607: 00        L_4607           BYTE $00 $84 $00 $00 $63 $00 $00
460E: 8A        L_460E           txa
460F: 8D 07 46                   sta $4607     ; L_4607
4612: 85 DE                      sta $DE       ; FRE+4
4614: 29 FE                      and #$FE
4616: 4A                         lsr
4617: 18                         clc
4618: 69 6E                      adc #$6E
461A: 85 DF                      sta $DF       ; FRE+5
461C: A5 DE                      lda $DE       ; FRE+4
461E: 29 01                      and #$01
4620: 18                         clc
4621: 0A                         asl
4622: 0A                         asl
4623: 0A                         asl
4624: 0A                         asl
4625: 0A                         asl
4626: 0A                         asl
4627: 20 77 46                   jsr $4677     ; L_4677
462A: C0 02                      cpy #$02
462C: F0 28                      beq $4656     ; L_4656
462E: C0 04                      cpy #$04
4630: F0 31                      beq $4663     ; L_4663
4632: BD 0B 46                   lda $460B,x   ; L_4607+4
4635: C0 03                      cpy #$03
4637: F0 06                      beq $463F     ; L_463F
4639: A8                         tay
463A: 88                         dey
463B: 98                         tya
463C: 4C 42 46                   jmp $4642     ; L_4642
463F: A8        L_463F           tay
4640: C8                         iny
4641: 98                         tya
4642: 29 7F     L_4642           and #$7F
4644: A8                         tay
4645: 9D 0B 46                   sta $460B,x   ; L_4607+4
4648: A2 00                      ldx #$00
464A: BD 00 46  L_464A           lda $4600,x   ; L_45FF+1
464D: 91 DE     L_464D           sta ($DE),y   ; FRE+4
464F: C8                         iny
4650: E8                         inx
4651: E0 06                      cpx #$06
4653: D0 F5                      bne $464A     ; L_464A
4655: 60                         rts
4656: AE 07 46  L_4656           ldx $4607     ; L_4607
4659: 20 70 46                   jsr $4670     ; L_4670
465C: 9D 00 D0                   sta $D000,x   ; HPOSP0
465F: FE 08 46                   inc $4608,x   ; L_4607+1
4662: 60                         rts
4663: AE 07 46  L_4663           ldx $4607     ; L_4607
4666: 20 70 46                   jsr $4670     ; L_4670
4669: 9D 00 D0                   sta $D000,x   ; HPOSP0
466C: DE 08 46                   dec $4608,x   ; L_4607+1
466F: 60                         rts
4670: BD 08 46  L_4670           lda $4608,x   ; L_4607+1
4673: 38                         sec
4674: E9 01                      sbc #$01
4676: 60                         rts
4677: 0A        L_4677           asl
4678: 18                         clc
4679: 69 01                      adc #$01
467B: 85 DE                      sta $DE       ; FRE+4
467D: 60                         rts
467E: 4C B0 2A                   jmp $2AB0     ; L_2AB0
4681: 85 EB     L_4681           sta $EB       ; FR2+5
4683: EA                         nop
4684: AD 00 40                   lda $4000     ; L_3FFD+3
4687: C9 20                      cmp #$20
4689: F0 06                      beq $4691     ; L_4691
468B: EA                         nop
468C: A5 EB                      lda $EB       ; FR2+5
468E: C9 60                      cmp #$60
4690: 60                         rts
4691: EA        L_4691           nop
4692: A5 EB                      lda $EB       ; FR2+5
4694: C9 48                      cmp #$48
4696: 60                         rts
4697: 8D 10 8F  L_4697           sta $8F10
469A: 4C A0 2F                   jmp $2FA0     ; L_2FA0
469D: 60                         rts
469E: AD 08 46                   lda $4608     ; L_4607+1
46A1: 38                         sec
46A2: E9 2C                      sbc #$2C
46A4: 38                         sec
46A5: ED 09 44                   sbc $4409     ; L_4405+4
46A8: C9 0A                      cmp #$0A
46AA: 10 11                      bpl $46BD     ; L_46BD
46AC: 85 EA                      sta $EA       ; FR2+4
46AE: A9 0A                      lda #$0A
46B0: 38                         sec
46B1: E5 EA                      sbc $EA       ; FR2+4
46B3: 6D 08 46                   adc $4608     ; L_4607+1
46B6: 8D 08 46                   sta $4608     ; L_4607+1
46B9: AD 08 46                   lda $4608     ; L_4607+1
46BC: 60                         rts
46BD: 4C B0 2A  L_46BD           jmp $2AB0     ; L_2AB0
46C0: AC        L_46C0           BYTE $AC $9E $AC $9E $AC $9E $09 $09
46C8: 09        L_46C8           BYTE $09 $01 $01 $01 $01 $00 $00 $00
46D0: 00        L_46D0           BYTE $00 $01 $00 $02 $00 $00 $61 $9E
46D8: 01        L_46D8           BYTE $01 $00 $00 $00 $00 $00 $00 $00
46E0: 00        L_46E0           BYTE $00 $02 $00 $01 $00 $00 $01 $00
46E8: 01                         BYTE $01 $00 $00 $00 $00 $01 $00 $02
46F0: 00        L_46F0           BYTE $00 $00 $00 $06 $06 $06 $0E $0E
46F8: 0E        L_46F8           BYTE $0E $17 $17 $17 $01
46FD: AE FC 46  L_46FD           ldx $46FC     ; L_46F8+4
4700: BD 75 50                   lda $5075,x
4703: D0 03                      bne $4708     ; L_4708
4705: 4C F7 48                   jmp $48F7     ; L_48F7
4708: BD F0 46  L_4708           lda $46F0,x   ; L_46F0
470B: DD F3 46                   cmp $46F3,x   ; L_46F0+3
470E: B0 06                      bcs $4716     ; L_4716
4710: FE F0 46                   inc $46F0,x   ; L_46F0
4713: 4C F7 48                   jmp $48F7     ; L_48F7
4716: A9 00     L_4716           lda #$00
4718: 9D F0 46                   sta $46F0,x   ; L_46F0
471B: AD 25 3C                   lda $3C25     ; TIMER_MAYBE
471E: 8A                         txa
471F: 18                         clc
4720: 0A                         asl
4721: 8D D5 46                   sta $46D5     ; L_46D0+5
4724: 8E D4 46                   stx $46D4     ; L_46D0+4
4727: 20 04 4A                   jsr $4A04     ; L_4A04
472A: 20 5D 49                   jsr $495D     ; L_495D
472D: F0 1C                      beq $474B     ; L_474B
472F: 4C 64 49                   jmp $4964     ; L_4964
4732: 29 F3     L_4732           and #$F3
4734: 09 08                      ora #$08
4736: 20 B0 2F                   jsr $2FB0     ; L_2FB0
4739: AD 02 4A                   lda $4A02     ; L_4A01+1
473C: C9 02                      cmp #$02
473E: D0 0B                      bne $474B     ; L_474B
4740: BD C6 46                   lda $46C6,x   ; L_46C0+6
4743: 29 FC                      and #$FC
4745: 0D 01 4A                   ora $4A01     ; L_4A01
4748: 9D C6 46                   sta $46C6,x   ; L_46C0+6
474B: BD C9 46  L_474B           lda $46C9,x   ; L_46C8+1
474E: 18                         clc
474F: 0A                         asl
4750: 8D DF 46                   sta $46DF     ; L_46D8+7
4753: AC D5 46                   ldy $46D5     ; L_46D0+5
4756: B9 C0 46                   lda $46C0,y   ; L_46C0
4759: 85 DE                      sta $DE       ; FRE+4
475B: 8D D6 46                   sta $46D6     ; L_46D0+6
475E: C8                         iny
475F: B9 C0 46                   lda $46C0,y   ; L_46C0
4762: 85 DF                      sta $DF       ; FRE+5
4764: 8D D7 46                   sta $46D7     ; L_46D0+7
4767: AC DF 46                   ldy $46DF     ; L_46D8+7
476A: C8                         iny
476B: BD D9 46                   lda $46D9,x   ; L_46D8+1
476E: D9 E0 46                   cmp $46E0,y   ; L_46E0
4771: B0 06                      bcs $4779     ; L_4779
4773: FE D9 46                   inc $46D9,x   ; L_46D8+1
4776: 4C 24 48                   jmp $4824     ; L_4824
4779: A9 00     L_4779           lda #$00
477B: 9D D9 46                   sta $46D9,x   ; L_46D8+1
477E: BD C6 46                   lda $46C6,x   ; L_46C0+6
4781: 29 0C                      and #$0C
4783: 8D D8 46                   sta $46D8     ; L_46D8
4786: C9 08                      cmp #$08
4788: F0 07                      beq $4791     ; L_4791
478A: A0 51                      ldy #$51
478C: A2 03                      ldx #$03
478E: 4C 95 47                   jmp $4795     ; L_4795
4791: A0 01     L_4791           ldy #$01
4793: A2 01                      ldx #$01
4795: B1 DE     L_4795           lda ($DE),y   ; FRE+4
4797: C9 60                      cmp #$60
4799: 30 07                      bmi $47A2     ; L_47A2
479B: C9 7B                      cmp #$7B
479D: 10 03                      bpl $47A2     ; L_47A2
479F: 4C D0 2C                   jmp $2CD0     ; L_2CD0
47A2: C9 48     L_47A2           cmp #$48
47A4: F0 2E                      beq $47D4     ; L_47D4
47A6: C9 49                      cmp #$49
47A8: F0 2A                      beq $47D4     ; L_47D4
47AA: C9 4A                      cmp #$4A
47AC: F0 26                      beq $47D4     ; L_47D4
47AE: C9 4B                      cmp #$4B
47B0: F0 22                      beq $47D4     ; L_47D4
47B2: C9 4C                      cmp #$4C
47B4: F0 1E                      beq $47D4     ; L_47D4
47B6: C9 4D                      cmp #$4D
47B8: F0 1A                      beq $47D4     ; L_47D4
47BA: C9 4E                      cmp #$4E
47BC: F0 16                      beq $47D4     ; L_47D4
47BE: C9 4F                      cmp #$4F
47C0: F0 12                      beq $47D4     ; L_47D4
47C2: C9 38                      cmp #$38
47C4: F0 0E                      beq $47D4     ; L_47D4
47C6: 10 03                      bpl $47CB     ; L_47CB
47C8: 4C 30 49                   jmp $4930     ; L_4930
47CB: EA        L_47CB           nop
47CC: 20 81 46                   jsr $4681     ; L_4681
47CF: 30 03                      bmi $47D4     ; L_47D4
47D1: 4C 30 49                   jmp $4930     ; L_4930
47D4: 8A        L_47D4           txa
47D5: A8                         tay
47D6: AE D4 46                   ldx $46D4     ; L_46D0+4
47D9: 20 0E 46                   jsr $460E     ; L_460E
47DC: AE D4 46                   ldx $46D4     ; L_46D0+4
47DF: AC D5 46                   ldy $46D5     ; L_46D0+5
47E2: AD D8 46                   lda $46D8     ; L_46D8
47E5: C9 08                      cmp #$08
47E7: F0 1E                      beq $4807     ; L_4807
47E9: BD 0B 46                   lda $460B,x   ; L_4607+4
47EC: 29 03                      and #$03
47EE: D0 34                      bne $4824     ; L_4824
47F0: FE F9 46                   inc $46F9,x   ; L_46F8+1
47F3: AE D5 46                   ldx $46D5     ; L_46D0+5
47F6: AD D6 46                   lda $46D6     ; L_46D0+6
47F9: 18                         clc
47FA: 69 28                      adc #$28
47FC: 8D D6 46                   sta $46D6     ; L_46D0+6
47FF: 90 23                      bcc $4824     ; L_4824
4801: EE D7 46                   inc $46D7     ; L_46D0+7
4804: 4C 24 48                   jmp $4824     ; L_4824
4807: BD 0B 46  L_4807           lda $460B,x   ; L_4607+4
480A: 29 03                      and #$03
480C: C9 03                      cmp #$03
480E: D0 14                      bne $4824     ; L_4824
4810: DE F9 46                   dec $46F9,x   ; L_46F8+1
4813: AE D5 46                   ldx $46D5     ; L_46D0+5
4816: AD D6 46                   lda $46D6     ; L_46D0+6
4819: 38                         sec
481A: E9 28                      sbc #$28
481C: 8D D6 46                   sta $46D6     ; L_46D0+6
481F: B0 03                      bcs $4824     ; L_4824
4821: CE D7 46                   dec $46D7     ; L_46D0+7
4824: AC DF 46  L_4824           ldy $46DF     ; L_46D8+7
4827: AE D4 46                   ldx $46D4     ; L_46D0+4
482A: BD DC 46                   lda $46DC,x   ; L_46D8+4
482D: D9 E0 46                   cmp $46E0,y   ; L_46E0
4830: B0 06                      bcs $4838     ; L_4838
4832: FE DC 46                   inc $46DC,x   ; L_46D8+4
4835: 4C E4 48                   jmp $48E4     ; L_48E4
4838: A9 00     L_4838           lda #$00
483A: 9D DC 46                   sta $46DC,x   ; L_46D8+4
483D: AC D5 46                   ldy $46D5     ; L_46D0+5
4840: AE D4 46                   ldx $46D4     ; L_46D0+4
4843: AD D6 46                   lda $46D6     ; L_46D0+6
4846: 85 DE                      sta $DE       ; FRE+4
4848: C8                         iny
4849: AD D7 46                   lda $46D7     ; L_46D0+7
484C: 85 DF                      sta $DF       ; FRE+5
484E: AE D4 46                   ldx $46D4     ; L_46D0+4
4851: BD C6 46                   lda $46C6,x   ; L_46C0+6
4854: 29 03                      and #$03
4856: 8D D8 46                   sta $46D8     ; L_46D8
4859: C9 02                      cmp #$02
485B: F0 07                      beq $4864     ; L_4864
485D: A0 2A                      ldy #$2A
485F: A2 02                      ldx #$02
4861: 4C 68 48                   jmp $4868     ; L_4868
4864: A0 28     L_4864           ldy #$28
4866: A2 04                      ldx #$04
4868: B1 DE     L_4868           lda ($DE),y   ; FRE+4
486A: C9 60                      cmp #$60
486C: 30 07                      bmi $4875     ; L_4875
486E: C9 7B                      cmp #$7B
4870: 10 03                      bpl $4875     ; L_4875
4872: 4C E3 2C                   jmp $2CE3     ; L_2CE3
4875: C9 48     L_4875           cmp #$48
4877: F0 28                      beq $48A1     ; L_48A1
4879: C9 49                      cmp #$49
487B: F0 24                      beq $48A1     ; L_48A1
487D: C9 4A                      cmp #$4A
487F: F0 20                      beq $48A1     ; L_48A1
4881: C9 4B                      cmp #$4B
4883: F0 1C                      beq $48A1     ; L_48A1
4885: C9 4C                      cmp #$4C
4887: F0 18                      beq $48A1     ; L_48A1
4889: C9 4D                      cmp #$4D
488B: F0 14                      beq $48A1     ; L_48A1
488D: C9 4E                      cmp #$4E
488F: F0 10                      beq $48A1     ; L_48A1
4891: C9 4F                      cmp #$4F
4893: F0 0C                      beq $48A1     ; L_48A1
4895: C9 38                      cmp #$38
4897: F0 08                      beq $48A1     ; L_48A1
4899: 30 6A                      bmi $4905     ; L_4905
489B: EA                         nop
489C: 20 81 46                   jsr $4681     ; L_4681
489F: 10 64                      bpl $4905     ; L_4905
48A1: 8A        L_48A1           txa
48A2: A8                         tay
48A3: AE D4 46                   ldx $46D4     ; L_46D0+4
48A6: 20 0E 46                   jsr $460E     ; L_460E
48A9: AE D4 46                   ldx $46D4     ; L_46D0+4
48AC: AD D8 46                   lda $46D8     ; L_46D8
48AF: C9 02                      cmp #$02
48B1: F0 1A                      beq $48CD     ; L_48CD
48B3: BD 08 46                   lda $4608,x   ; L_4607+1
48B6: 29 03                      and #$03
48B8: D0 2A                      bne $48E4     ; L_48E4
48BA: FE F6 46                   inc $46F6,x   ; L_46F0+6
48BD: AD D6 46                   lda $46D6     ; L_46D0+6
48C0: C9 FF                      cmp #$FF
48C2: D0 03                      bne $48C7     ; L_48C7
48C4: EE D7 46                   inc $46D7     ; L_46D0+7
48C7: EE D6 46  L_48C7           inc $46D6     ; L_46D0+6
48CA: 4C E4 48                   jmp $48E4     ; L_48E4
48CD: BD 08 46  L_48CD           lda $4608,x   ; L_4607+1
48D0: 29 03                      and #$03
48D2: C9 03                      cmp #$03
48D4: D0 0E                      bne $48E4     ; L_48E4
48D6: DE F6 46                   dec $46F6,x   ; L_46F0+6
48D9: AD D6 46                   lda $46D6     ; L_46D0+6
48DC: D0 03                      bne $48E1     ; L_48E1
48DE: CE D7 46                   dec $46D7     ; L_46D0+7
48E1: CE D6 46  L_48E1           dec $46D6     ; L_46D0+6
48E4: AE D4 46  L_48E4           ldx $46D4     ; L_46D0+4
48E7: AC D5 46                   ldy $46D5     ; L_46D0+5
48EA: AD D6 46                   lda $46D6     ; L_46D0+6
48ED: 99 C0 46                   sta $46C0,y   ; L_46C0
48F0: C8                         iny
48F1: AD D7 46                   lda $46D7     ; L_46D0+7
48F4: 99 C0 46                   sta $46C0,y   ; L_46C0
48F7: AE FC 46  L_48F7           ldx $46FC     ; L_46F8+4
48FA: E0 02                      cpx #$02
48FC: D0 02                      bne $4900     ; L_4900
48FE: A2 FF                      ldx #$FF
4900: E8        L_4900           inx
4901: 8E FC 46                   stx $46FC     ; L_46F8+4
4904: 60                         rts
4905: 86 DC     L_4905           stx $DC       ; FRE+2
4907: AE D4 46                   ldx $46D4     ; L_46D0+4
490A: 4C CC 28                   jmp $28CC     ; L_28CC
490D: C9 02                      cmp #$02
490F: D0 0C                      bne $491D     ; L_491D
4911: BD 08 46  L_4911           lda $4608,x   ; L_4607+1
4914: 29 03                      and #$03
4916: F0 05                      beq $491D     ; L_491D
4918: A6 DC     L_4918           ldx $DC       ; FRE+2
491A: 4C A1 48                   jmp $48A1     ; L_48A1
491D: 4C 60 1A  L_491D           jmp $1A60     ; L_1A60
4920: BD C6 46  L_4920           lda $46C6,x   ; L_46C0+6
4923: 49 03                      eor #$03
4925: 9D C6 46                   sta $46C6,x   ; L_46C0+6
4928: A9 00                      lda #$00
492A: 9D DC 46                   sta $46DC,x   ; L_46D8+4
492D: 4C E4 48                   jmp $48E4     ; L_48E4
4930: 86 DC     L_4930           stx $DC       ; FRE+2
4932: AE D4 46                   ldx $46D4     ; L_46D0+4
4935: 4C E5 28                   jmp $28E5     ; L_28E5
4938: C9 04                      cmp #$04
493A: D0 0E                      bne $494A     ; L_494A
493C: BD 0B 46  L_493C           lda $460B,x   ; L_4607+4
493F: 29 03                      and #$03
4941: C9 03                      cmp #$03
4943: F0 05                      beq $494A     ; L_494A
4945: A6 DC     L_4945           ldx $DC       ; FRE+2
4947: 4C D4 47                   jmp $47D4     ; L_47D4
494A: 4C 63 1A  L_494A           jmp $1A63     ; L_1A63
494D: BD C6 46  L_494D           lda $46C6,x   ; L_46C0+6
4950: 49 0C                      eor #$0C
4952: 9D C6 46                   sta $46C6,x   ; L_46C0+6
4955: A9 00                      lda #$00
4957: 9D DC 46                   sta $46DC,x   ; L_46D8+4
495A: 4C 24 48                   jmp $4824     ; L_4824
495D: 20 AD 49  L_495D           jsr $49AD     ; L_49AD
4960: 8D 73 50                   sta $5073
4963: 60                         rts
4964: AD 03 4E  L_4964           lda $4E03     ; L_4E03
4967: C9 02                      cmp #$02
4969: D0 2E                      bne $4999     ; L_4999
496B: AD 02 50                   lda $5002
496E: F0 29                      beq $4999     ; L_4999
4970: AD 71 50                   lda $5071
4973: F0 08                      beq $497D     ; L_497D
4975: CE 71 50                   dec $5071
4978: AD 17 45                   lda $4517     ; L_4517
497B: D0 15                      bne $4992     ; L_4992
497D: A9 01     L_497D           lda #$01
497F: 8D 02 50                   sta $5002
4982: A9 00                      lda #$00
4984: 8D 72 50                   sta $5072
4987: 8D 73 50                   sta $5073
498A: AD 3B 3A                   lda $3A3B     ; L_3A38+3
498D: D0 10                      bne $499F     ; L_499F
498F: 4C 99 49                   jmp $4999     ; L_4999
4992: AE D4 46  L_4992           ldx $46D4     ; L_46D0+4
4995: AC D5 46                   ldy $46D5     ; L_46D0+5
4998: 60                         rts
4999: BD C6 46  L_4999           lda $46C6,x   ; L_46C0+6
499C: 4C 32 47                   jmp $4732     ; L_4732
499F: A9 00     L_499F           lda #$00
49A1: 8D 02 50                   sta $5002
49A4: 8D 03 4E                   sta $4E03     ; L_4E03
49A7: 8D 3B 3A                   sta $3A3B     ; L_3A38+3
49AA: 4C 99 49                   jmp $4999     ; L_4999
49AD: AD 3B 3A  L_49AD           lda $3A3B     ; L_3A38+3
49B0: D0 04                      bne $49B6     ; L_49B6
49B2: AD 02 4A                   lda $4A02     ; L_4A01+1
49B5: 60                         rts
49B6: A9 01     L_49B6           lda #$01
49B8: 60                         rts
49B9: 00                         BYTE $00 $00 $00 $00 $00 $00 $00 $00
49C1: 00                         BYTE $00 $00 $00 $00 $00 $00 $00 $00
49C9: 00                         BYTE $00 $00 $00 $00 $00 $00 $00 $00
49D1: 00                         BYTE $00 $00 $00 $00 $00 $00 $00 $00
49D9: 00                         BYTE $00 $00 $00 $00 $00 $00 $00 $00
49E1: 00                         BYTE $00 $00 $00 $00 $00 $00 $00 $00
49E9: 00                         BYTE $00 $00 $00 $00 $00 $00 $00 $00
49F1: 00                         BYTE $00 $00 $00 $00 $00 $00 $00 $00
49F9: 00        L_49F9           BYTE $00 $00 $00 $00 $00 $00 $00 $03
4A01: 43        L_4A01           BYTE $43 $00 $1A
4A04: A9 00     L_4A04           lda #$00
4A06: 8D 02 4A                   sta $4A02     ; L_4A01+1
4A09: BD C6 46                   lda $46C6,x   ; L_46C0+6
4A0C: 29 0C                      and #$0C
4A0E: C9 08                      cmp #$08
4A10: F0 0D                      beq $4A1F     ; L_4A1F
4A12: BD 08 46                   lda $4608,x   ; L_4607+1
4A15: 38                         sec
4A16: E9 2C                      sbc #$2C
4A18: CD 09 44                   cmp $4409     ; L_4405+4
4A1B: F0 03                      beq $4A20     ; L_4A20
4A1D: 10 01                      bpl $4A20     ; L_4A20
4A1F: 60        L_4A1F           rts
4A20: 38        L_4A20           sec
4A21: ED 09 44                   sbc $4409     ; L_4405+4
4A24: CD 03 4A                   cmp $4A03     ; L_4A01+2
4A27: F0 03                      beq $4A2C     ; L_4A2C
4A29: 30 01                      bmi $4A2C     ; L_4A2C
4A2B: 60                         rts
4A2C: 8D 00 4A  L_4A2C           sta $4A00     ; L_49F9+7
4A2F: BD 0B 46                   lda $460B,x   ; L_4607+4
4A32: C9 63                      cmp #$63
4A34: 30 E9                      bmi $4A1F     ; L_4A1F
4A36: C9 66                      cmp #$66
4A38: 10 E5                      bpl $4A1F     ; L_4A1F
4A3A: AD 03 4A                   lda $4A03     ; L_4A01+2
4A3D: C9 1E                      cmp #$1E
4A3F: F0 09                      beq $4A4A     ; L_4A4A
4A41: AD 00 4A                   lda $4A00     ; L_49F9+7
4A44: C9 06                      cmp #$06
4A46: F0 02                      beq $4A4A     ; L_4A4A
4A48: 30 D5                      bmi $4A1F     ; L_4A1F
4A4A: A0 02     L_4A4A           ldy #$02
4A4C: AD 00 4A                   lda $4A00     ; L_49F9+7
4A4F: C9 11                      cmp #$11
4A51: F0 03                      beq $4A56     ; L_4A56
4A53: 30 01                      bmi $4A56     ; L_4A56
4A55: 88                         dey
4A56: 8C 02 4A  L_4A56           sty $4A02     ; L_4A01+1
4A59: BD C6 46                   lda $46C6,x   ; L_46C0+6
4A5C: 29 03                      and #$03
4A5E: A8                         tay
4A5F: A9 01                      lda #$01
4A61: CC 02 4A                   cpy $4A02     ; L_4A01+1
4A64: F0 02                      beq $4A68     ; L_4A68
4A66: A9 02                      lda #$02
4A68: 8D 02 4A  L_4A68           sta $4A02     ; L_4A01+1
4A6B: AD 00 4A                   lda $4A00     ; L_49F9+7
4A6E: 29 FC                      and #$FC
4A70: 4A                         lsr
4A71: 4A                         lsr
4A72: 9D C9 46                   sta $46C9,x   ; L_46C8+1
4A75: A9 00                      lda #$00
4A77: 9D D9 46                   sta $46D9,x   ; L_46D8+1
4A7A: 9D D9 46                   sta $46D9,x   ; L_46D8+1
4A7D: A0 01                      ldy #$01
4A7F: AD 00 4A                   lda $4A00     ; L_49F9+7
4A82: C9 11                      cmp #$11
4A84: F0 03                      beq $4A89     ; L_4A89
4A86: 10 01                      bpl $4A89     ; L_4A89
4A88: C8                         iny
4A89: 8C 01 4A  L_4A89           sty $4A01     ; L_4A01
4A8C: 60        L_4A8C           rts
4A8D: 8D 00 4A  L_4A8D           sta $4A00     ; L_49F9+7
4A90: 8C 02 4A                   sty $4A02     ; L_4A01+1
4A93: B1 DE                      lda ($DE),y   ; FRE+4
4A95: F0 F5                      beq $4A8C     ; L_4A8C
4A97: C9 9D                      cmp #$9D
4A99: F0 1A                      beq $4AB5     ; L_4AB5
4A9B: C9 9E                      cmp #$9E
4A9D: F0 16                      beq $4AB5     ; L_4AB5
4A9F: C9 83                      cmp #$83
4AA1: F0 12                      beq $4AB5     ; L_4AB5
4AA3: C9 84                      cmp #$84
4AA5: F0 0E                      beq $4AB5     ; L_4AB5
4AA7: C9 1D                      cmp #$1D
4AA9: F0 0A                      beq $4AB5     ; L_4AB5
4AAB: C9 1E                      cmp #$1E
4AAD: F0 06                      beq $4AB5     ; L_4AB5
4AAF: C9 08                      cmp #$08
4AB1: F0 02                      beq $4AB5     ; L_4AB5
4AB3: B0 D7                      bcs $4A8C     ; L_4A8C
4AB5: 20 E0 4A  L_4AB5           jsr $4AE0     ; L_4AE0
4AB8: B1 DE                      lda ($DE),y   ; FRE+4
4ABA: C9 09                      cmp #$09
4ABC: F0 CE                      beq $4A8C     ; L_4A8C
4ABE: C9 0A                      cmp #$0A
4AC0: F0 CA                      beq $4A8C     ; L_4A8C
4AC2: C9 89                      cmp #$89
4AC4: F0 C6                      beq $4A8C     ; L_4A8C
4AC6: C9 8A                      cmp #$8A
4AC8: F0 C2                      beq $4A8C     ; L_4A8C
4ACA: 29 01                      and #$01
4ACC: D0 01                      bne $4ACF     ; L_4ACF
4ACE: 88                         dey
4ACF: AD 01 4A  L_4ACF           lda $4A01     ; L_4A01
4AD2: 91 DE                      sta ($DE),y   ; FRE+4
4AD4: C8                         iny
4AD5: A5 FF                      lda $FF       ; FPTR2+1
4AD7: 91 DE                      sta ($DE),y   ; FRE+4
4AD9: 20 37 2F                   jsr $2F37     ; L_2F37
4ADC: AC 02 4A                   ldy $4A02     ; L_4A01+1
4ADF: 60                         rts
4AE0: A9 00     L_4AE0           lda #$00
4AE2: 85 03                      sta $03       ; CASINI+1
4AE4: 8D 01 4A                   sta $4A01     ; L_4A01
4AE7: 85 FF                      sta $FF       ; FPTR2+1
4AE9: A5 DE                      lda $DE       ; FRE+4
4AEB: 85 00                      sta $00       ; LNFLG
4AED: A5 DF                      lda $DF       ; FRE+5
4AEF: 85 01                      sta $01       ; NGFLAG
4AF1: 98                         tya
4AF2: 18                         clc
4AF3: 65 00                      adc $00       ; LNFLG
4AF5: 85 00                      sta $00       ; LNFLG
4AF7: 90 02                      bcc $4AFB     ; L_4AFB
4AF9: E6 01                      inc $01       ; NGFLAG
4AFB: A5 01     L_4AFB           lda $01       ; NGFLAG
4AFD: C9 9B                      cmp #$9B
4AFF: D0 09                      bne $4B0A     ; L_4B0A


; BLOCK 2 Arkanoid.xex

4B00: 09                         BYTE $09
4B01: A5 00                      lda $00       ; LNFLG
4B03: C9 4E                      cmp #$4E
4B05: B0 03                      bcs $4B0A     ; L_4B0A
4B07: 4C 1A 4B                   jmp $4B1A     ; L_4B1A
4B0A: E6 03     L_4B0A           inc $03       ; CASINI+1
4B0C: A5 00                      lda $00       ; LNFLG
4B0E: 38                         sec
4B0F: E9 28                      sbc #$28
4B11: 85 00                      sta $00       ; LNFLG
4B13: B0 E6                      bcs $4AFB     ; L_4AFB
4B15: C6 01                      dec $01       ; NGFLAG
4B17: 4C FB 4A                   jmp $4AFB     ; L_4AFB
4B1A: A5 00     L_4B1A           lda $00       ; LNFLG
4B1C: 38                         sec
4B1D: E9 2F                      sbc #$2F
4B1F: 85 00                      sta $00       ; LNFLG
4B21: B1 DE                      lda ($DE),y   ; FRE+4
4B23: 29 01                      and #$01
4B25: D0 02                      bne $4B29     ; L_4B29
4B27: C6 00                      dec $00       ; LNFLG
4B29: A5 00     L_4B29           lda $00       ; LNFLG
4B2B: 29 03                      and #$03
4B2D: 18                         clc
4B2E: 69 38                      adc #$38
4B30: 8D 01 4A                   sta $4A01     ; L_4A01
4B33: C9 3B                      cmp #$3B
4B35: D0 07                      bne $4B3E     ; L_4B3E
4B37: A9 38                      lda #$38
4B39: 85 FF                      sta $FF       ; FPTR2+1
4B3B: 4C 43 4B                   jmp $4B43     ; L_4B43
4B3E: 18        L_4B3E           clc
4B3F: 69 01                      adc #$01
4B41: 85 FF                      sta $FF       ; FPTR2+1
4B43: A5 03     L_4B43           lda $03       ; CASINI+1
4B45: 18                         clc
4B46: 69 01                      adc #$01
4B48: 29 03                      and #$03
4B4A: A8                         tay
4B4B: C0 00     L_4B4B           cpy #$00
4B4D: F0 14                      beq $4B63     ; L_4B63
4B4F: AD 01 4A                   lda $4A01     ; L_4A01
4B52: 18                         clc
4B53: 69 04                      adc #$04
4B55: 8D 01 4A                   sta $4A01     ; L_4A01
4B58: A5 FF                      lda $FF       ; FPTR2+1
4B5A: 18                         clc
4B5B: 69 04                      adc #$04
4B5D: 85 FF                      sta $FF       ; FPTR2+1
4B5F: 88                         dey
4B60: 4C 4B 4B                   jmp $4B4B     ; L_4B4B
4B63: AC 02 4A  L_4B63           ldy $4A02     ; L_4A01+1
4B66: 20 4C 4E                   jsr $4E4C     ; L_4E4C
4B69: B1 DE                      lda ($DE),y   ; FRE+4
4B6B: C9 01                      cmp #$01
4B6D: F0 10                      beq $4B7F     ; L_4B7F
4B6F: C9 02                      cmp #$02
4B71: F0 0C                      beq $4B7F     ; L_4B7F
4B73: C9 9D                      cmp #$9D
4B75: F0 08                      beq $4B7F     ; L_4B7F
4B77: C9 9E                      cmp #$9E
4B79: F0 04                      beq $4B7F     ; L_4B7F
4B7B: 20 23 39                   jsr $3923     ; L_3923
4B7E: 60                         rts
4B7F: A5 DF     L_4B7F           lda $DF       ; FRE+5
4B81: 85 01                      sta $01       ; NGFLAG
4B83: A5 DE                      lda $DE       ; FRE+4
4B85: 85 00                      sta $00       ; LNFLG
4B87: 98                         tya
4B88: 18                         clc
4B89: 65 00                      adc $00       ; LNFLG
4B8B: 85 00                      sta $00       ; LNFLG
4B8D: 90 02                      bcc $4B91     ; L_4B91
4B8F: E6 01                      inc $01       ; NGFLAG
4B91: B1 DE     L_4B91           lda ($DE),y   ; FRE+4
4B93: 29 01                      and #$01
4B95: D0 08                      bne $4B9F     ; L_4B9F
4B97: A5 00                      lda $00       ; LNFLG
4B99: D0 02                      bne $4B9D     ; L_4B9D
4B9B: C6 01                      dec $01       ; NGFLAG
4B9D: C6 00     L_4B9D           dec $00       ; LNFLG
4B9F: 86 DC     L_4B9F           stx $DC       ; FRE+2
4BA1: A0 00                      ldy #$00
4BA3: B1 00                      lda ($00),y   ; LNFLG
4BA5: 85 02                      sta $02       ; CASINI
4BA7: A2 00                      ldx #$00
4BA9: A0 00                      ldy #$00
4BAB: B9 40 4C  L_4BAB           lda $4C40,y   ; L_4C40
4BAE: 18                         clc
4BAF: 79 41 4C                   adc $4C41,y   ; L_4C41
4BB2: D0 1E                      bne $4BD2     ; L_4BD2
4BB4: A5 00                      lda $00       ; LNFLG
4BB6: 99 40 4C                   sta $4C40,y   ; L_4C40
4BB9: A5 01                      lda $01       ; NGFLAG
4BBB: 99 41 4C                   sta $4C41,y   ; L_4C41
4BBE: AD 00 40                   lda $4000     ; L_3FFD+3
4BC1: 4A                         lsr
4BC2: 4A                         lsr
4BC3: 4A                         lsr
4BC4: 18                         clc
4BC5: 69 02                      adc #$02
4BC7: 99 42 4C                   sta $4C42,y   ; L_4C42
4BCA: A5 02                      lda $02       ; CASINI
4BCC: 20 53 2A                   jsr $2A53     ; L_2A53
4BCF: 4C DE 4B                   jmp $4BDE     ; L_4BDE
4BD2: C8        L_4BD2           iny
4BD3: C8                         iny
4BD4: C8                         iny
4BD5: C8                         iny
4BD6: E8                         inx
4BD7: E0 1E                      cpx #$1E
4BD9: D0 D0                      bne $4BAB     ; L_4BAB
4BDB: 4C F1 4B                   jmp $4BF1     ; L_4BF1
4BDE: A0 00     L_4BDE           ldy #$00
4BE0: B1 00                      lda ($00),y   ; LNFLG
4BE2: 29 80                      and #$80
4BE4: 09 09                      ora #$09
4BE6: 91 00                      sta ($00),y   ; LNFLG
4BE8: C8                         iny
4BE9: B1 00                      lda ($00),y   ; LNFLG
4BEB: 29 80                      and #$80
4BED: 09 0A                      ora #$0A
4BEF: 91 00                      sta ($00),y   ; LNFLG
4BF1: A6 DC     L_4BF1           ldx $DC       ; FRE+2
4BF3: AC 02 4A                   ldy $4A02     ; L_4A01+1
4BF6: 60                         rts
4BF7: 00                         BYTE $00 $00 $00 $00 $00 $00 $00 $00
4BFF: 00                         BYTE $00 $00 $00 $00 $00 $00 $00 $00
4C07: 00                         BYTE $00 $00 $00 $00 $00 $00 $00 $00
4C0F: 00                         BYTE $00 $00 $00 $00 $00 $00 $00 $00
4C17: 00                         BYTE $00 $00 $00 $00 $00 $00 $00 $00
4C1F: 00                         BYTE $00 $00 $00 $00 $00 $00 $00 $00
4C27: 00                         BYTE $00 $00 $00 $00 $00 $00 $00 $00
4C2F: 00                         BYTE $00 $00 $00 $00 $00 $00 $00 $00
4C37: 00                         BYTE $00 $00 $00 $00 $00 $00 $00 $00
4C3F: 00                         BYTE $00 $00 $00 $00 $00 $00 $00 $00
4C47: 00                         BYTE $00 $00 $00 $00 $00 $00 $00 $00
4C4F: 00                         BYTE $00 $00 $00 $00 $00 $00 $00 $00
4C57: 00                         BYTE $00 $00 $00 $00 $00 $00 $00 $00
4C5F: 00                         BYTE $00 $00 $00 $00 $00 $00 $00 $00
4C67: 00                         BYTE $00 $00 $00 $00 $00 $00 $00 $00
4C6F: 00                         BYTE $00 $00 $00 $00 $00 $00 $00 $00
4C77: 00                         BYTE $00 $00 $00 $00 $00 $00 $00 $00
4C7F: 00                         BYTE $00 $00 $00 $00 $00 $00 $00 $00
4C87: 00                         BYTE $00 $00 $00 $00 $00 $00 $00 $00
4C8F: 00                         BYTE $00 $00 $00 $00 $00 $00 $00 $00
4C97: 00                         BYTE $00 $00 $00 $00 $00 $00 $00 $00
4C9F: 00                         BYTE $00 $00 $00 $00 $00 $00 $00 $00
4CA7: 00                         BYTE $00 $00 $00 $00 $00 $00 $00 $00
4CAF: 00                         BYTE $00 $00 $00 $00 $00 $00 $00 $00
4CB7: 00                         BYTE $00 $00 $00 $00 $00 $00 $00 $00
4CBF: 00                         BYTE $00 $00 $00 $00 $00 $00 $00 $00
4CC7: 00                         BYTE $00 $00 $00 $00 $00 $00 $00 $00
4CCF: 00                         BYTE $00 $00 $00 $00 $00 $00 $3C $00
4CD7: A2 00     L_4CD7           ldx #$00
4CD9: AC D5 4C                   ldy $4CD5     ; L_4CD5
4CDC: C0 3C                      cpy #$3C
4CDE: 30 02                      bmi $4CE2     ; L_4CE2
4CE0: A0 00                      ldy #$00
4CE2: B9 41 4C  L_4CE2           lda $4C41,y   ; L_4C41
4CE5: F0 26                      beq $4D0D     ; L_4D0D
4CE7: 85 ED                      sta $ED       ; EEXP
4CE9: B9 40 4C                   lda $4C40,y   ; L_4C40
4CEC: 85 EC                      sta $EC       ; FRX
4CEE: 8C D6 4C                   sty $4CD6     ; L_4CD6
4CF1: A0 00                      ldy #$00
4CF3: B1 EC                      lda ($EC),y   ; FRX
4CF5: C9 11                      cmp #$11
4CF7: F0 21                      beq $4D1A     ; L_4D1A
4CF9: C9 91                      cmp #$91
4CFB: F0 1D                      beq $4D1A     ; L_4D1A
4CFD: 18                         clc
4CFE: 69 02                      adc #$02
4D00: 91 EC                      sta ($EC),y   ; FRX
4D02: C8                         iny
4D03: B1 EC                      lda ($EC),y   ; FRX
4D05: 18                         clc
4D06: 69 02                      adc #$02
4D08: 91 EC                      sta ($EC),y   ; FRX
4D0A: AC D6 4C                   ldy $4CD6     ; L_4CD6
4D0D: C8        L_4D0D           iny
4D0E: C8                         iny
4D0F: C8                         iny
4D10: C8                         iny
4D11: E8                         inx
4D12: E0 05                      cpx #$05
4D14: D0 CC                      bne $4CE2     ; L_4CE2
4D16: 8C D5 4C                   sty $4CD5     ; L_4CD5
4D19: 60                         rts
4D1A: AC D6 4C  L_4D1A           ldy $4CD6     ; L_4CD6
4D1D: B9 43 4C                   lda $4C43,y   ; L_4C43
4D20: 85 E0                      sta $E0       ; FR1
4D22: A0 00                      ldy #$00
4D24: 91 EC                      sta ($EC),y   ; FRX
4D26: C8                         iny
4D27: 18                         clc
4D28: 69 01                      adc #$01
4D2A: 91 EC                      sta ($EC),y   ; FRX
4D2C: AC D6 4C                   ldy $4CD6     ; L_4CD6
4D2F: A9 00                      lda #$00
4D31: 99 40 4C                   sta $4C40,y   ; L_4C40
4D34: 99 41 4C                   sta $4C41,y   ; L_4C41
4D37: 99 42 4C                   sta $4C42,y   ; L_4C42
4D3A: 99 43 4C                   sta $4C43,y   ; L_4C43
4D3D: A5 E0                      lda $E0       ; FR1
4D3F: C9 9D                      cmp #$9D
4D41: F0 CA                      beq $4D0D     ; L_4D0D
4D43: C9 9E                      cmp #$9E
4D45: F0 C6                      beq $4D0D     ; L_4D0D
4D47: 4C 91 4D                   jmp $4D91     ; L_4D91
4D4A: A2 30     L_4D4A           ldx #$30
4D4C: A0 9B                      ldy #$9B
4D4E: 86 EC                      stx $EC       ; FRX
4D50: 84 ED                      sty $ED       ; EEXP
4D52: A0 6A                      ldy #$6A
4D54: 86 EE                      stx $EE       ; NSIGN
4D56: 84 EF                      sty $EF       ; ESIGN
4D58: A2 00                      ldx #$00
4D5A: A0 00     L_4D5A           ldy #$00
4D5C: B1 EC     L_4D5C           lda ($EC),y   ; FRX
4D5E: C9 01                      cmp #$01
4D60: F0 09                      beq $4D6B     ; L_4D6B
4D62: C9 9D                      cmp #$9D
4D64: F0 05                      beq $4D6B     ; L_4D6B
4D66: A9 00                      lda #$00
4D68: 4C 74 4D                   jmp $4D74     ; L_4D74
4D6B: AD 00 40  L_4D6B           lda $4000     ; L_3FFD+3
4D6E: 4A                         lsr
4D6F: 4A                         lsr
4D70: 4A                         lsr
4D71: 18                         clc
4D72: 69 02                      adc #$02
4D74: 91 EE     L_4D74           sta ($EE),y   ; NSIGN
4D76: C8                         iny
4D77: C8                         iny
4D78: C0 1A                      cpy #$1A
4D7A: D0 E0                      bne $4D5C     ; L_4D5C
4D7C: A5 EC                      lda $EC       ; FRX
4D7E: 18                         clc
4D7F: 69 28                      adc #$28
4D81: 85 EC                      sta $EC       ; FRX
4D83: 85 EE                      sta $EE       ; NSIGN
4D85: 90 04                      bcc $4D8B     ; L_4D8B
4D87: E6 ED                      inc $ED       ; EEXP
4D89: E6 EF                      inc $EF       ; ESIGN
4D8B: E8        L_4D8B           inx
4D8C: E0 12                      cpx #$12
4D8E: D0 CA                      bne $4D5A     ; L_4D5A
4D90: 60                         rts
4D91: A5 ED     L_4D91           lda $ED       ; EEXP
4D93: 38                         sec
4D94: E9 31                      sbc #$31
4D96: 85 E1                      sta $E1       ; FR1+1
4D98: A5 EC                      lda $EC       ; FRX
4D9A: 85 E0                      sta $E0       ; FR1
4D9C: A0 00                      ldy #$00
4D9E: B1 E0                      lda ($E0),y   ; FR1
4DA0: 38                         sec
4DA1: E9 01                      sbc #$01
4DA3: 91 E0                      sta ($E0),y   ; FR1
4DA5: C9 01                      cmp #$01
4DA7: F0 06                      beq $4DAF     ; L_4DAF
4DA9: AC D6 4C                   ldy $4CD6     ; L_4CD6
4DAC: 4C 0D 4D                   jmp $4D0D     ; L_4D0D
4DAF: A9 03     L_4DAF           lda #$03
4DB1: 91 EC                      sta ($EC),y   ; FRX
4DB3: C8                         iny
4DB4: A9 04                      lda #$04
4DB6: 91 EC                      sta ($EC),y   ; FRX
4DB8: AC D6 4C                   ldy $4CD6     ; L_4CD6
4DBB: 4C 0D 4D                   jmp $4D0D     ; L_4D0D
4DBE: 00                         BYTE $00 $00 $00 $00 $00 $00 $00 $00
4DC6: 00                         BYTE $00 $00 $00 $00 $00 $00 $00 $00
4DCE: 00                         BYTE $00 $00 $00 $00 $00 $00 $00 $00
4DD6: 00                         BYTE $00 $00 $00 $00 $00 $00 $00 $00
4DDE: 00                         BYTE $00 $00 $00 $00 $00 $00 $00 $00
4DE6: 00                         BYTE $00 $00 $00 $00 $00 $00 $00 $00
4DEE: 00                         BYTE $00 $00 $00 $00 $00 $00 $00 $00
4DF6: 00                         BYTE $00 $00 $00 $00 $00 $00 $00 $00
4DFE: 00                         BYTE $00 $00 $07 $69 $6A $00 $00 $00
4E06: 7C                         BYTE $7C $FE $FE $FE $7C $00 $00 $00
4E0E: 06                         BYTE $06 $05 $06 $05 $06 $00 $00 $00
4E16: 07                         BYTE $07 $00 $00 $07 $04 $07 $01 $00
4E1E: 07                         BYTE $07 $00 $00 $00 $07 $04 $04 $00
4E26: 07                         BYTE $07 $04 $06 $04 $07 $00 $00 $00
4E2E: 00                         BYTE $00 $06 $05 $05 $05 $06 $00 $00
4E36: 04                         BYTE $04 $04 $04 $04 $07 $00 $00 $00
4E3E: 04                         BYTE $04 $04 $00 $00 $07 $05 $07 $E6
4E46: F4                         BYTE $F4 $B2 $76 $76 $34
4E4B: 08                         php
4E4C: AD 04 4E  L_4E4C           lda $4E04     ; L_4E04
4E4F: D0 2D                      bne $4E7E     ; L_4E7E
4E51: B1 DE                      lda ($DE),y   ; FRE+4
4E53: C9 01                      cmp #$01
4E55: F0 27                      beq $4E7E     ; L_4E7E
4E57: C9 02                      cmp #$02
4E59: F0 23                      beq $4E7E     ; L_4E7E
4E5B: C9 9D                      cmp #$9D
4E5D: F0 1F                      beq $4E7E     ; L_4E7E
4E5F: C9 9E                      cmp #$9E
4E61: F0 1B                      beq $4E7E     ; L_4E7E
4E63: C9 09                      cmp #$09
4E65: F0 17                      beq $4E7E     ; L_4E7E
4E67: 30 0D                      bmi $4E76     ; L_4E76
4E69: C9 12                      cmp #$12
4E6B: F0 11                      beq $4E7E     ; L_4E7E
4E6D: 10 07                      bpl $4E76     ; L_4E76
4E6F: 4C 7E 4E                   jmp $4E7E     ; L_4E7E
4E72: 06 08     L_4E72           asl $08       ; WARMST
4E74: 08        L_4E74           php
4E75: 00        L_4E75           brk
4E76: AD 00 4E  L_4E76           lda $4E00     ; L_4E00
4E79: F0 04                      beq $4E7F     ; L_4E7F
4E7B: CE 00 4E                   dec $4E00     ; L_4E00
4E7E: 60        L_4E7E           rts
4E7F: 8E 73 4E  L_4E7F           stx $4E73     ; L_4E73
4E82: 8C 74 4E                   sty $4E74     ; L_4E74
4E85: A5 03                      lda $03       ; CASINI+1
4E87: 18                         clc
4E88: 0A                         asl
4E89: 0A                         asl
4E8A: 18                         clc
4E8B: 69 07                      adc #$07
4E8D: A8                         tay
4E8E: A5 00                      lda $00       ; LNFLG
4E90: 18                         clc
4E91: 0A                         asl
4E92: 0A                         asl
4E93: 18                         clc
4E94: 69 4C                      adc #$4C
4E96: 8D 03 D0                   sta $D003     ; HPOSP3
4E99: 18                         clc
4E9A: 69 01                      adc #$01
4E9C: 8D 05 D0                   sta $D005     ; HPOSM1
4E9F: 8D 01 4E                   sta $4E01     ; L_4E01
4EA2: 18                         clc
4EA3: 69 02                      adc #$02
4EA5: 8D 04 D0                   sta $D004     ; HPOSM0
4EA8: 8C 02 4E                   sty $4E02     ; L_4E02
4EAB: A2 00                      ldx #$00
4EAD: BD 05 4E  L_4EAD           lda $4E05,x   ; L_4E05
4EB0: 99 80 6F                   sta $6F80,y   ; L_6F7A+6
4EB3: C8                         iny
4EB4: E8                         inx
4EB5: E0 07                      cpx #$07
4EB7: D0 F4                      bne $4EAD     ; L_4EAD
4EB9: A9 01                      lda #$01
4EBB: 8D 6F 02                   sta $026F     ; GPRIOR
4EBE: AD 0B D4  L_4EBE           lda $D40B     ; VCOUNT
4EC1: 29 07                      and #$07
4EC3: C9 07                      cmp #$07
4EC5: F0 F7                      beq $4EBE     ; L_4EBE
4EC7: 8D FE 7F                   sta $7FFE     ; L_7FFA+4
4ECA: 18                         clc
4ECB: 0A                         asl
4ECC: 0A                         asl
4ECD: 0A                         asl
4ECE: AA                         tax
4ECF: 18                         clc
4ED0: 69 06                      adc #$06
4ED2: 8D 72 4E                   sta $4E72     ; L_4E72
4ED5: AC 02 4E                   ldy $4E02     ; L_4E02
4ED8: BD 0D 4E  L_4ED8           lda $4E0D,x   ; L_4E0D
4EDB: 99 80 6D                   sta $6D80,y   ; L_6D7A+6
4EDE: C8                         iny
4EDF: E8                         inx
4EE0: EC 72 4E                   cpx $4E72     ; L_4E72
4EE3: D0 F3                      bne $4ED8     ; L_4ED8
4EE5: AE FE 7F                   ldx $7FFE     ; L_7FFA+4
4EE8: BD 45 4E                   lda $4E45,x   ; L_4E45
4EEB: 8D C3 02                   sta $02C3     ; PCOLR3
4EEE: A9 01                      lda #$01
4EF0: 8D 04 4E                   sta $4E04     ; L_4E04
4EF3: AE 73 4E                   ldx $4E73     ; L_4E73
4EF6: AC 74 4E                   ldy $4E74     ; L_4E74
4EF9: 60                         rts
4EFA: 8E 73 4E  L_4EFA           stx $4E73     ; L_4E73
4EFD: 8C 74 4E                   sty $4E74     ; L_4E74
4F00: A9 0D                      lda #$0D
4F02: 8D 5C 4F                   sta $4F5C     ; L_4F5C
4F05: 8D 79 4F                   sta $4F79     ; L_4F79
4F08: 8D 80 4F                   sta $4F80     ; L_4F80
4F0B: 8D 84 4F                   sta $4F84     ; L_4F84
4F0E: 8D 92 4F                   sta $4F92     ; L_4F92
4F11: AD 02 50                   lda $5002     ; L_4FFE+4
4F14: EA                         nop
4F15: EA                         nop
4F16: AD 04 4E                   lda $4E04     ; L_4E04
4F19: F0 7E                      beq $4F99     ; L_4F99
4F1B: EE 75 4E                   inc $4E75     ; L_4E75
4F1E: AD 75 4E                   lda $4E75     ; L_4E75
4F21: C9 02                      cmp #$02
4F23: 90 74                      bcc $4F99     ; L_4F99
4F25: A9 00                      lda #$00
4F27: 8D 75 4E                   sta $4E75     ; L_4E75
4F2A: AD FE 7F                   lda $7FFE     ; L_7FFA+4
4F2D: 18                         clc
4F2E: 0A                         asl
4F2F: 0A                         asl
4F30: 0A                         asl
4F31: 18                         clc
4F32: 6D 5C 4F                   adc $4F5C     ; L_4F5C
4F35: 8D 5C 4F                   sta $4F5C     ; L_4F5C
4F38: 8D 79 4F                   sta $4F79     ; L_4F79
4F3B: 8D 80 4F                   sta $4F80     ; L_4F80
4F3E: 8D 84 4F                   sta $4F84     ; L_4F84
4F41: 8D 92 4F                   sta $4F92     ; L_4F92
4F44: A2 00                      ldx #$00
4F46: AC 02 4E                   ldy $4E02     ; L_4E02
4F49: C0 6A                      cpy #$6A
4F4B: B0 4D                      bcs $4F9A     ; L_4F9A
4F4D: C8                         iny
4F4E: 8C 02 4E                   sty $4E02     ; L_4E02
4F51: BD 05 4E  L_4F51           lda $4E05,x   ; L_4E05
4F54: 99 80 6F                   sta $6F80,y   ; L_6F7A+6
4F57: E0 06                      cpx #$06
4F59: B0 06                      bcs $4F61     ; L_4F61
4F5B: BD 0D 4E                   lda $4E0D,x   ; L_4E0D
4F5E: 99 80 6D                   sta $6D80,y   ; L_6D7A+6
4F61: C8        L_4F61           iny
4F62: E8                         inx
4F63: E0 09                      cpx #$09
4F65: D0 EA                      bne $4F51     ; L_4F51
4F67: EE BE 4F                   inc $4FBE     ; L_4FBE
4F6A: AD BE 4F                   lda $4FBE     ; L_4FBE
4F6D: C9 03                      cmp #$03
4F6F: 90 28                      bcc $4F99     ; L_4F99
4F71: A9 00                      lda #$00
4F73: 8D BE 4F                   sta $4FBE     ; L_4FBE
4F76: A0 07                      ldy #$07
4F78: B9 0D 4E                   lda $4E0D,y   ; L_4E0D
4F7B: 8D 04 4E                   sta $4E04     ; L_4E04
4F7E: 88                         dey
4F7F: B9 0D 4E  L_4F7F           lda $4E0D,y   ; L_4E0D
4F82: C8                         iny
4F83: 99 0D 4E                   sta $4E0D,y   ; L_4E0D
4F86: 88                         dey
4F87: 88                         dey
4F88: C0 00                      cpy #$00
4F8A: D0 F3                      bne $4F7F     ; L_4F7F
4F8C: A0 01                      ldy #$01
4F8E: AD 04 4E                   lda $4E04     ; L_4E04
4F91: 99 0D 4E                   sta $4E0D,y   ; L_4E0D
4F94: A9 01                      lda #$01
4F96: 8D 04 4E                   sta $4E04     ; L_4E04
4F99: 60        L_4F99           rts
4F9A: A2 00     L_4F9A           ldx #$00
4F9C: 8E 04 4E                   stx $4E04     ; L_4E04
4F9F: AC 02 4E                   ldy $4E02     ; L_4E02
4FA2: 88                         dey
4FA3: 88                         dey
4FA4: A9 00     L_4FA4           lda #$00
4FA6: 99 80 6D                   sta $6D80,y   ; L_6D7A+6
4FA9: 99 80 6F                   sta $6F80,y   ; L_6F7A+6
4FAC: C8                         iny
4FAD: E8                         inx
4FAE: E0 0C                      cpx #$0C
4FB0: D0 F2                      bne $4FA4     ; L_4FA4
4FB2: AD 0B D4                   lda $D40B     ; VCOUNT
4FB5: 29 07                      and #$07
4FB7: 18                         clc
4FB8: 69 03                      adc #$03
4FBA: 8D 00 4E                   sta $4E00     ; L_4E00
4FBD: 60                         rts
4FBE: 01        L_4FBE           BYTE $01 $00 $00 $00 $00 $00 $00 $00
4FC6: 00                         BYTE $00 $00 $00 $00 $00 $00 $00 $00
4FCE: 00                         BYTE $00 $00 $00 $00 $00 $00 $00 $00
4FD6: 00                         BYTE $00 $00 $00 $00 $00 $00 $00 $00
4FDE: 00                         BYTE $00 $00 $00 $00 $00 $00 $00 $00
4FE6: 00                         BYTE $00 $00 $00 $00 $00 $00 $00 $00
4FEE: 00                         BYTE $00 $00 $00 $00 $00 $00 $00 $00
4FF6: 00                         BYTE $00 $00 $00 $00 $00 $00 $00 $00
4FFE: 00        L_4FFE           BYTE $00 $00 $01 $EA $00
5003: AD 04 4E                   lda $4E04     ; L_4E04
5006: F0 0D                      beq $5015     ; L_5015
5008: AD 01 4E                   lda $4E01     ; L_4E01
500B: 38                         sec
500C: E9 2C                      sbc #$2C
500E: CD 09 44                   cmp $4409     ; L_4405+4
5011: F0 08                      beq $501B     ; L_501B
5013: 10 06                      bpl $501B     ; L_501B
5015: AD 02 50  L_5015           lda $5002     ; L_4FFE+4
5018: D0 65                      bne $507F     ; L_507F
501A: 60        L_501A           rts
501B: 38        L_501B           sec
501C: ED 09 44                   sbc $4409     ; L_4405+4
501F: CD 03 4A                   cmp $4A03     ; L_4A01+2
5022: F0 05                      beq $5029     ; L_5029
5024: 30 03                      bmi $5029     ; L_5029
5026: 4C 15 50                   jmp $5015     ; L_5015
5029: 8D 00 50  L_5029           sta $5000     ; L_4FFE+2
502C: AD 02 4E                   lda $4E02     ; L_4E02
502F: C9 63                      cmp #$63
5031: 30 E2                      bmi $5015     ; L_5015
5033: C9 66                      cmp #$66
5035: 10 DE                      bpl $5015     ; L_5015
5037: AD 03 4A                   lda $4A03     ; L_4A01+2
503A: C9 1E                      cmp #$1E
503C: F0 09                      beq $5047     ; L_5047
503E: AD 00 50                   lda $5000     ; L_4FFE+2
5041: C9 08                      cmp #$08
5043: F0 02                      beq $5047     ; L_5047
5045: 30 CE                      bmi $5015     ; L_5015
5047: AD 00 50  L_5047           lda $5000     ; L_4FFE+2
504A: CD 03 4A                   cmp $4A03     ; L_4A01+2
504D: F0 05                      beq $5054     ; L_5054
504F: 30 03                      bmi $5054     ; L_5054
5051: 4C 15 50                   jmp $5015     ; L_5015
5054: AC 02 4E  L_5054           ldy $4E02     ; L_4E02
5057: 88                         dey
5058: 88                         dey
5059: A2 00                      ldx #$00
505B: 8A                         txa
505C: 99 80 6D  L_505C           sta $6D80,y   ; L_6D7A+6
505F: 99 80 6F                   sta $6F80,y   ; L_6F7A+6
5062: E8                         inx
5063: C8                         iny
5064: E0 0C                      cpx #$0C
5066: D0 F4                      bne $505C     ; L_505C
5068: A9 01                      lda #$01
506A: 8D 02 50                   sta $5002     ; L_4FFE+4
506D: 4C 98 57                   jmp $5798     ; L_5798
5070: 00        L_5070           BYTE $00 $00 $00 $00 $00 $01 $00 $00
5078: 00        L_5078           BYTE $00 $00 $00 $00 $00 $00 $00
507F: AD 02 50  L_507F           lda $5002     ; L_4FFE+4
5082: C9 02                      cmp #$02
5084: F0 3B                      beq $50C1     ; L_50C1
5086: AD 7D 50                   lda $507D     ; L_5078+5
5089: D0 08                      bne $5093     ; L_5093
508B: AD 0B 44                   lda $440B     ; L_4405+6
508E: F0 03                      beq $5093     ; L_5093
5090: 4C 3D 52                   jmp $523D     ; L_523D
5093: AD 03 4E  L_5093           lda $4E03     ; L_4E03
5096: F0 17                      beq $50AF     ; L_50AF
5098: C9 01                      cmp #$01
509A: F0 4F                      beq $50EB     ; L_50EB
509C: C9 02                      cmp #$02
509E: F0 64                      beq $5104     ; L_5104
50A0: C9 03                      cmp #$03
50A2: F0 14                      beq $50B8     ; L_50B8
50A4: C9 04                      cmp #$04
50A6: F0 13                      beq $50BB     ; L_50BB
50A8: C9 05                      cmp #$05
50AA: F0 12                      beq $50BE     ; L_50BE
50AC: 4C 35 28                   jmp $2835     ; L_2835
50AF: 4C 2C 8F  L_50AF           jmp $8F2C     ; L_8F2C
50B2: 4C EB 50                   jmp $50EB     ; L_50EB
50B5: 4C 04 51                   jmp $5104     ; L_5104
50B8: 4C F0 51  L_50B8           jmp $51F0     ; L_51F0
50BB: 4C 7D 51  L_50BB           jmp $517D     ; L_517D
50BE: 4C 1B 52  L_50BE           jmp $521B     ; L_521B
50C1: AD 03 4E  L_50C1           lda $4E03     ; L_4E03
50C4: F0 15                      beq $50DB     ; L_50DB
50C6: C9 01                      cmp #$01
50C8: F0 14                      beq $50DE     ; L_50DE
50CA: C9 02                      cmp #$02
50CC: F0 58                      beq $5126     ; L_5126
50CE: C9 03                      cmp #$03
50D0: F0 12                      beq $50E4     ; L_50E4
50D2: C9 04                      cmp #$04
50D4: F0 0F                      beq $50E5     ; L_50E5
50D6: C9 05                      cmp #$05
50D8: F0 0E                      beq $50E8     ; L_50E8
50DA: 60                         rts
50DB: 4C 1A 50  L_50DB           jmp $501A     ; L_501A
50DE: 4C 54 51  L_50DE           jmp $5154     ; L_5154
50E1: 4C 26 51                   jmp $5126     ; L_5126
50E4: 60        L_50E4           rts
50E5: 4C E6 55  L_50E5           jmp $55E6     ; L_55E6
50E8: 4C 98 52  L_50E8           jmp $5298     ; L_5298
50EB: A9 0F     L_50EB           lda #$0F
50ED: 8D F3 46                   sta $46F3     ; L_46F0+3
50F0: 8D F4 46                   sta $46F4     ; L_46F0+4
50F3: 8D F4 46                   sta $46F4     ; L_46F0+4
50F6: A9 00                      lda #$00
50F8: 8D 70 50                   sta $5070     ; L_5070
50FB: 8D 71 50                   sta $5071     ; L_5070+1
50FE: A9 02                      lda #$02
5100: 8D 02 50                   sta $5002     ; L_4FFE+4
5103: 60                         rts
5104: A9 B4     L_5104           lda #$B4
5106: 8D 71 50                   sta $5071     ; L_5070+1
5109: AD 73 50                   lda $5073     ; L_5070+3
510C: F0 45                      beq $5153     ; L_5153
510E: A9 01                      lda #$01
5110: 8D 72 50                   sta $5072     ; L_5070+2
5113: 20 9E 46                   jsr $469E     ; L_469E
5116: 38                         sec
5117: E9 30                      sbc #$30
5119: 38                         sec
511A: ED 09 44                   sbc $4409     ; L_4405+4
511D: 8D 74 50                   sta $5074     ; L_5070+4
5120: A9 02                      lda #$02
5122: 8D 02 50                   sta $5002     ; L_4FFE+4
5125: 60                         rts
5126: AD 73 50  L_5126           lda $5073     ; L_5070+3
5129: F0 28                      beq $5153     ; L_5153
512B: A2 97                      ldx #$97
512D: AD 0B 46                   lda $460B     ; L_4607+4
5130: C9 63                      cmp #$63
5132: F0 02                      beq $5136     ; L_5136
5134: A2 BF                      ldx #$BF
5136: 86 DC     L_5136           stx $DC       ; FRE+2
5138: AD 09 44                   lda $4409     ; L_4405+4
513B: 18                         clc
513C: 69 30                      adc #$30
513E: 18                         clc
513F: 6D 74 50                   adc $5074     ; L_5070+4
5142: 8D 00 D0                   sta $D000     ; HPOSP0
5145: 8D 08 46                   sta $4608     ; L_4607+1
5148: 38                         sec
5149: E9 30                      sbc #$30
514B: 4A                         lsr
514C: 4A                         lsr
514D: 18                         clc
514E: 65 DC                      adc $DC       ; FRE+2
5150: 8D C0 46                   sta $46C0     ; L_46C0
5153: 60        L_5153           rts
5154: AD 70 50  L_5154           lda $5070     ; L_5070
5157: C9 FF                      cmp #$FF
5159: D0 03                      bne $515E     ; L_515E
515B: EE 71 50                   inc $5071     ; L_5070+1
515E: EE 70 50  L_515E           inc $5070     ; L_5070
5161: AD 71 50                   lda $5071     ; L_5070+1
5164: C9 05                      cmp #$05
5166: F0 01                      beq $5169     ; L_5169
5168: 60                         rts
5169: A9 00     L_5169           lda #$00
516B: 8D 02 50                   sta $5002     ; L_4FFE+4
516E: EA                         nop
516F: EA                         nop
5170: EA                         nop
5171: A9 04                      lda #$04
5173: 8D F3 46                   sta $46F3     ; L_46F0+3
5176: 8D F4 46                   sta $46F4     ; L_46F0+4
5179: 8D F4 46                   sta $46F4     ; L_46F0+4
517C: 60                         rts
517D: A9 02     L_517D           lda #$02
517F: 8D 02 50                   sta $5002     ; L_4FFE+4
5182: AD C0 46                   lda $46C0     ; L_46C0
5185: 8D C2 46                   sta $46C2     ; L_46C0+2
5188: 8D C4 46                   sta $46C4     ; L_46C0+4
518B: AD C1 46                   lda $46C1     ; L_46C0+1
518E: 8D C3 46                   sta $46C3     ; L_46C0+3
5191: 8D C5 46                   sta $46C5     ; L_46C0+5
5194: AD 08 46                   lda $4608     ; L_4607+1
5197: 8D 09 46                   sta $4609     ; L_4607+2
519A: 8D 0A 46                   sta $460A     ; L_4607+3
519D: AD 0B 46                   lda $460B     ; L_4607+4
51A0: 8D 0C 46                   sta $460C     ; L_4607+5
51A3: 8D 0D 46                   sta $460D     ; L_4607+6
51A6: A9 00                      lda #$00
51A8: 8D DD 46                   sta $46DD     ; L_46D8+5
51AB: 8D DE 46                   sta $46DE     ; L_46D8+6
51AE: 8D DA 46                   sta $46DA     ; L_46D8+2
51B1: 8D DB 46                   sta $46DB     ; L_46D8+3
51B4: AD 0B D4                   lda $D40B     ; VCOUNT
51B7: 29 07                      and #$07
51B9: 8D CA 46                   sta $46CA     ; L_46C8+2
51BC: EA                         nop
51BD: EA                         nop
51BE: EA                         nop
51BF: AD 0B D4                   lda $D40B     ; VCOUNT
51C2: 29 07                      and #$07
51C4: 8D CB 46                   sta $46CB     ; L_46C8+3
51C7: A2 00                      ldx #$00
51C9: AD C6 46                   lda $46C6     ; L_46C0+6
51CC: 49 0C                      eor #$0C
51CE: 8D C7 46                   sta $46C7     ; L_46C0+7
51D1: AD C6 46                   lda $46C6     ; L_46C0+6
51D4: 49 03                      eor #$03
51D6: 8D C8 46                   sta $46C8     ; L_46C8
51D9: A9 01                      lda #$01
51DB: 8D 75 50                   sta $5075     ; L_5070+5
51DE: 8D 76 50                   sta $5076     ; L_5070+6
51E1: 8D 77 50                   sta $5077     ; L_5070+7
51E4: A9 00                      lda #$00
51E6: 8D F3 46                   sta $46F3     ; L_46F0+3
51E9: 8D F4 46                   sta $46F4     ; L_46F0+4
51EC: 8D F5 46                   sta $46F5     ; L_46F0+5
51EF: 60                         rts
51F0: A9 01     L_51F0           lda #$01
51F2: 20 4B 28                   jsr $284B     ; L_284B
51F5: AD 78 50                   lda $5078     ; L_5078
51F8: C9 04                      cmp #$04
51FA: B0 04                      bcs $5200     ; L_5200
51FC: EE 78 50                   inc $5078     ; L_5078
51FF: 60                         rts
5200: A9 00     L_5200           lda #$00
5202: 8D 78 50                   sta $5078     ; L_5078
5205: AD 0B 44                   lda $440B     ; L_4405+6
5208: C9 02                      cmp #$02
520A: F0 04                      beq $5210     ; L_5210
520C: EE 0B 44                   inc $440B     ; L_4405+6
520F: 60                         rts
5210: A9 02     L_5210           lda #$02
5212: 8D 02 50                   sta $5002     ; L_4FFE+4
5215: A9 1E                      lda #$1E
5217: 8D 03 4A                   sta $4A03     ; L_4A01+2
521A: 60                         rts
521B: A9 02     L_521B           lda #$02
521D: 8D 02 50                   sta $5002     ; L_4FFE+4
5220: A9 03                      lda #$03
5222: 8D 0B 44                   sta $440B     ; L_4405+6
5225: A9 00                      lda #$00
5227: 8D 79 50                   sta $5079     ; L_5078+1
522A: 8D 7A 50                   sta $507A     ; L_5078+2
522D: 8D 7B 50                   sta $507B     ; L_5078+3
5230: 8D 7C 50                   sta $507C     ; L_5078+4
5233: 8D 77 52                   sta $5277     ; L_5270+7
5236: 8D 78 52                   sta $5278     ; L_5278
5239: 60                         rts
523A: 4C 00 57  L_523A           jmp $5700     ; L_5700
523D: 4C 77 57  L_523D           jmp $5777     ; L_5777
5240: 00                         BYTE $00 $00 $00 $00 $00 $00 $00 $00
5248: 00                         BYTE $00 $00 $00 $00 $00 $00 $00 $00
5250: 00                         BYTE $00 $00 $00 $00 $00 $00 $00 $00
5258: 00                         BYTE $00 $00 $00 $00 $00 $00 $00 $00
5260: 00                         BYTE $00 $00 $00 $00 $00 $00 $00 $00
5268: 00                         BYTE $00 $00 $00 $00 $00 $00 $00 $00
5270: 84        L_5270           BYTE $84 $84 $84 $00 $00 $00 $00 $00
5278: 00        L_5278           BYTE $00 $00 $01 $00 $00 $00 $00 $00
5280: 01        L_5280           BYTE $01 $01
5282: AD 17 45  L_5282           lda $4517     ; L_4517
5285: D0 0B                      bne $5292     ; L_5292
5287: AE 7A 52                   ldx $527A     ; L_5278+2
528A: F0 06                      beq $5292     ; L_5292
528C: A9 00                      lda #$00
528E: 8D 7A 52                   sta $527A     ; L_5278+2
5291: 60                         rts
5292: 8D 7A 52  L_5292           sta $527A     ; L_5278+2
5295: A9 01                      lda #$01
5297: 60                         rts
5298: 20 82 52  L_5298           jsr $5282     ; L_5282
529B: D0 52                      bne $52EF     ; L_52EF
529D: AD 77 52                   lda $5277     ; L_5270+7
52A0: 18                         clc
52A1: 6D 78 52                   adc $5278     ; L_5278
52A4: F0 07                      beq $52AD     ; L_52AD
52A6: C9 01                      cmp #$01
52A8: F0 03                      beq $52AD     ; L_52AD
52AA: 4C EF 52                   jmp $52EF     ; L_52EF
52AD: A2 00     L_52AD           ldx #$00
52AF: BD 79 50  L_52AF           lda $5079,x   ; L_5078+1
52B2: D0 36                      bne $52EA     ; L_52EA
52B4: AD 09 44                   lda $4409     ; L_4405+4
52B7: 18                         clc
52B8: 69 3C                      adc #$3C
52BA: 9D 79 50                   sta $5079,x   ; L_5078+1
52BD: 20 1B 28                   jsr $281B     ; L_281B
52C0: A9 0F                      lda #$0F
52C2: 9D C1 02                   sta $02C1,x   ; PCOLR1
52C5: A9 64                      lda #$64
52C7: 9D 7B 50                   sta $507B,x   ; L_5078+3
52CA: A9 01                      lda #$01
52CC: 9D 77 52                   sta $5277,x   ; L_5270+7
52CF: A9 9E                      lda #$9E
52D1: 9D 7E 52                   sta $527E,x   ; L_5278+6
52D4: AD 09 44                   lda $4409     ; L_4405+4
52D7: 18                         clc
52D8: 69 08                      adc #$08
52DA: 4A                         lsr
52DB: 4A                         lsr
52DC: 18                         clc
52DD: 69 99                      adc #$99
52DF: 9D 7B 52                   sta $527B,x   ; L_5278+3
52E2: 90 0B                      bcc $52EF     ; L_52EF
52E4: FE 7E 52                   inc $527E,x   ; L_5278+6
52E7: 4C EF 52                   jmp $52EF     ; L_52EF
52EA: E8        L_52EA           inx
52EB: E0 02                      cpx #$02
52ED: D0 C0                      bne $52AF     ; L_52AF
52EF: A0 80     L_52EF           ldy #$80
52F1: A9 6E                      lda #$6E
52F3: AE 38 55                   ldx $5538     ; L_5538
52F6: E0 01                      cpx #$01
52F8: D0 04                      bne $52FE     ; L_52FE
52FA: A0 00                      ldy #$00
52FC: A9 6F                      lda #$6F
52FE: 84 00     L_52FE           sty $00       ; LNFLG
5300: 85 01                      sta $01       ; NGFLAG
5302: BD 77 52                   lda $5277,x   ; L_5270+7
5305: F0 42                      beq $5349     ; L_5349
5307: C9 02                      cmp #$02
5309: D0 12                      bne $531D     ; L_531D
530B: 20 A7 55                   jsr $55A7     ; L_55A7
530E: 86 DC                      stx $DC       ; FRE+2
5310: BD 60 55                   lda $5560,x   ; L_5560
5313: C9 04                      cmp #$04
5315: D0 03                      bne $531A     ; L_531A
5317: 20 93 54                   jsr $5493     ; L_5493
531A: 4C 49 53  L_531A           jmp $5349     ; L_5349
531D: BD 7B 50  L_531D           lda $507B,x   ; L_5078+3
5320: A8                         tay
5321: 88                         dey
5322: 88                         dey
5323: 88                         dey
5324: 88                         dey
5325: 98                         tya
5326: 9D 7B 50                   sta $507B,x   ; L_5078+3
5329: 86 DC                      stx $DC       ; FRE+2
532B: A2 00                      ldx #$00
532D: BD 70 52  L_532D           lda $5270,x   ; L_5270
5330: 91 00                      sta ($00),y   ; LNFLG
5332: E8                         inx
5333: C8                         iny
5334: E0 07                      cpx #$07
5336: D0 F5                      bne $532D     ; L_532D
5338: A6 DC                      ldx $DC       ; FRE+2
533A: 20 52 53                   jsr $5352     ; L_5352
533D: A6 DC                      ldx $DC       ; FRE+2
533F: A5 DE                      lda $DE       ; FRE+4
5341: 9D 7B 52                   sta $527B,x   ; L_5278+3
5344: A5 DF                      lda $DF       ; FRE+5
5346: 9D 7E 52                   sta $527E,x   ; L_5278+6
5349: AD 38 55  L_5349           lda $5538     ; L_5538
534C: 49 01                      eor #$01
534E: 8D 38 55                   sta $5538     ; L_5538
5351: 60                         rts
5352: BD 7B 52  L_5352           lda $527B,x   ; L_5278+3
5355: 85 DE                      sta $DE       ; FRE+4
5357: BD 7E 52                   lda $527E,x   ; L_5278+6
535A: 85 DF                      sta $DF       ; FRE+5
535C: BD 7B 50                   lda $507B,x   ; L_5078+3
535F: 29 03                      and #$03
5361: D0 0B                      bne $536E     ; L_536E
5363: A5 DE                      lda $DE       ; FRE+4
5365: 38                         sec
5366: E9 28                      sbc #$28
5368: 85 DE                      sta $DE       ; FRE+4
536A: B0 02                      bcs $536E     ; L_536E
536C: C6 DF                      dec $DF       ; FRE+5
536E: A0 00     L_536E           ldy #$00
5370: 8C 81 52                   sty $5281     ; L_5280+1
5373: 84 DD     L_5373           sty $DD       ; FRE+3
5375: B1 DE                      lda ($DE),y   ; FRE+4
5377: D0 26                      bne $539F     ; L_539F
5379: A4 DD     L_5379           ldy $DD       ; FRE+3
537B: C8                         iny
537C: C0 02                      cpy #$02
537E: D0 F3                      bne $5373     ; L_5373
5380: AD 81 52                   lda $5281     ; L_5280+1
5383: F0 0F                      beq $5394     ; L_5394
5385: A6 DC                      ldx $DC       ; FRE+2
5387: A9 02                      lda #$02
5389: 9D 77 52                   sta $5277,x   ; L_5270+7
538C: A9 00                      lda #$00
538E: 9D 60 55                   sta $5560,x   ; L_5560
5391: 9D 62 55                   sta $5562,x   ; L_5560+2
5394: 60        L_5394           rts
5395: A6 DC     L_5395           ldx $DC       ; FRE+2
5397: A9 01                      lda #$01
5399: 8D 81 52                   sta $5281     ; L_5280+1
539C: 4C 79 53                   jmp $5379     ; L_5379
539F: C9 37     L_539F           cmp #$37
53A1: 30 07                      bmi $53AA     ; L_53AA
53A3: C9 60                      cmp #$60
53A5: 10 03                      bpl $53AA     ; L_53AA
53A7: 4C 79 53                   jmp $5379     ; L_5379
53AA: C9 9D     L_53AA           cmp #$9D
53AC: D0 03                      bne $53B1     ; L_53B1
53AE: 4C B7 54                   jmp $54B7     ; L_54B7
53B1: C9 9E     L_53B1           cmp #$9E
53B3: D0 03                      bne $53B8     ; L_53B8
53B5: 4C B7 54                   jmp $54B7     ; L_54B7
53B8: C9 01     L_53B8           cmp #$01
53BA: D0 03                      bne $53BF     ; L_53BF
53BC: 4C B7 54                   jmp $54B7     ; L_54B7
53BF: C9 02     L_53BF           cmp #$02
53C1: D0 03                      bne $53C6     ; L_53C6
53C3: 4C B7 54                   jmp $54B7     ; L_54B7
53C6: C9 83     L_53C6           cmp #$83
53C8: F0 3C                      beq $5406     ; L_5406
53CA: C9 84                      cmp #$84
53CC: F0 38                      beq $5406     ; L_5406
53CE: 29 7F                      and #$7F
53D0: C9 13                      cmp #$13
53D2: 30 07                      bmi $53DB     ; L_53DB
53D4: C9 19                      cmp #$19
53D6: 10 03                      bpl $53DB     ; L_53DB
53D8: 4C 95 53  L_53D8           jmp $5395     ; L_5395
53DB: C9 32     L_53DB           cmp #$32
53DD: 30 07                      bmi $53E6     ; L_53E6
53DF: C9 39                      cmp #$39
53E1: 10 03                      bpl $53E6     ; L_53E6
53E3: 4C D8 53                   jmp $53D8     ; L_53D8
53E6: C9 60     L_53E6           cmp #$60
53E8: 30 0A                      bmi $53F4     ; L_53F4
53EA: C9 7A                      cmp #$7A
53EC: 10 06                      bpl $53F4     ; L_53F4
53EE: 20 03 3D                   jsr $3D03     ; L_3CFC+7
53F1: 4C 93 54                   jmp $5493     ; L_5493
53F4: C9 08     L_53F4           cmp #$08
53F6: F0 0E                      beq $5406     ; L_5406
53F8: 90 0C                      bcc $5406     ; L_5406
53FA: C9 13                      cmp #$13
53FC: F0 97                      beq $5395     ; L_5395
53FE: B0 03                      bcs $5403     ; L_5403
5400: 4C 95 53                   jmp $5395     ; L_5395
5403: 4C 79 53  L_5403           jmp $5379     ; L_5379
5406: BD 79 50  L_5406           lda $5079,x   ; L_5078+1
5409: 29 FC                      and #$FC
540B: 4A                         lsr
540C: 4A                         lsr
540D: 18                         clc
540E: 69 01                      adc #$01
5410: 29 03                      and #$03
5412: 8D 80 52                   sta $5280     ; L_5280
5415: 98                         tya
5416: 18                         clc
5417: 6D 80 52                   adc $5280     ; L_5280
541A: 8D 80 52                   sta $5280     ; L_5280
541D: A5 DE                      lda $DE       ; FRE+4
541F: 85 02                      sta $02       ; CASINI
5421: A5 DF                      lda $DF       ; FRE+5
5423: 85 03                      sta $03       ; CASINI+1
5425: A4 DD                      ldy $DD       ; FRE+3
5427: B1 02                      lda ($02),y   ; CASINI
5429: 29 01                      and #$01
542B: D0 0B                      bne $5438     ; L_5438
542D: CE 80 52                   dec $5280     ; L_5280
5430: A5 02                      lda $02       ; CASINI
5432: D0 02                      bne $5436     ; L_5436
5434: C6 03                      dec $03       ; CASINI+1
5436: C6 02     L_5436           dec $02       ; CASINI
5438: AD 80 52  L_5438           lda $5280     ; L_5280
543B: 29 03                      and #$03
543D: 18                         clc
543E: 69 38                      adc #$38
5440: 85 04                      sta $04       ; RAMLO
5442: A5 04                      lda $04       ; RAMLO
5444: C9 3B                      cmp #$3B
5446: D0 07                      bne $544F     ; L_544F
5448: A9 38                      lda #$38
544A: 85 05                      sta $05       ; RAMLO+1
544C: 4C 54 54                   jmp $5454     ; L_5454
544F: 18        L_544F           clc
5450: 69 01                      adc #$01
5452: 85 05                      sta $05       ; RAMLO+1
5454: BD 7B 50  L_5454           lda $507B,x   ; L_5078+3
5457: 29 FC                      and #$FC
5459: 4A                         lsr
545A: 4A                         lsr
545B: 38                         sec
545C: E9 02                      sbc #$02
545E: 29 03                      and #$03
5460: 18                         clc
5461: 0A                         asl
5462: 0A                         asl
5463: 18                         clc
5464: 65 04                      adc $04       ; RAMLO
5466: 85 04                      sta $04       ; RAMLO
5468: BD 7B 50                   lda $507B,x   ; L_5078+3
546B: 29 FC                      and #$FC
546D: 4A                         lsr
546E: 4A                         lsr
546F: 38                         sec
5470: E9 02                      sbc #$02
5472: 29 03                      and #$03
5474: 18                         clc
5475: 0A                         asl
5476: 0A                         asl
5477: 18                         clc
5478: 65 05                      adc $05       ; RAMLO+1
547A: 85 05                      sta $05       ; RAMLO+1
547C: A4 DD                      ldy $DD       ; FRE+3
547E: A5 04                      lda $04       ; RAMLO
5480: 91 02                      sta ($02),y   ; CASINI
5482: C8                         iny
5483: A5 05                      lda $05       ; RAMLO+1
5485: 91 02                      sta ($02),y   ; CASINI
5487: 20 D9 29                   jsr $29D9     ; L_29D9
548A: EA                         nop
548B: A9 01                      lda #$01
548D: 8D 81 52                   sta $5281     ; L_5280+1
5490: 4C 32 55                   jmp $5532     ; L_5532
5493: A9 00     L_5493           lda #$00
5495: 9D 77 52                   sta $5277,x   ; L_5270+7
5498: 9D 7B 52                   sta $527B,x   ; L_5278+3
549B: 9D 7E 52                   sta $527E,x   ; L_5278+6
549E: BD 7B 50                   lda $507B,x   ; L_5078+3
54A1: A8                         tay
54A2: A2 00                      ldx #$00
54A4: A9 00                      lda #$00
54A6: 91 00     L_54A6           sta ($00),y   ; LNFLG
54A8: C8                         iny
54A9: E8                         inx
54AA: E0 06                      cpx #$06
54AC: D0 F8                      bne $54A6     ; L_54A6
54AE: A6 DC                      ldx $DC       ; FRE+2
54B0: 9D 79 50                   sta $5079,x   ; L_5078+1
54B3: 9D 7B 50                   sta $507B,x   ; L_5078+3
54B6: 60                         rts
54B7: A5 DE     L_54B7           lda $DE       ; FRE+4
54B9: 85 04                      sta $04       ; RAMLO
54BB: A5 DF                      lda $DF       ; FRE+5
54BD: 85 05                      sta $05       ; RAMLO+1
54BF: A9 01                      lda #$01
54C1: 8D 81 52                   sta $5281     ; L_5280+1
54C4: B1 DE                      lda ($DE),y   ; FRE+4
54C6: 29 01                      and #$01
54C8: D0 08                      bne $54D2     ; L_54D2
54CA: A5 04                      lda $04       ; RAMLO
54CC: D0 02                      bne $54D0     ; L_54D0
54CE: C6 05                      dec $05       ; RAMLO+1
54D0: C6 04     L_54D0           dec $04       ; RAMLO
54D2: 98        L_54D2           tya
54D3: 18                         clc
54D4: 65 04                      adc $04       ; RAMLO
54D6: 85 04                      sta $04       ; RAMLO
54D8: 90 02                      bcc $54DC     ; L_54DC
54DA: E6 05                      inc $05       ; RAMLO+1
54DC: A0 00     L_54DC           ldy #$00
54DE: B1 04                      lda ($04),y   ; RAMLO
54E0: 85 02                      sta $02       ; CASINI
54E2: A2 00                      ldx #$00
54E4: A0 00                      ldy #$00
54E6: B9 41 4C  L_54E6           lda $4C41,y   ; L_4C41
54E9: D0 37                      bne $5522     ; L_5522
54EB: A5 04                      lda $04       ; RAMLO
54ED: 99 40 4C                   sta $4C40,y   ; L_4C40
54F0: A5 05                      lda $05       ; RAMLO+1
54F2: 99 41 4C                   sta $4C41,y   ; L_4C41
54F5: AD 00 40                   lda $4000     ; L_3FFD+3
54F8: 4A                         lsr
54F9: 4A                         lsr
54FA: 4A                         lsr
54FB: 18                         clc
54FC: 69 02                      adc #$02
54FE: 99 42 4C                   sta $4C42,y   ; L_4C42
5501: A5 02                      lda $02       ; CASINI
5503: 99 43 4C                   sta $4C43,y   ; L_4C43
5506: A9 01                      lda #$01
5508: 8D 81 52                   sta $5281     ; L_5280+1
550B: A0 00                      ldy #$00
550D: B1 04                      lda ($04),y   ; RAMLO
550F: 29 80                      and #$80
5511: 09 09                      ora #$09
5513: 91 04                      sta ($04),y   ; RAMLO
5515: C8                         iny
5516: 18                         clc
5517: 69 01                      adc #$01
5519: 91 04                      sta ($04),y   ; RAMLO
551B: A6 DC                      ldx $DC       ; FRE+2
551D: A4 DD                      ldy $DD       ; FRE+3
551F: 4C 79 53                   jmp $5379     ; L_5379
5522: C8        L_5522           iny
5523: C8                         iny
5524: C8                         iny
5525: C8                         iny
5526: E8                         inx
5527: E0 1E                      cpx #$1E
5529: D0 BB                      bne $54E6     ; L_54E6
552B: A6 DC                      ldx $DC       ; FRE+2
552D: A4 DD                      ldy $DD       ; FRE+3
552F: 4C 79 53                   jmp $5379     ; L_5379
5532: 20 91 39  L_5532           jsr $3991     ; L_3991
5535: 4C 79 53                   jmp $5379     ; L_5379
5538: 01        L_5538           BYTE $01 $00 $00 $00 $00 $00 $00 $00
5540: 00                         BYTE $00 $00 $00 $00 $00 $00 $00 $00
5548: 00                         BYTE $00 $00 $00 $00 $00 $00 $00 $00
5550: 00                         BYTE $00 $00 $00 $00 $00 $00 $00 $00
5558: 00                         BYTE $00 $00 $00 $00 $00 $00 $00 $00
5560: 04        L_5560           BYTE $04 $04 $00 $00 $01 $00 $36 $94
5568: 1C                         BYTE $1C $AE $01 $00 $00 $00 $00 $00
5570: 00                         BYTE $00 $00 $00 $00 $00 $00 $00 $00
5578: A8                         BYTE $A8 $58 $A2 $00 $01 $00 $00 $00
5580: 00                         BYTE $00 $00 $00 $00 $00 $00 $00 $00
5588: 80                         BYTE $80 $50 $A8 $02 $00 $80 $01 $00
5590: 00                         BYTE $00 $00 $00 $00 $00 $00 $00 $00
5598: 00                         BYTE $00 $40 $00 $00 $00 $01 $00 $80
55A0: 04                         BYTE $04 $00 $00 $00 $40 $00 $00
55A7: 8E 64 55  L_55A7           stx $5564     ; L_5560+4
55AA: 8C 65 55                   sty $5565     ; L_5560+5
55AD: BD 62 55                   lda $5562,x   ; L_5560+2
55B0: C9 01                      cmp #$01
55B2: B0 04                      bcs $55B8     ; L_55B8
55B4: FE 62 55                   inc $5562,x   ; L_5560+2
55B7: 60                         rts
55B8: A9 00     L_55B8           lda #$00
55BA: 9D 62 55                   sta $5562,x   ; L_5560+2
55BD: BD 7B 50                   lda $507B,x   ; L_5078+3
55C0: A8                         tay
55C1: BD 60 55                   lda $5560,x   ; L_5560
55C4: 18                         clc
55C5: 0A                         asl
55C6: 0A                         asl
55C7: 0A                         asl
55C8: 0A                         asl
55C9: FE 60 55                   inc $5560,x   ; L_5560
55CC: AA                         tax
55CD: 18                         clc
55CE: 69 06                      adc #$06
55D0: 8D 66 55                   sta $5566     ; L_5560+6
55D3: BD 67 55  L_55D3           lda $5567,x   ; L_5560+7
55D6: 91 00                      sta ($00),y   ; LNFLG
55D8: C8                         iny
55D9: E8                         inx
55DA: EC 66 55                   cpx $5566     ; L_5560+6
55DD: D0 F4                      bne $55D3     ; L_55D3
55DF: AE 64 55                   ldx $5564     ; L_5560+4
55E2: AC 65 55                   ldy $5565     ; L_5560+5
55E5: 60                         rts
55E6: A2 00     L_55E6           ldx #$00
55E8: A9 00                      lda #$00
55EA: 85 00                      sta $00       ; LNFLG
55EC: A9 6E                      lda #$6E
55EE: 85 01                      sta $01       ; NGFLAG
55F0: A9 00     L_55F0           lda #$00
55F2: A0 00                      ldy #$00
55F4: 18        L_55F4           clc
55F5: 79 75 50                   adc $5075,y   ; L_5070+5
55F8: C8                         iny
55F9: C0 03                      cpy #$03
55FB: D0 F7                      bne $55F4     ; L_55F4
55FD: 85 03                      sta $03       ; CASINI+1
55FF: BD 0B 46                   lda $460B,x   ; L_4607+4
5602: C9 68                      cmp #$68
5604: D0 22                      bne $5628     ; L_5628
5606: A5 03                      lda $03       ; CASINI+1
5608: C9 01                      cmp #$01
560A: F0 2D                      beq $5639     ; L_5639
560C: A9 00                      lda #$00
560E: 9D 75 50                   sta $5075,x   ; L_5070+5
5611: 9D 00 D0                   sta $D000,x   ; HPOSP0
5614: BD 0B 46                   lda $460B,x   ; L_4607+4
5617: A8                         tay
5618: 86 02                      stx $02       ; CASINI
561A: A2 00                      ldx #$00
561C: A9 00     L_561C           lda #$00
561E: 91 00                      sta ($00),y   ; LNFLG
5620: C8                         iny
5621: E8                         inx
5622: E0 06                      cpx #$06
5624: D0 F6                      bne $561C     ; L_561C
5626: A6 02                      ldx $02       ; CASINI
5628: A5 00     L_5628           lda $00       ; LNFLG
562A: 18                         clc
562B: 69 80                      adc #$80
562D: 85 00                      sta $00       ; LNFLG
562F: 90 02                      bcc $5633     ; L_5633
5631: E6 01                      inc $01       ; NGFLAG
5633: E8        L_5633           inx
5634: E0 03                      cpx #$03
5636: D0 B8                      bne $55F0     ; L_55F0
5638: 60                         rts
5639: A2 00     L_5639           ldx #$00
563B: BD 75 50  L_563B           lda $5075,x   ; L_5070+5
563E: D0 06                      bne $5646     ; L_5646
5640: E8                         inx
5641: E0 03                      cpx #$03
5643: D0 F6                      bne $563B     ; L_563B
5645: 60                         rts
5646: A9 00     L_5646           lda #$00
5648: 9D 75 50                   sta $5075,x   ; L_5070+5
564B: 8D 02 50                   sta $5002     ; L_4FFE+4
564E: EA                         nop
564F: EA                         nop
5650: EA                         nop
5651: A9 01                      lda #$01
5653: 8D 75 50                   sta $5075     ; L_5070+5
5656: BD 0B 46                   lda $460B,x   ; L_4607+4
5659: 8D 0B 46                   sta $460B     ; L_4607+4
565C: BD 08 46                   lda $4608,x   ; L_4607+1
565F: 8D 08 46                   sta $4608     ; L_4607+1
5662: BD C6 46                   lda $46C6,x   ; L_46C0+6
5665: 8D C6 46                   sta $46C6     ; L_46C0+6
5668: BD C9 46                   lda $46C9,x   ; L_46C8+1
566B: 8D C9 46                   sta $46C9     ; L_46C8+1
566E: BD D9 46                   lda $46D9,x   ; L_46D8+1
5671: 8D D9 46                   sta $46D9     ; L_46D8+1
5674: BD DC 46                   lda $46DC,x   ; L_46D8+4
5677: 8D DC 46                   sta $46DC     ; L_46D8+4
567A: BD F6 46                   lda $46F6,x   ; L_46F0+6
567D: 8D F6 46                   sta $46F6     ; L_46F0+6
5680: BD F9 46                   lda $46F9,x   ; L_46F8+1
5683: 8D F9 46                   sta $46F9     ; L_46F8+1
5686: 8A                         txa
5687: 18                         clc
5688: 0A                         asl
5689: A8                         tay
568A: B9 C0 46                   lda $46C0,y   ; L_46C0
568D: 8D C0 46                   sta $46C0     ; L_46C0
5690: C8                         iny
5691: B9 C0 46                   lda $46C0,y   ; L_46C0
5694: 8D C1 46                   sta $46C1     ; L_46C0+1
5697: A9 00                      lda #$00
5699: 85 00                      sta $00       ; LNFLG
569B: A9 6E                      lda #$6E
569D: 85 01                      sta $01       ; NGFLAG
569F: 8A                         txa
56A0: A8                         tay
56A1: C0 00     L_56A1           cpy #$00
56A3: F0 0F                      beq $56B4     ; L_56B4
56A5: A5 00                      lda $00       ; LNFLG
56A7: 18                         clc
56A8: 69 80                      adc #$80
56AA: 85 00                      sta $00       ; LNFLG
56AC: 90 02                      bcc $56B0     ; L_56B0
56AE: E6 01                      inc $01       ; NGFLAG
56B0: 88        L_56B0           dey
56B1: 4C A1 56                   jmp $56A1     ; L_56A1
56B4: B9 0B 46  L_56B4           lda $460B,y   ; L_4607+4
56B7: A8                         tay
56B8: A2 00                      ldx #$00
56BA: A9 00     L_56BA           lda #$00
56BC: 91 00                      sta ($00),y   ; LNFLG
56BE: C8                         iny
56BF: E8                         inx
56C0: E0 06                      cpx #$06
56C2: D0 F6                      bne $56BA     ; L_56BA
56C4: A9 04                      lda #$04
56C6: 8D F3 46                   sta $46F3     ; L_46F0+3
56C9: 8D F4 46                   sta $46F4     ; L_46F0+4
56CC: 8D F5 46                   sta $46F5     ; L_46F0+5
56CF: 60                         rts
56D0: 00                         BYTE $00 $00 $00 $00 $00 $00 $00 $00
56D8: 00                         BYTE $00 $00 $00 $00 $00 $00 $00 $00
56E0: 00                         BYTE $00 $00 $00 $00 $00 $00 $00 $00
56E8: 00                         BYTE $00 $00 $00 $00 $00 $00 $00 $00
56F0: 00                         BYTE $00 $00 $00 $00 $00 $00 $00 $00
56F8: 00                         BYTE $00 $00 $00 $00 $00 $00 $00 $00
5700: EA        L_5700           nop
5701: EA                         nop
5702: EA                         nop
5703: 20 B0 2C                   jsr $2CB0     ; L_2CB0
5706: A9 00                      lda #$00
5708: 8D 04 4E                   sta $4E04     ; L_4E04
570B: AD 0B D4                   lda $D40B     ; VCOUNT
570E: 29 07                      and #$07
5710: 18                         clc
5711: 69 02                      adc #$02
5713: 8D 00 4E                   sta $4E00     ; L_4E00
5716: A2 00                      ldx #$00
5718: 8A                         txa
5719: 20 83 2C                   jsr $2C83     ; L_2C83
571C: EA                         nop
571D: EA                         nop
571E: EA                         nop
571F: EA                         nop
5720: EA                         nop
5721: EA                         nop
5722: EA                         nop
5723: EA                         nop
5724: EA                         nop
5725: 8D 01 D0                   sta $D001     ; HPOSP1
5728: 8D 02 D0                   sta $D002     ; HPOSP2
572B: 8D 03 D0                   sta $D003     ; HPOSP3
572E: 20 B0 2C                   jsr $2CB0     ; L_2CB0
5731: EA                         nop
5732: EA                         nop
5733: EA                         nop
5734: EA                         nop
5735: EA                         nop
5736: EA                         nop
5737: EA                         nop
5738: EA                         nop
5739: 20 39 56                   jsr $5639     ; L_5639
573C: A9 00                      lda #$00
573E: 8D F0 46                   sta $46F0     ; L_46F0
5741: 8D F1 46                   sta $46F1     ; L_46F0+1
5744: 8D F2 46                   sta $46F2     ; L_46F0+2
5747: 8D 7D 50                   sta $507D     ; L_5078+5
574A: 8D 7E 50                   sta $507E     ; L_5078+6
574D: 8D 76 50                   sta $5076     ; L_5070+6
5750: 8D 77 50                   sta $5077     ; L_5070+7
5753: A9 01                      lda #$01
5755: 8D 75 50                   sta $5075     ; L_5070+5
5758: 8D 02 50                   sta $5002     ; L_4FFE+4
575B: A9 1A                      lda #$1A
575D: 8D 03 4A                   sta $4A03     ; L_4A01+2
5760: 20 C0 5F                   jsr $5FC0     ; L_5FC0
5763: A2 00                      ldx #$00
5765: AC 0B 46                   ldy $460B     ; L_4607+4
5768: BD 00 46  L_5768           lda $4600,x   ; L_45FF+1
576B: 99 00 6E                   sta $6E00,y   ; L_6DFA+6
576E: C8                         iny
576F: E8                         inx
5770: E0 05                      cpx #$05
5772: D0 F4                      bne $5768     ; L_5768
5774: 4C 15 50                   jmp $5015     ; L_5015
5777: AD 0B 44  L_5777           lda $440B     ; L_4405+6
577A: C9 03                      cmp #$03
577C: D0 06                      bne $5784     ; L_5784
577E: A9 00                      lda #$00
5780: 8D 0B 44                   sta $440B     ; L_4405+6
5783: 60                         rts
5784: AD 7E 50  L_5784           lda $507E     ; L_5078+6
5787: C9 04                      cmp #$04
5789: F0 04                      beq $578F     ; L_578F
578B: EE 7E 50                   inc $507E     ; L_5078+6
578E: 60                         rts
578F: A9 00     L_578F           lda #$00
5791: 8D 7E 50                   sta $507E     ; L_5078+6
5794: CE 0B 44                   dec $440B     ; L_4405+6
5797: 60                         rts
5798: A2 03     L_5798           ldx #$03
579A: 20 B4 3B                   jsr $3BB4     ; L_3BB0+4
579D: 4C 3A 52                   jmp $523A     ; L_523A
57A0: 00                         BYTE $00 $00 $00 $00 $00 $00 $00 $00
57A8: 00                         BYTE $00 $00 $00 $00 $00 $00 $00 $00
57B0: 00        L_57B0           BYTE $00 $00 $00 $00 $00 $00 $00 $00
57B8: 00        L_57B8           BYTE $00 $00 $00 $00 $02 $02 $02 $02
57C0: 10        L_57C0           BYTE $10 $18 $02 $00 $1B $F3 $C3 $35
57C8: C3                         BYTE $C3 $F3 $36 $C3 $FF $37 $03 $00
57D0: 44                         BYTE $44 $00 $0F $45 $40 $44 $46 $03
57D8: 00                         BYTE $00 $44 $00 $0F $45 $42 $46 $46
57E0: 00        L_57E0           BYTE $00 $10 $11 $00 $00 $00 $00 $00
57E8: 00        L_57E8           BYTE $00 $02 $18 $03
57EC: A9 00     L_57EC           lda #$00
57EE: 8D E4 57                   sta $57E4     ; L_57E0+4
57F1: BD 69 5C                   lda $5C69,x   ; L_5C64+5
57F4: C9 06                      cmp #$06
57F6: D0 06                      bne $57FE     ; L_57FE
57F8: 20 2F 3D                   jsr $3D2F     ; L_3D2F
57FB: 4C 22 58                   jmp $5822     ; L_5822
57FE: BD B0 57  L_57FE           lda $57B0,x   ; L_57B0
5801: 29 07                      and #$07
5803: 18                         clc
5804: 0A                         asl
5805: 0A                         asl
5806: 0A                         asl
5807: 0A                         asl
5808: 0A                         asl
5809: 8D E3 57                   sta $57E3     ; L_57E0+3
580C: BD B0 57                   lda $57B0,x   ; L_57B0
580F: 29 07                      and #$07
5811: 18                         clc
5812: 0A                         asl
5813: 0A                         asl
5814: 0A                         asl
5815: 0A                         asl
5816: 18                         clc
5817: 6D E3 57                   adc $57E3     ; L_57E0+3
581A: 8D E3 57                   sta $57E3     ; L_57E0+3
581D: 90 03                      bcc $5822     ; L_5822
581F: EE E4 57                   inc $57E4     ; L_57E0+4
5822: A9 00     L_5822           lda #$00
5824: 85 DE                      sta $DE       ; FRE+4
5826: A9 60                      lda #$60
5828: 85 DF                      sta $DF       ; FRE+5
582A: BD B3 57                   lda $57B3,x   ; L_57B0+3
582D: 29 07                      and #$07
582F: 8D E0 57                   sta $57E0     ; L_57E0
5832: 18                         clc
5833: 69 10                      adc #$10
5835: 8D E1 57                   sta $57E1     ; L_57E0+1
5838: BD BC 57                   lda $57BC,x   ; L_57B8+4
583B: 8E BF 57                   stx $57BF     ; L_57B8+7
583E: AA                         tax
583F: E0 00     L_583F           cpx #$00
5841: F0 11                      beq $5854     ; L_5854
5843: E6 DF                      inc $DF       ; FRE+5
5845: A5 DE                      lda $DE       ; FRE+4
5847: 18                         clc
5848: 69 80                      adc #$80
584A: 85 DE                      sta $DE       ; FRE+4
584C: 90 02                      bcc $5850     ; L_5850
584E: E6 DF                      inc $DF       ; FRE+5
5850: CA        L_5850           dex
5851: 4C 3F 58                   jmp $583F     ; L_583F
5854: AE BF 57  L_5854           ldx $57BF     ; L_57B8+7
5857: A5 DF                      lda $DF       ; FRE+5
5859: 18                         clc
585A: 6D E4 57                   adc $57E4     ; L_57E0+4
585D: 85 DF                      sta $DF       ; FRE+5
585F: A5 DE                      lda $DE       ; FRE+4
5861: 18                         clc
5862: 6D E3 57                   adc $57E3     ; L_57E0+3
5865: 85 DE                      sta $DE       ; FRE+4
5867: 90 02                      bcc $586B     ; L_586B
5869: E6 DF                      inc $DF       ; FRE+5
586B: 8A        L_586B           txa
586C: 18                         clc
586D: 0A                         asl
586E: 0A                         asl
586F: 0A                         asl
5870: 0A                         asl
5871: 0A                         asl
5872: 0A                         asl
5873: 85 DC                      sta $DC       ; FRE+2
5875: A9 8B                      lda #$8B
5877: 85 DD                      sta $DD       ; FRE+3
5879: 8A                         txa
587A: 18                         clc
587B: EA                         nop
587C: 0A                         asl
587D: 0A                         asl
587E: 0A                         asl
587F: 18                         clc
5880: 65 DC                      adc $DC       ; FRE+2
5882: 18                         clc
5883: 69 00                      adc #$00
5885: 85 DC                      sta $DC       ; FRE+2
5887: 90 02                      bcc $588B     ; L_588B
5889: E6 DD                      inc $DD       ; FRE+3
588B: 8E BF 57  L_588B           stx $57BF     ; L_57B8+7
588E: 8C C0 57                   sty $57C0     ; L_57C0
5891: 8A                         txa
5892: 18                         clc
5893: 0A                         asl
5894: 0A                         asl
5895: 0A                         asl
5896: 18                         clc
5897: 6D BF 57                   adc $57BF     ; L_57B8+7
589A: AA                         tax
589B: 18                         clc
589C: 69 09                      adc #$09
589E: 8D C4 57                   sta $57C4     ; L_57C0+4
58A1: A0 00     L_58A1           ldy #$00
58A3: 8C E2 57                   sty $57E2     ; L_57E0+2
58A6: 84 04                      sty $04       ; RAMLO
58A8: A5 DE                      lda $DE       ; FRE+4
58AA: 85 00                      sta $00       ; LNFLG
58AC: A5 DF                      lda $DF       ; FRE+5
58AE: 18                         clc
58AF: 69 32                      adc #$32
58B1: 85 01                      sta $01       ; NGFLAG
58B3: BD C5 57  L_58B3           lda $57C5,x   ; L_57C0+5
58B6: 29 7F                      and #$7F
58B8: 29 E0                      and #$E0
58BA: 4A                         lsr
58BB: 4A                         lsr
58BC: 4A                         lsr
58BD: 4A                         lsr
58BE: 4A                         lsr
58BF: 18                         clc
58C0: 69 88                      adc #$88
58C2: 85 03                      sta $03       ; CASINI+1
58C4: BD C5 57                   lda $57C5,x   ; L_57C0+5
58C7: 29 7F                      and #$7F
58C9: 29 1F                      and #$1F
58CB: 0A                         asl
58CC: 0A                         asl
58CD: 0A                         asl
58CE: 85 02                      sta $02       ; CASINI
58D0: AD E2 57  L_58D0           lda $57E2     ; L_57E0+2
58D3: CD E0 57                   cmp $57E0     ; L_57E0
58D6: F0 18                      beq $58F0     ; L_58F0
58D8: B0 11                      bcs $58EB     ; L_58EB
58DA: 8C C0 57  L_58DA           sty $57C0     ; L_57C0
58DD: 98                         tya
58DE: 29 07                      and #$07
58E0: A8                         tay
58E1: B1 02                      lda ($02),y   ; CASINI
58E3: AC C0 57                   ldy $57C0     ; L_57C0
58E6: 91 DC                      sta ($DC),y   ; FRE+2
58E8: 4C 12 59                   jmp $5912     ; L_5912
58EB: CD E1 57  L_58EB           cmp $57E1     ; L_57E0+1
58EE: B0 EA                      bcs $58DA     ; L_58DA
58F0: 8C C0 57  L_58F0           sty $57C0     ; L_57C0
58F3: 98                         tya
58F4: 29 07                      and #$07
58F6: A8                         tay
58F7: B1 02                      lda ($02),y   ; CASINI
58F9: A0 00                      ldy #$00
58FB: 31 00                      and ($00),y   ; LNFLG
58FD: 11 DE                      ora ($DE),y   ; FRE+4
58FF: AC C0 57                   ldy $57C0     ; L_57C0
5902: 91 DC                      sta ($DC),y   ; FRE+2
5904: A5 DE                      lda $DE       ; FRE+4
5906: C9 FF                      cmp #$FF
5908: D0 04                      bne $590E     ; L_590E
590A: E6 DF                      inc $DF       ; FRE+5
590C: E6 01                      inc $01       ; NGFLAG
590E: E6 DE     L_590E           inc $DE       ; FRE+4
5910: E6 00                      inc $00       ; LNFLG
5912: C8        L_5912           iny
5913: EE E2 57                   inc $57E2     ; L_57E0+2
5916: C0 18                      cpy #$18
5918: D0 04                      bne $591E     ; L_591E
591A: E8                         inx
591B: 4C 27 59                   jmp $5927     ; L_5927
591E: 98        L_591E           tya
591F: 29 07                      and #$07
5921: D0 AD                      bne $58D0     ; L_58D0
5923: E8                         inx
5924: 4C B3 58                   jmp $58B3     ; L_58B3
5927: A5 DC     L_5927           lda $DC       ; FRE+2
5929: 18                         clc
592A: 69 18                      adc #$18
592C: 85 DC                      sta $DC       ; FRE+2
592E: 90 02                      bcc $5932     ; L_5932
5930: E6 DD                      inc $DD       ; FRE+3
5932: EC C4 57  L_5932           cpx $57C4     ; L_57C0+4
5935: F0 03                      beq $593A     ; L_593A
5937: 4C A1 58                   jmp $58A1     ; L_58A1
593A: AE BF 57  L_593A           ldx $57BF     ; L_57B8+7
593D: AC C0 57                   ldy $57C0     ; L_57C0
5940: 60                         rts
5941: AD C1 57  L_5941           lda $57C1     ; L_57C0+1
5944: 29 FC                      and #$FC
5946: 4A                         lsr
5947: 4A                         lsr
5948: 8D C1 57                   sta $57C1     ; L_57C0+1
594B: 8D C2 57                   sta $57C2     ; L_57C0+2
594E: AD C0 57                   lda $57C0     ; L_57C0
5951: 29 F8                      and #$F8
5953: 4A                         lsr
5954: 4A                         lsr
5955: 4A                         lsr
5956: 8D C0 57                   sta $57C0     ; L_57C0
5959: 8D C3 57                   sta $57C3     ; L_57C0+3
595C: 29 F8                      and #$F8
595E: 4A                         lsr
595F: 4A                         lsr
5960: 4A                         lsr
5961: 85 DD                      sta $DD       ; FRE+3
5963: AD C0 57                   lda $57C0     ; L_57C0
5966: 18                         clc
5967: 0A                         asl
5968: 0A                         asl
5969: 0A                         asl
596A: 0A                         asl
596B: 0A                         asl
596C: 85 DC                      sta $DC       ; FRE+2
596E: AD C0 57                   lda $57C0     ; L_57C0
5971: 29 E0                      and #$E0
5973: 4A                         lsr
5974: 4A                         lsr
5975: 4A                         lsr
5976: 4A                         lsr
5977: 4A                         lsr
5978: 85 DF                      sta $DF       ; FRE+5
597A: AD C0 57                   lda $57C0     ; L_57C0
597D: 18                         clc
597E: 0A                         asl
597F: 0A                         asl
5980: 0A                         asl
5981: 85 DE                      sta $DE       ; FRE+4
5983: A5 DD                      lda $DD       ; FRE+3
5985: 18                         clc
5986: 65 DF                      adc $DF       ; FRE+5
5988: 85 DD                      sta $DD       ; FRE+3
598A: A5 DC                      lda $DC       ; FRE+2
598C: 18                         clc
598D: 65 DE                      adc $DE       ; FRE+4
598F: 85 DC                      sta $DC       ; FRE+2
5991: 90 02                      bcc $5995     ; L_5995
5993: E6 DD                      inc $DD       ; FRE+3
5995: A5 DD     L_5995           lda $DD       ; FRE+3
5997: 18                         clc
5998: 69 9A                      adc #$9A
599A: 85 DD                      sta $DD       ; FRE+3
599C: A5 DC                      lda $DC       ; FRE+2
599E: 18                         clc
599F: 6D C1 57                   adc $57C1     ; L_57C0+1
59A2: 85 DC                      sta $DC       ; FRE+2
59A4: 90 02                      bcc $59A8     ; L_59A8
59A6: E6 DD                      inc $DD       ; FRE+3
59A8: A5 DC     L_59A8           lda $DC       ; FRE+2
59AA: 18                         clc
59AB: 69 8A                      adc #$8A
59AD: 85 DC                      sta $DC       ; FRE+2
59AF: 90 02                      bcc $59B3     ; L_59B3
59B1: E6 DD                      inc $DD       ; FRE+3
59B3: 8E BF 57  L_59B3           stx $57BF     ; L_57B8+7
59B6: 8A                         txa
59B7: 18                         clc
59B8: 0A                         asl
59B9: 0A                         asl
59BA: 0A                         asl
59BB: 18                         clc
59BC: 6D BF 57                   adc $57BF     ; L_57B8+7
59BF: AA                         tax
59C0: 18                         clc
59C1: 69 09                      adc #$09
59C3: 8D C4 57                   sta $57C4     ; L_57C0+4
59C6: 60                         rts
59C7: AE E8 57                   ldx $57E8     ; L_57E8
59CA: AD 25 3C                   lda $3C25     ; TIMER_MAYBE
59CD: EA                         nop
59CE: EA                         nop
59CF: BD B6 57                   lda $57B6,x   ; L_57B0+6
59D2: 8D C1 57                   sta $57C1     ; L_57C0+1
59D5: BD B9 57                   lda $57B9,x   ; L_57B8+1
59D8: 8D C0 57                   sta $57C0     ; L_57C0
59DB: 20 16 5B                   jsr $5B16     ; L_5B16
59DE: 20 41 59                   jsr $5941     ; L_5941
59E1: AD C4 57                   lda $57C4     ; L_57C0+4
59E4: 38                         sec
59E5: ED EA 57                   sbc $57EA     ; L_57E8+2
59E8: 8D EA 57                   sta $57EA     ; L_57E8+2
59EB: A9 00                      lda #$00
59ED: 85 DF                      sta $DF       ; FRE+5
59EF: A9 00     L_59EF           lda #$00
59F1: 85 DE                      sta $DE       ; FRE+4
59F3: A4 DF                      ldy $DF       ; FRE+5
59F5: AD C2 57  L_59F5           lda $57C2     ; L_57C0+2
59F8: C9 06                      cmp #$06
59FA: 90 14                      bcc $5A10     ; L_5A10
59FC: C9 20                      cmp #$20
59FE: B0 10                      bcs $5A10     ; L_5A10
5A00: AD C3 57                   lda $57C3     ; L_57C0+3
5A03: C9 03                      cmp #$03
5A05: 90 09                      bcc $5A10     ; L_5A10
5A07: C9 1E                      cmp #$1E
5A09: B0 05                      bcs $5A10     ; L_5A10
5A0B: BD C5 57                   lda $57C5,x   ; L_57C0+5
5A0E: 91 DC                      sta ($DC),y   ; FRE+2
5A10: EE C3 57  L_5A10           inc $57C3     ; L_57C0+3
5A13: E8                         inx
5A14: 98                         tya
5A15: 18                         clc
5A16: 69 28                      adc #$28
5A18: A8                         tay
5A19: E6 DE                      inc $DE       ; FRE+4
5A1B: A5 DE                      lda $DE       ; FRE+4
5A1D: CD E9 57                   cmp $57E9     ; L_57E8+1
5A20: D0 D3                      bne $59F5     ; L_59F5
5A22: AD E9 57                   lda $57E9     ; L_57E8+1
5A25: C9 02                      cmp #$02
5A27: D0 01                      bne $5A2A     ; L_5A2A
5A29: E8                         inx
5A2A: AD C3 57  L_5A2A           lda $57C3     ; L_57C0+3
5A2D: 38                         sec
5A2E: ED E9 57                   sbc $57E9     ; L_57E8+1
5A31: 8D C3 57                   sta $57C3     ; L_57C0+3
5A34: EE C2 57                   inc $57C2     ; L_57C0+2
5A37: E6 DF                      inc $DF       ; FRE+5
5A39: EC EA 57                   cpx $57EA     ; L_57E8+2
5A3C: D0 B1                      bne $59EF     ; L_59EF
5A3E: AE BF 57                   ldx $57BF     ; L_57B8+7
5A41: BD B0 57                   lda $57B0,x   ; L_57B0
5A44: 9D B6 57                   sta $57B6,x   ; L_57B0+6
5A47: 8D C1 57                   sta $57C1     ; L_57C0+1
5A4A: BD B3 57                   lda $57B3,x   ; L_57B0+3
5A4D: 9D B9 57                   sta $57B9,x   ; L_57B8+1
5A50: 8D C0 57                   sta $57C0     ; L_57C0
5A53: 20 33 5B                   jsr $5B33     ; L_5B33
5A56: 20 41 59                   jsr $5941     ; L_5941
5A59: AD C4 57                   lda $57C4     ; L_57C0+4
5A5C: 38                         sec
5A5D: ED EA 57                   sbc $57EA     ; L_57E8+2
5A60: 8D EA 57                   sta $57EA     ; L_57E8+2
5A63: 8E C1 57                   stx $57C1     ; L_57C0+1
5A66: A9 00                      lda #$00
5A68: 85 DF                      sta $DF       ; FRE+5
5A6A: A9 00     L_5A6A           lda #$00
5A6C: 85 DE                      sta $DE       ; FRE+4
5A6E: A4 DF                      ldy $DF       ; FRE+5
5A70: B1 DC     L_5A70           lda ($DC),y   ; FRE+2
5A72: 9D C5 57                   sta $57C5,x   ; L_57C0+5
5A75: E8                         inx
5A76: 98                         tya
5A77: 18                         clc
5A78: 69 28                      adc #$28
5A7A: A8                         tay
5A7B: E6 DE                      inc $DE       ; FRE+4
5A7D: A5 DE                      lda $DE       ; FRE+4
5A7F: CD E9 57                   cmp $57E9     ; L_57E8+1
5A82: D0 EC                      bne $5A70     ; L_5A70
5A84: AD E9 57                   lda $57E9     ; L_57E8+1
5A87: C9 02                      cmp #$02
5A89: D0 01                      bne $5A8C     ; L_5A8C
5A8B: E8                         inx
5A8C: E6 DF     L_5A8C           inc $DF       ; FRE+5
5A8E: EC EA 57                   cpx $57EA     ; L_57E8+2
5A91: D0 D7                      bne $5A6A     ; L_5A6A
5A93: 8A                         txa
5A94: 38                         sec
5A95: E9 09                      sbc #$09
5A97: 18                         clc
5A98: 6D EB 57                   adc $57EB     ; L_57E8+3
5A9B: AA                         tax
5A9C: A9 00                      lda #$00
5A9E: 85 DF                      sta $DF       ; FRE+5
5AA0: A9 00     L_5AA0           lda #$00
5AA2: 85 DE                      sta $DE       ; FRE+4
5AA4: A4 DF                      ldy $DF       ; FRE+5
5AA6: AD C2 57  L_5AA6           lda $57C2     ; L_57C0+2
5AA9: C9 06                      cmp #$06
5AAB: 90 21                      bcc $5ACE     ; L_5ACE
5AAD: C9 20                      cmp #$20
5AAF: B0 1D                      bcs $5ACE     ; L_5ACE
5AB1: AD C3 57                   lda $57C3     ; L_57C0+3
5AB4: C9 03                      cmp #$03
5AB6: 90 16                      bcc $5ACE     ; L_5ACE
5AB8: C9 1E                      cmp #$1E
5ABA: B0 12                      bcs $5ACE     ; L_5ACE
5ABC: BD C5 57                   lda $57C5,x   ; L_57C0+5
5ABF: 29 80                      and #$80
5AC1: 85 04                      sta $04       ; RAMLO
5AC3: AD C1 57                   lda $57C1     ; L_57C0+1
5AC6: 18                         clc
5AC7: 69 60                      adc #$60
5AC9: 18                         clc
5ACA: 65 04                      adc $04       ; RAMLO
5ACC: 91 DC                      sta ($DC),y   ; FRE+2
5ACE: EE C3 57  L_5ACE           inc $57C3     ; L_57C0+3
5AD1: 98                         tya
5AD2: 18                         clc
5AD3: 69 28                      adc #$28
5AD5: A8                         tay
5AD6: E8                         inx
5AD7: EE C1 57                   inc $57C1     ; L_57C0+1
5ADA: E6 DE                      inc $DE       ; FRE+4
5ADC: A5 DE                      lda $DE       ; FRE+4
5ADE: CD E9 57                   cmp $57E9     ; L_57E8+1
5AE1: D0 C3                      bne $5AA6     ; L_5AA6
5AE3: AD E9 57                   lda $57E9     ; L_57E8+1
5AE6: C9 02                      cmp #$02
5AE8: D0 04                      bne $5AEE     ; L_5AEE
5AEA: EE C1 57                   inc $57C1     ; L_57C0+1
5AED: E8                         inx
5AEE: AD C3 57  L_5AEE           lda $57C3     ; L_57C0+3
5AF1: 38                         sec
5AF2: ED E9 57                   sbc $57E9     ; L_57E8+1
5AF5: 8D C3 57                   sta $57C3     ; L_57C0+3
5AF8: EE C2 57                   inc $57C2     ; L_57C0+2
5AFB: E6 DF                      inc $DF       ; FRE+5
5AFD: EC EA 57                   cpx $57EA     ; L_57E8+2
5B00: D0 9E                      bne $5AA0     ; L_5AA0
5B02: AE BF 57                   ldx $57BF     ; L_57B8+7
5B05: 20 EC 57                   jsr $57EC     ; L_57EC
5B08: AE E8 57                   ldx $57E8     ; L_57E8
5B0B: E0 02                      cpx #$02
5B0D: D0 02                      bne $5B11     ; L_5B11
5B0F: A2 FF                      ldx #$FF
5B11: E8        L_5B11           inx
5B12: 8E E8 57                   stx $57E8     ; L_57E8
5B15: 60                         rts
5B16: BD B6 57  L_5B16           lda $57B6,x   ; L_57B0+6
5B19: 8D EB 57                   sta $57EB     ; L_57E8+3
5B1C: BD B9 57                   lda $57B9,x   ; L_57B8+1
5B1F: 29 07     L_5B1F           and #$07
5B21: D0 08                      bne $5B2B     ; L_5B2B
5B23: A9 02                      lda #$02
5B25: 8D E9 57                   sta $57E9     ; L_57E8+1
5B28: 4C 3F 5B                   jmp $5B3F     ; L_5B3F
5B2B: A9 03     L_5B2B           lda #$03
5B2D: 8D E9 57                   sta $57E9     ; L_57E8+1
5B30: 4C 3F 5B                   jmp $5B3F     ; L_5B3F
5B33: BD B0 57  L_5B33           lda $57B0,x   ; L_57B0
5B36: 8D EB 57                   sta $57EB     ; L_57E8+3
5B39: BD B3 57                   lda $57B3,x   ; L_57B0+3
5B3C: 4C 1F 5B                   jmp $5B1F     ; L_5B1F
5B3F: AD EB 57  L_5B3F           lda $57EB     ; L_57E8+3
5B42: 29 03                      and #$03
5B44: D0 09                      bne $5B4F     ; L_5B4F
5B46: A9 03                      lda #$03
5B48: 8D EA 57                   sta $57EA     ; L_57E8+2
5B4B: 8D EB 57                   sta $57EB     ; L_57E8+3
5B4E: 60                         rts
5B4F: A9 00     L_5B4F           lda #$00
5B51: 8D EA 57                   sta $57EA     ; L_57E8+2
5B54: 8D EB 57                   sta $57EB     ; L_57E8+3
5B57: 60                         rts
5B58: 00                         BYTE $00 $00 $00 $00 $00 $00 $00 $00
5B60: 00                         BYTE $00 $00 $00 $00 $00 $00 $00 $00
5B68: 00                         BYTE $00 $00 $00 $00 $00 $00 $00 $00
5B70: 00                         BYTE $00 $00 $00 $00 $00 $00 $00 $00
5B78: 00                         BYTE $00 $00 $00 $00 $00 $00 $00 $00
5B80: 00                         BYTE $00 $00 $00 $00 $00 $00 $00 $00
5B88: 00                         BYTE $00 $00 $00 $00 $00 $00 $00 $00
5B90: 00                         BYTE $00 $00 $00 $00 $00 $00 $00 $00
5B98: 00                         BYTE $00 $00 $00 $00 $00 $00 $00 $00
5BA0: B1 DE                      lda ($DE),y   ; FRE+4
5BA2: C9 49                      cmp #$49
5BA4: 10 03                      bpl $5BA9     ; L_5BA9
5BA6: C9 37     L_5BA6           cmp #$37
5BA8: 60                         rts
5BA9: C9 4F     L_5BA9           cmp #$4F
5BAB: 10 F9                      bpl $5BA6     ; L_5BA6
5BAD: 8E C4 5B                   stx $5BC4     ; L_5BC4
5BB0: 8D C5 5B                   sta $5BC5     ; L_5BC4+1
5BB3: AE E8 57                   ldx $57E8     ; L_57E8
5BB6: A9 06                      lda #$06
5BB8: 9D 69 5C                   sta $5C69,x   ; L_5C64+5
5BBB: AD C5 5B                   lda $5BC5     ; L_5BC4+1
5BBE: AE C4 5B                   ldx $5BC4     ; L_5BC4
5BC1: 4C A6 5B                   jmp $5BA6     ; L_5BA6
5BC4: 00        L_5BC4           BYTE $00 $00 $00 $00 $00 $00 $00 $00
5BCC: 00                         BYTE $00 $00 $00 $00 $00 $00 $00 $00
5BD4: 00                         BYTE $00 $00 $00 $00 $00 $00 $00 $00
5BDC: 00                         BYTE $00 $00 $00 $00 $00 $00 $00 $00
5BE4: 00                         BYTE $00 $00 $00 $00 $00 $00 $00 $00
5BEC: 00                         BYTE $00 $00 $00 $00 $00 $00 $00 $00
5BF4: 00                         BYTE $00 $00 $00 $00 $00 $00 $00 $00
5BFC: 00        L_5BFC           BYTE $00 $00 $00 $00 $05 $15 $2A $00
5C04: 00                         BYTE $00 $2A $2A $0A $00 $14 $28 $00
5C0C: 00                         BYTE $00 $28 $28 $28 $50 $54 $A8 $00
5C14: 00                         BYTE $00 $A8 $A8 $A0 $05 $2A $00 $00
5C1C: 00                         BYTE $00 $00 $2A $0A $00 $28 $00 $00
5C24: 00                         BYTE $00 $00 $2A $0A $50 $A8 $00 $00
5C2C: 00                         BYTE $00 $00 $A8 $A0 $2A $00 $00 $00
5C34: 00                         BYTE $00 $00 $00 $2A $00 $00 $00 $00
5C3C: 00                         BYTE $00 $00 $00 $28 $A8 $00 $00 $00
5C44: 00                         BYTE $00 $00 $00 $A8 $00 $00 $00 $00
5C4C: 00                         BYTE $00 $00 $00 $00 $00 $00 $00 $00
5C54: 00                         BYTE $00 $00 $00 $00 $00 $00 $00 $00
5C5C: 00        L_5C5C           BYTE $00 $00 $00 $00 $FF $FF $FF $00
5C64: 00        L_5C64           BYTE $00 $00 $00 $00 $00 $00 $00 $00
5C6C: 00        L_5C6C           BYTE $00 $00 $00 $02 $00
5C71: A2 00                      ldx #$00
5C73: AD 70 5C                   lda $5C70     ; L_5C6C+4
5C76: F0 05                      beq $5C7D     ; L_5C7D
5C78: AA                         tax
5C79: CA                         dex
5C7A: 4C A3 5C                   jmp $5CA3     ; L_5CA3
5C7D: BD 63 5C  L_5C7D           lda $5C63,x   ; L_5C5C+7
5C80: F0 11                      beq $5C93     ; L_5C93
5C82: BD 60 5C                   lda $5C60,x   ; L_5C5C+4
5C85: D0 03                      bne $5C8A     ; L_5C8A
5C87: DE 63 5C                   dec $5C63,x   ; L_5C5C+7
5C8A: DE 60 5C  L_5C8A           dec $5C60,x   ; L_5C5C+4
5C8D: E8        L_5C8D           inx
5C8E: E0 03                      cpx #$03
5C90: D0 EB                      bne $5C7D     ; L_5C7D
5C92: 60                         rts
5C93: BD 69 5C  L_5C93           lda $5C69,x   ; L_5C64+5
5C96: C9 05                      cmp #$05
5C98: F0 F3                      beq $5C8D     ; L_5C8D
5C9A: C9 06                      cmp #$06
5C9C: F0 EF                      beq $5C8D     ; L_5C8D
5C9E: E8                         inx
5C9F: 8E 70 5C                   stx $5C70     ; L_5C6C+4
5CA2: CA                         dex
5CA3: BD 69 5C  L_5CA3           lda $5C69,x   ; L_5C64+5
5CA6: C9 04                      cmp #$04
5CA8: D0 03                      bne $5CAD     ; L_5CAD
5CAA: 4C 60 5D                   jmp $5D60     ; L_5D60
5CAD: C9 03     L_5CAD           cmp #$03
5CAF: D0 03                      bne $5CB4     ; L_5CB4
5CB1: 4C 39 5D                   jmp $5D39     ; L_5D39
5CB4: C9 02     L_5CB4           cmp #$02
5CB6: D0 03                      bne $5CBB     ; L_5CBB
5CB8: 4C 39 5D                   jmp $5D39     ; L_5D39
5CBB: BD 66 5C  L_5CBB           lda $5C66,x   ; L_5C64+2
5CBE: C9 06                      cmp #$06
5CC0: B0 04                      bcs $5CC6     ; L_5CC6
5CC2: FE 66 5C                   inc $5C66,x   ; L_5C64+2
5CC5: 60                         rts
5CC6: A9 00     L_5CC6           lda #$00
5CC8: 9D 66 5C                   sta $5C66,x   ; L_5C64+2
5CCB: AD 6F 5C                   lda $5C6F     ; L_5C6C+3
5CCE: D0 0A                      bne $5CDA     ; L_5CDA
5CD0: AD 0B D4  L_5CD0           lda $D40B     ; VCOUNT
5CD3: 29 03                      and #$03
5CD5: F0 F9                      beq $5CD0     ; L_5CD0
5CD7: 8D 6F 5C                   sta $5C6F     ; L_5C6C+3
5CDA: BD 6C 5C  L_5CDA           lda $5C6C,x   ; L_5C6C
5CDD: C9 04                      cmp #$04
5CDF: D0 20                      bne $5D01     ; L_5D01
5CE1: FE 69 5C                   inc $5C69,x   ; L_5C64+5
5CE4: AD 6F 5C                   lda $5C6F     ; L_5C6C+3
5CE7: C9 02                      cmp #$02
5CE9: F0 0B                      beq $5CF6     ; L_5CF6
5CEB: A9 32                      lda #$32
5CED: 9D B0 57                   sta $57B0,x   ; L_57B0
5CF0: A9 00                      lda #$00
5CF2: 9D B3 57                   sta $57B3,x   ; L_57B0+3
5CF5: 60                         rts
5CF6: A9 62     L_5CF6           lda #$62
5CF8: 9D B0 57                   sta $57B0,x   ; L_57B0
5CFB: A9 00                      lda #$00
5CFD: 9D B3 57                   sta $57B3,x   ; L_57B0+3
5D00: 60                         rts
5D01: 18        L_5D01           clc
5D02: 0A                         asl
5D03: 0A                         asl
5D04: 0A                         asl
5D05: 0A                         asl
5D06: 85 DE                      sta $DE       ; FRE+4
5D08: BD 6C 5C                   lda $5C6C,x   ; L_5C6C
5D0B: 18                         clc
5D0C: 0A                         asl
5D0D: 0A                         asl
5D0E: 0A                         asl
5D0F: 18                         clc
5D10: 65 DE                      adc $DE       ; FRE+4
5D12: 86 DE                      stx $DE       ; FRE+4
5D14: AA                         tax
5D15: A0 90                      ldy #$90
5D17: AD 6F 5C                   lda $5C6F     ; L_5C6C+3
5D1A: C9 02                      cmp #$02
5D1C: D0 02                      bne $5D20     ; L_5D20
5D1E: A0 A8                      ldy #$A8
5D20: A9 89     L_5D20           lda #$89
5D22: 84 DC                      sty $DC       ; FRE+2
5D24: 85 DD                      sta $DD       ; FRE+3
5D26: A0 00                      ldy #$00
5D28: BD 00 5C  L_5D28           lda $5C00,x   ; L_5BFC+4
5D2B: 91 DC                      sta ($DC),y   ; FRE+2
5D2D: C8                         iny
5D2E: E8                         inx
5D2F: C0 18                      cpy #$18
5D31: D0 F5                      bne $5D28     ; L_5D28
5D33: A6 DE                      ldx $DE       ; FRE+4
5D35: FE 6C 5C                   inc $5C6C,x   ; L_5C6C
5D38: 60                         rts
5D39: BD B3 57  L_5D39           lda $57B3,x   ; L_57B0+3
5D3C: C9 10                      cmp #$10
5D3E: D0 04                      bne $5D44     ; L_5D44
5D40: FE 69 5C                   inc $5C69,x   ; L_5C64+5
5D43: 60                         rts
5D44: AD FF 7F  L_5D44           lda $7FFF     ; L_7FFA+5
5D47: D0 16                      bne $5D5F     ; L_5D5F
5D49: AC E8 57                   ldy $57E8     ; L_57E8
5D4C: C0 02                      cpy #$02
5D4E: D0 05                      bne $5D55     ; L_5D55
5D50: A0 00                      ldy #$00
5D52: 4C 56 5D                   jmp $5D56     ; L_5D56
5D55: C8        L_5D55           iny
5D56: 84 DE     L_5D56           sty $DE       ; FRE+4
5D58: E4 DE                      cpx $DE       ; FRE+4
5D5A: D0 03                      bne $5D5F     ; L_5D5F
5D5C: FE B3 57                   inc $57B3,x   ; L_57B0+3
5D5F: 60        L_5D5F           rts
5D60: BD 66 5C  L_5D60           lda $5C66,x   ; L_5C64+2
5D63: C9 06                      cmp #$06
5D65: B0 04                      bcs $5D6B     ; L_5D6B
5D67: FE 66 5C                   inc $5C66,x   ; L_5C64+2
5D6A: 60                         rts
5D6B: A9 00     L_5D6B           lda #$00
5D6D: 9D 66 5C                   sta $5C66,x   ; L_5C64+2
5D70: DE 6C 5C                   dec $5C6C,x   ; L_5C6C
5D73: BD 6C 5C                   lda $5C6C,x   ; L_5C6C
5D76: 18                         clc
5D77: 0A                         asl
5D78: 0A                         asl
5D79: 0A                         asl
5D7A: 0A                         asl
5D7B: 85 DE                      sta $DE       ; FRE+4
5D7D: BD 6C 5C                   lda $5C6C,x   ; L_5C6C
5D80: C9 FF                      cmp #$FF
5D82: D0 0F                      bne $5D93     ; L_5D93
5D84: FE 69 5C                   inc $5C69,x   ; L_5C64+5
5D87: FE 6C 5C                   inc $5C6C,x   ; L_5C6C
5D8A: A9 00                      lda #$00
5D8C: 8D 6F 5C                   sta $5C6F     ; L_5C6C+3
5D8F: 8D 70 5C                   sta $5C70     ; L_5C6C+4
5D92: 60                         rts
5D93: 18        L_5D93           clc
5D94: 0A                         asl
5D95: 0A                         asl
5D96: 0A                         asl
5D97: 18                         clc
5D98: 65 DE                      adc $DE       ; FRE+4
5D9A: 86 DE                      stx $DE       ; FRE+4
5D9C: AA                         tax
5D9D: A0 90                      ldy #$90
5D9F: AD 6F 5C                   lda $5C6F     ; L_5C6C+3
5DA2: C9 02                      cmp #$02
5DA4: D0 02                      bne $5DA8     ; L_5DA8
5DA6: A0 A8                      ldy #$A8
5DA8: A9 89     L_5DA8           lda #$89
5DAA: 84 DC                      sty $DC       ; FRE+2
5DAC: 85 DD                      sta $DD       ; FRE+3
5DAE: A0 00                      ldy #$00
5DB0: BD 00 5C  L_5DB0           lda $5C00,x   ; L_5BFC+4
5DB3: 91 DC                      sta ($DC),y   ; FRE+2
5DB5: C8                         iny
5DB6: E8                         inx
5DB7: C0 18                      cpy #$18
5DB9: D0 F5                      bne $5DB0     ; L_5DB0
5DBB: A6 DE                      ldx $DE       ; FRE+4
5DBD: 60                         rts
5DBE: 00                         BYTE $00 $00 $00 $00 $00 $00 $00 $00
5DC6: 00                         BYTE $00 $00 $00 $00 $00 $00 $00 $00
5DCE: 00        L_5DCE           BYTE $00 $00 $07 $04 $5B $9B $04 $04
5DD6: 04        L_5DD6           BYTE $04 $00 $00 $00 $03 $02 $00 $00
5DDE: 00        L_5DDE           BYTE $00 $00 $00 $00 $00 $00 $00
5DE5: AE E8 57                   ldx $57E8     ; L_57E8
5DE8: BD 69 5C                   lda $5C69,x   ; L_5C64+5
5DEB: C9 04                      cmp #$04
5DED: F0 0C                      beq $5DFB     ; L_5DFB
5DEF: C9 05                      cmp #$05
5DF1: F0 08                      beq $5DFB     ; L_5DFB
5DF3: C9 06                      cmp #$06
5DF5: D0 03                      bne $5DFA     ; L_5DFA
5DF7: 20 B1 3D                   jsr $3DB1     ; L_3DB1
5DFA: 60        L_5DFA           rts
5DFB: BD B3 57  L_5DFB           lda $57B3,x   ; L_57B0+3
5DFE: C9 E0                      cmp #$E0
5E00: 90 03                      bcc $5E05     ; L_5E05
5E02: 4C 77 3F                   jmp $3F77     ; L_3F77
5E05: 38        L_5E05           sec
5E06: E9 08                      sbc #$08
5E08: 29 F8                      and #$F8
5E0A: 4A                         lsr
5E0B: 4A                         lsr
5E0C: 4A                         lsr
5E0D: 8D D1 5D                   sta $5DD1     ; L_5DCE+3
5E10: BD B0 57                   lda $57B0,x   ; L_57B0
5E13: 38                         sec
5E14: E9 10                      sbc #$10
5E16: 29 FC                      and #$FC
5E18: 4A                         lsr
5E19: 4A                         lsr
5E1A: 8D D0 5D                   sta $5DD0     ; L_5DCE+2
5E1D: AD D1 5D                   lda $5DD1     ; L_5DCE+3
5E20: 29 F8                      and #$F8
5E22: 4A                         lsr
5E23: 4A                         lsr
5E24: 4A                         lsr
5E25: 8D D3 5D                   sta $5DD3     ; L_5DCE+5
5E28: AD D1 5D                   lda $5DD1     ; L_5DCE+3
5E2B: 29 0F                      and #$0F
5E2D: 18                         clc
5E2E: 0A                         asl
5E2F: 0A                         asl
5E30: 0A                         asl
5E31: 0A                         asl
5E32: 0A                         asl
5E33: 8D D2 5D                   sta $5DD2     ; L_5DCE+4
5E36: AD D1 5D                   lda $5DD1     ; L_5DCE+3
5E39: 29 E0                      and #$E0
5E3B: 4A                         lsr
5E3C: 4A                         lsr
5E3D: 4A                         lsr
5E3E: 4A                         lsr
5E3F: 4A                         lsr
5E40: 18                         clc
5E41: 6D D3 5D                   adc $5DD3     ; L_5DCE+5
5E44: 8D D3 5D                   sta $5DD3     ; L_5DCE+5
5E47: AD D1 5D                   lda $5DD1     ; L_5DCE+3
5E4A: 29 1F                      and #$1F
5E4C: 18                         clc
5E4D: 0A                         asl
5E4E: 0A                         asl
5E4F: 0A                         asl
5E50: 18                         clc
5E51: 6D D2 5D                   adc $5DD2     ; L_5DCE+4
5E54: 8D D2 5D                   sta $5DD2     ; L_5DCE+4
5E57: 90 03                      bcc $5E5C     ; L_5E5C
5E59: EE D3 5D                   inc $5DD3     ; L_5DCE+5
5E5C: AD D3 5D  L_5E5C           lda $5DD3     ; L_5DCE+5
5E5F: 18                         clc
5E60: 69 9A                      adc #$9A
5E62: 8D D3 5D                   sta $5DD3     ; L_5DCE+5
5E65: AD D2 5D                   lda $5DD2     ; L_5DCE+4
5E68: 18                         clc
5E69: 69 B4                      adc #$B4
5E6B: 8D D2 5D                   sta $5DD2     ; L_5DCE+4
5E6E: 90 03                      bcc $5E73     ; L_5E73
5E70: EE D3 5D                   inc $5DD3     ; L_5DCE+5
5E73: AD D2 5D  L_5E73           lda $5DD2     ; L_5DCE+4
5E76: 18                         clc
5E77: 6D D0 5D                   adc $5DD0     ; L_5DCE+2
5E7A: 8D D2 5D                   sta $5DD2     ; L_5DCE+4
5E7D: 90 03                      bcc $5E82     ; L_5E82
5E7F: EE D3 5D                   inc $5DD3     ; L_5DCE+5
5E82: A0 03     L_5E82           ldy #$03
5E84: BD B3 57                   lda $57B3,x   ; L_57B0+3
5E87: 29 07                      and #$07
5E89: D0 01                      bne $5E8C     ; L_5E8C
5E8B: 88                         dey
5E8C: 8C DB 5D  L_5E8C           sty $5DDB     ; L_5DD6+5
5E8F: A0 03                      ldy #$03
5E91: BD B0 57                   lda $57B0,x   ; L_57B0
5E94: 29 03                      and #$03
5E96: D0 01                      bne $5E99     ; L_5E99
5E98: 88                         dey
5E99: 8C DA 5D  L_5E99           sty $5DDA     ; L_5DD6+4
5E9C: BD DF 5D                   lda $5DDF,x   ; L_5DDE+1
5E9F: F0 06                      beq $5EA7     ; L_5EA7
5EA1: DE DF 5D                   dec $5DDF,x   ; L_5DDE+1
5EA4: 4C E5 5E                   jmp $5EE5     ; L_5EE5
5EA7: BD E2 5D  L_5EA7           lda $5DE2,x   ; L_5DDE+4
5EAA: F0 06                      beq $5EB2     ; L_5EB2
5EAC: DE E2 5D                   dec $5DE2,x   ; L_5DDE+4
5EAF: 4C E5 5E                   jmp $5EE5     ; L_5EE5
5EB2: BD B3 57  L_5EB2           lda $57B3,x   ; L_57B0+3
5EB5: C9 58                      cmp #$58
5EB7: 90 2C                      bcc $5EE5     ; L_5EE5
5EB9: AD 0B D4                   lda $D40B     ; VCOUNT
5EBC: 29 1F                      and #$1F
5EBE: C9 14                      cmp #$14
5EC0: 30 23                      bmi $5EE5     ; L_5EE5
5EC2: C9 16                      cmp #$16
5EC4: 10 1F                      bpl $5EE5     ; L_5EE5
5EC6: BD B0 57                   lda $57B0,x   ; L_57B0
5EC9: 29 03                      and #$03
5ECB: D0 18                      bne $5EE5     ; L_5EE5
5ECD: AD 0B D4  L_5ECD           lda $D40B     ; VCOUNT
5ED0: 29 07                      and #$07
5ED2: F0 F9                      beq $5ECD     ; L_5ECD
5ED4: 18                         clc
5ED5: 0A                         asl
5ED6: 0A                         asl
5ED7: 0A                         asl
5ED8: 9D DF 5D                   sta $5DDF,x   ; L_5DDE+1
5EDB: A9 01                      lda #$01
5EDD: 9D D4 5D                   sta $5DD4,x   ; L_5DCE+6
5EE0: A9 A0                      lda #$A0
5EE2: 9D E2 5D                   sta $5DE2,x   ; L_5DDE+4
5EE5: AE E8 57  L_5EE5           ldx $57E8     ; L_57E8
5EE8: BD D4 5D                   lda $5DD4,x   ; L_5DCE+6
5EEB: C9 01                      cmp #$01
5EED: F0 58                      beq $5F47     ; L_5F47
5EEF: BD DC 5D                   lda $5DDC,x   ; L_5DD6+6
5EF2: D0 3C                      bne $5F30     ; L_5F30
5EF4: BD B0 57                   lda $57B0,x   ; L_57B0
5EF7: 29 03                      and #$03
5EF9: D0 35                      bne $5F30     ; L_5F30
5EFB: BD B3 57                   lda $57B3,x   ; L_57B0+3
5EFE: 29 07                      and #$07
5F00: D0 25                      bne $5F27     ; L_5F27
5F02: A0 52                      ldy #$52
5F04: AD D2 5D                   lda $5DD2     ; L_5DCE+4
5F07: 85 DE                      sta $DE       ; FRE+4
5F09: AD D3 5D                   lda $5DD3     ; L_5DCE+5
5F0C: 85 DF                      sta $DF       ; FRE+5
5F0E: A2 00                      ldx #$00
5F10: B1 DE     L_5F10           lda ($DE),y   ; FRE+4
5F12: C9 37                      cmp #$37
5F14: B0 03                      bcs $5F19     ; L_5F19
5F16: 4C 0E 3E  L_5F16           jmp $3E0E     ; L_3E0E
5F19: C9 60     L_5F19           cmp #$60
5F1B: B0 F9                      bcs $5F16     ; L_5F16
5F1D: C8                         iny
5F1E: E8                         inx
5F1F: EC DA 5D                   cpx $5DDA     ; L_5DD6+4
5F22: D0 EC                      bne $5F10     ; L_5F10
5F24: AE E8 57                   ldx $57E8     ; L_57E8
5F27: FE B3 57  L_5F27           inc $57B3,x   ; L_57B0+3
5F2A: FE B3 57                   inc $57B3,x   ; L_57B0+3
5F2D: 4C 4F 3F                   jmp $3F4F     ; L_3F4F
5F30: AE E8 57  L_5F30           ldx $57E8     ; L_57E8
5F33: BD DC 5D                   lda $5DDC,x   ; L_5DD6+6
5F36: F0 03                      beq $5F3B     ; L_5F3B
5F38: DE DC 5D                   dec $5DDC,x   ; L_5DD6+6
5F3B: BD D4 5D  L_5F3B           lda $5DD4,x   ; L_5DCE+6
5F3E: C9 02                      cmp #$02
5F40: F0 41                      beq $5F83     ; L_5F83
5F42: C9 04                      cmp #$04
5F44: F0 04                      beq $5F4A     ; L_5F4A
5F46: 60                         rts
5F47: 4C 73 3E  L_5F47           jmp $3E73     ; L_3E73
5F4A: AE E8 57  L_5F4A           ldx $57E8     ; L_57E8
5F4D: BD B0 57                   lda $57B0,x   ; L_57B0
5F50: 29 03                      and #$03
5F52: D0 2B                      bne $5F7F     ; L_5F7F
5F54: A2 00                      ldx #$00
5F56: A0 00                      ldy #$00
5F58: AD D2 5D                   lda $5DD2     ; L_5DCE+4
5F5B: 85 DE                      sta $DE       ; FRE+4
5F5D: AD D3 5D                   lda $5DD3     ; L_5DCE+5
5F60: 85 DF                      sta $DF       ; FRE+5
5F62: A0 01                      ldy #$01
5F64: B1 DE     L_5F64           lda ($DE),y   ; FRE+4
5F66: C9 37                      cmp #$37
5F68: 10 03                      bpl $5F6D     ; L_5F6D
5F6A: 4C 00 3E  L_5F6A           jmp $3E00     ; L_3E00
5F6D: C9 60     L_5F6D           cmp #$60
5F6F: 10 F9                      bpl $5F6A     ; L_5F6A
5F71: E8                         inx
5F72: 98                         tya
5F73: 18                         clc
5F74: 69 28                      adc #$28
5F76: A8                         tay
5F77: EC DB 5D                   cpx $5DDB     ; L_5DD6+5
5F7A: D0 E8                      bne $5F64     ; L_5F64
5F7C: AE E8 57                   ldx $57E8     ; L_57E8
5F7F: DE B0 57  L_5F7F           dec $57B0,x   ; L_57B0
5F82: 60                         rts
5F83: AD D2 5D  L_5F83           lda $5DD2     ; L_5DCE+4
5F86: 85 DE                      sta $DE       ; FRE+4
5F88: AD D3 5D                   lda $5DD3     ; L_5DCE+5
5F8B: 85 DF                      sta $DF       ; FRE+5
5F8D: BD B0 57                   lda $57B0,x   ; L_57B0
5F90: 29 03                      and #$03
5F92: D0 1C                      bne $5FB0     ; L_5FB0
5F94: A0 04                      ldy #$04
5F96: A2 00                      ldx #$00
5F98: B1 DE     L_5F98           lda ($DE),y   ; FRE+4
5F9A: C9 37                      cmp #$37
5F9C: 10 03                      bpl $5FA1     ; L_5FA1
5F9E: 4C 00 3E  L_5F9E           jmp $3E00     ; L_3E00
5FA1: C9 60     L_5FA1           cmp #$60
5FA3: 10 F9                      bpl $5F9E     ; L_5F9E
5FA5: 98                         tya
5FA6: 18                         clc
5FA7: 69 28                      adc #$28
5FA9: A8                         tay
5FAA: E8                         inx
5FAB: EC DB 5D                   cpx $5DDB     ; L_5DD6+5
5FAE: D0 E8                      bne $5F98     ; L_5F98
5FB0: AE E8 57  L_5FB0           ldx $57E8     ; L_57E8
5FB3: FE B0 57                   inc $57B0,x   ; L_57B0
5FB6: 60                         rts
5FB7: 00                         BYTE $00 $00 $00 $00 $00 $00 $00 $00
5FBF: 00                         BYTE $00
5FC0: A9 00     L_5FC0           lda #$00
5FC2: 8D 10 8F                   sta $8F10     ; L_8F0A+6
5FC5: A9 07                      lda #$07
5FC7: A0 62                      ldy #$62
5FC9: A2 E4                      ldx #$E4
5FCB: 20 00 1F                   jsr $1F00     ; L_1F00
5FCE: A9 30                      lda #$30
5FD0: 8D E2 9E                   sta $9EE2
5FD3: A9 2A                      lda #$2A
5FD5: 8D 0A 9F                   sta $9F0A
5FD8: A9 2C                      lda #$2C
5FDA: 8D 32 9F                   sta $9F32
5FDD: 60                         rts
5FDE: 00                         BYTE $00 $00 $00 $00 $00 $00 $00 $00
5FE6: 00                         BYTE $00 $00 $00 $00 $00 $00 $00 $00
5FEE: 00                         BYTE $00 $00 $00 $00 $00 $00 $00 $00
5FF6: 00                         BYTE $00 $00 $00 $00 $00 $00 $00 $00
5FFE: 00                         BYTE $00 $00 $00 $00 $0A $2A $AA $00
6006: 55                         BYTE $55 $55 $55 $55 $55 $55 $55 $55
600E: 00                         BYTE $00 $00 $00 $00 $A0 $A0 $80 $20
6016: 20                         BYTE $20 $20 $20 $20 $20 $20 $20 $00
601E: 00                         BYTE $00 $00 $00 $00 $00 $00 $00 $00
6026: 00                         BYTE $00 $00 $00 $00 $00 $00 $00 $00
602E: 00                         BYTE $00 $00 $00 $02 $0A $2A $0A $12
6036: 14                         BYTE $14 $15 $15 $15 $15 $15 $05 $05
603E: 01                         BYTE $01 $01 $80 $A0 $A8 $A8 $A8 $A0
6046: 88                         BYTE $88 $28 $28 $28 $28 $28 $28 $20
604E: 20                         BYTE $20 $00 $00 $00 $00 $00 $00 $00
6056: 00                         BYTE $00 $00 $00 $00 $00 $00 $00 $00
605E: 00                         BYTE $00 $00 $00 $00 $02 $0A $0A $02
6066: 04                         BYTE $04 $04 $05 $05 $05 $01 $01 $01
606E: 00                         BYTE $00 $00 $20 $A8 $A8 $AA $AA $A8
6076: A2                         BYTE $A2 $A2 $22 $0A $2A $28 $28 $20
607E: 20                         BYTE $20 $00 $00 $00 $00 $00 $00 $00
6086: 00                         BYTE $00 $00 $00 $00 $00 $00 $00 $00
608E: 00                         BYTE $00 $00 $00 $00 $00 $00 $00 $00
6096: 02                         BYTE $02 $02 $02 $00 $00 $00 $00 $00
609E: 00                         BYTE $00 $00 $00 $00 $21 $21 $A1 $A1
60A6: A1                         BYTE $A1 $A1 $81 $28 $2A $AA $AA $28
60AE: 20                         BYTE $20 $00 $00 $00 $00 $00 $00 $40
60B6: 40                         BYTE $40 $40 $40 $40 $00 $00 $00 $00
60BE: 00                         BYTE $00 $00 $00 $01 $01 $01 $21 $21
60C6: A1                         BYTE $A1 $A1 $A1 $88 $28 $AA $AA $2A
60CE: 02                         BYTE $02 $00 $00 $00 $00 $40 $40 $50
60D6: 50                         BYTE $50 $50 $50 $50 $50 $10 $80 $80
60DE: 80                         BYTE $80 $00 $00 $00 $00 $00 $00 $00
60E6: 00                         BYTE $00 $00 $00 $00 $00 $00 $00 $00
60EE: 00                         BYTE $00 $00 $00 $14 $15 $15 $15 $15
60F6: 15                         BYTE $15 $15 $15 $15 $01 $28 $0A $00
60FE: 00                         BYTE $00 $00 $00 $00 $40 $54 $54 $54
6106: 54                         BYTE $54 $54 $54 $54 $54 $14 $94 $80
610E: 28                         BYTE $28 $00 $00 $00 $00 $00 $00 $00
6116: 00                         BYTE $00 $00 $00 $00 $00 $00 $00 $00
611E: 00                         BYTE $00 $00 $00 $00 $04 $05 $05 $05
6126: 05                         BYTE $05 $05 $05 $05 $05 $05 $00 $00
612E: 00                         BYTE $00 $00 $00 $00 $28 $42 $52 $52
6136: 52                         BYTE $52 $52 $52 $52 $52 $52 $12 $00
613E: 00                         BYTE $00 $00 $00 $00 $00 $00 $00 $00
6146: 00                         BYTE $00 $00 $00 $00 $00 $00 $00 $00
614E: 00                         BYTE $00 $00 $00 $00 $02 $00 $01 $01
6156: 01                         BYTE $01 $01 $01 $01 $01 $01 $01 $00
615E: 00                         BYTE $00 $00 $00 $00 $AA $00 $52 $52
6166: 52                         BYTE $52 $52 $52 $52 $52 $52 $52 $00
616E: 00                         BYTE $00 $00 $00 $00 $00 $80 $80 $80
6176: 80                         BYTE $80 $80 $80 $80 $80 $80 $00 $00
617E: 00                         BYTE $00 $00 $02 $06 $09 $09 $09 $05
6186: 25                         BYTE $25 $66 $66 $96 $96 $96 $5A $28
618E: 00                         BYTE $00 $00 $40 $60 $60 $60 $60 $A0
6196: A0                         BYTE $A0 $66 $66 $96 $96 $96 $5A $28
619E: 00                         BYTE $00 $00 $00 $00 $00 $00 $00 $00
61A6: 00                         BYTE $00 $00 $00 $00 $00 $00 $00 $00
61AE: 00                         BYTE $00 $00 $00 $02 $06 $09 $09 $09
61B6: 06                         BYTE $06 $09 $06 $09 $09 $05 $01 $00
61BE: 00                         BYTE $00 $00 $00 $40 $60 $60 $A0 $A0
61C6: 64                         BYTE $64 $A6 $66 $96 $96 $96 $9A $28
61CE: 00                         BYTE $00 $00 $00 $00 $00 $00 $00 $00
61D6: 00                         BYTE $00 $00 $00 $00 $00 $00 $00 $00
61DE: 00                         BYTE $00 $00 $00 $00 $00 $01 $02 $02
61E6: 02                         BYTE $02 $02 $00 $00 $00 $00 $00 $00
61EE: 00                         BYTE $00 $00 $00 $00 $90 $98 $58 $58
61F6: 68                         BYTE $68 $60 $99 $99 $A5 $65 $26 $26
61FE: 08                         BYTE $08 $00 $00 $00 $00 $00 $00 $00
6206: 00                         BYTE $00 $00 $00 $80 $80 $80 $80 $00
620E: 00                         BYTE $00 $00 $00 $00 $00 $01 $02 $02
6216: 02                         BYTE $02 $00 $00 $00 $00 $00 $00 $00
621E: 00                         BYTE $00 $00 $00 $00 $98 $9A $59 $55
6226: 5A                         BYTE $5A $69 $59 $25 $25 $25 $16 $06
622E: 00                         BYTE $00 $00 $00 $00 $00 $80 $80 $A0
6236: A0                         BYTE $A0 $A0 $A0 $80 $80 $80 $80 $00
623E: 00                         BYTE $00 $00 $00 $00 $24 $66 $96 $96
6246: 9A                         BYTE $9A $16 $09 $09 $09 $05 $02 $00
624E: 00                         BYTE $00 $00 $00 $00 $18 $66 $96 $96
6256: 96                         BYTE $96 $5A $60 $60 $60 $A0 $80 $00
625E: 00                         BYTE $00 $00 $00 $00 $00 $00 $00 $00
6266: 00                         BYTE $00 $00 $00 $00 $00 $00 $00 $00
626E: 00                         BYTE $00 $00 $00 $00 $00 $00 $09 $16
6276: 26                         BYTE $26 $26 $1A $25 $25 $25 $16 $0A
627E: 00                         BYTE $00 $00 $00 $00 $00 $60 $98 $58
6286: 58                         BYTE $58 $58 $A0 $80 $80 $80 $80 $00
628E: 00                         BYTE $00 $00 $00 $00 $00 $00 $00 $00
6296: 00                         BYTE $00 $00 $00 $00 $00 $00 $00 $00
629E: 00                         BYTE $00 $00 $00 $00 $00 $00 $00 $00
62A6: 00                         BYTE $00 $02 $02 $06 $09 $09 $09 $01
62AE: 00                         BYTE $00 $00 $00 $00 $06 $19 $65 $65
62B6: A5                         BYTE $A5 $96 $96 $6A $60 $60 $60 $80
62BE: 00                         BYTE $00 $00 $00 $00 $00 $80 $80 $80
62C6: 80                         BYTE $80 $80 $80 $00 $00 $00 $00 $00
62CE: 00                         BYTE $00 $00 $00 $00 $00 $00 $00 $00
62D6: 00                         BYTE $00 $01 $02 $02 $02 $01 $00 $00
62DE: 00                         BYTE $00 $00 $00 $0A $19 $25 $25 $25
62E6: 96                         BYTE $96 $96 $59 $59 $5A $6A $A0 $00
62EE: 00                         BYTE $00 $00 $00 $00 $80 $80 $80 $80
62F6: 80                         BYTE $80 $80 $80 $80 $80 $00 $00 $00
62FE: 00                         BYTE $00 $00 $00 $02 $02 $05 $06 $06
6306: 05                         BYTE $05 $19 $19 $19 $25 $AA $6A $9A
630E: 65                         BYTE $65 $15 $00 $00 $00 $80 $80 $80
6316: 80                         BYTE $80 $60 $A0 $60 $A0 $A8 $A8 $98
631E: 58                         BYTE $58 $A0 $00 $00 $00 $00 $00 $00
6326: 00                         BYTE $00 $00 $00 $00 $00 $00 $00 $00
632E: 00                         BYTE $00 $00 $00 $01 $02 $01 $02 $01
6336: 01                         BYTE $01 $02 $01 $02 $01 $0A $0A $2A
633E: 19                         BYTE $19 $05 $00 $00 $00 $80 $80 $A0
6346: 68                         BYTE $68 $68 $58 $50 $6A $A9 $A6 $5A
634E: 58                         BYTE $58 $40 $00 $00 $00 $00 $00 $00
6356: 00                         BYTE $00 $00 $00 $00 $00 $00 $00 $00
635E: 00                         BYTE $00 $00 $00 $00 $00 $00 $00 $00
6366: 00                         BYTE $00 $00 $00 $00 $00 $00 $02 $05
636E: 05                         BYTE $05 $0A $40 $A0 $50 $68 $56 $66
6376: 55                         BYTE $55 $25 $16 $16 $0A $2A $96 $56
637E: 96                         BYTE $96 $40 $00 $00 $00 $00 $00 $00
6386: 80                         BYTE $80 $80 $00 $00 $00 $80 $80 $80
638E: 00                         BYTE $00 $00 $00 $00 $00 $00 $00 $00
6396: 00                         BYTE $00 $00 $00 $00 $00 $00 $00 $00
639E: 00                         BYTE $00 $00 $10 $28 $18 $2A $16 $26
63A6: 15                         BYTE $15 $25 $16 $2A $29 $06 $25 $95
63AE: 56                         BYTE $56 $6A $00 $00 $00 $00 $00 $80
63B6: 40                         BYTE $40 $80 $80 $00 $80 $A0 $A0 $A0
63BE: A0                         BYTE $A0 $80 $00 $02 $01 $09 $05 $09
63C6: 05                         BYTE $05 $25 $2A $2A $15 $25 $9A $AA
63CE: AA                         BYTE $AA $2A $00 $00 $00 $80 $80 $80
63D6: 80                         BYTE $80 $60 $90 $A0 $60 $58 $98 $A8
63DE: A8                         BYTE $A8 $A0 $00 $00 $00 $00 $00 $00
63E6: 00                         BYTE $00 $00 $00 $00 $00 $00 $00 $00
63EE: 00                         BYTE $00 $00 $00 $00 $00 $02 $01 $09
63F6: 05                         BYTE $05 $09 $0A $02 $09 $25 $29 $2A
63FE: 0A                         BYTE $0A $02 $10 $90 $50 $60 $60 $60
6406: 60                         BYTE $60 $A0 $90 $A0 $A0 $40 $58 $56
640E: 96                         BYTE $96 $A0 $00 $00 $00 $00 $00 $00
6416: 00                         BYTE $00 $00 $00 $00 $00 $00 $00 $00
641E: 00                         BYTE $00 $00 $00 $00 $00 $00 $01 $02
6426: 05                         BYTE $05 $05 $09 $02 $01 $0A $09 $05
642E: 02                         BYTE $02 $00 $10 $20 $50 $90 $60 $60
6436: 60                         BYTE $60 $A0 $60 $60 $80 $60 $68 $5A
643E: 56                         BYTE $56 $1A $00 $00 $00 $00 $00 $00
6446: 00                         BYTE $00 $00 $00 $00 $00 $00 $00 $00
644E: 80                         BYTE $80 $80 $00 $00 $00 $00 $00 $00
6456: 00                         BYTE $00 $00 $00 $02 $01 $01 $02 $00
645E: 00                         BYTE $00 $00 $00 $01 $01 $09 $06 $26
6466: 9A                         BYTE $9A $66 $16 $A5 $AA $AA $56 $56
646E: 16                         BYTE $16 $00 $00 $00 $00 $00 $00 $00
6476: 00                         BYTE $00 $00 $00 $00 $80 $80 $A0 $A0
647E: 80                         BYTE $80 $00 $00 $01 $01 $01 $04 $04
6486: 04                         BYTE $04 $10 $12 $12 $40 $40 $55 $55
648E: AA                         BYTE $AA $00 $00 $00 $00 $00 $40 $40
6496: 40                         BYTE $40 $10 $10 $10 $04 $04 $54 $54
649E: A8                         BYTE $A8 $00 $00 $00 $00 $00 $00 $00
64A6: 00                         BYTE $00 $00 $00 $00 $00 $00 $00 $00
64AE: 00                         BYTE $00 $00 $00 $01 $01 $01 $01 $01
64B6: 01                         BYTE $01 $01 $01 $04 $04 $04 $04 $05
64BE: 05                         BYTE $05 $06 $00 $00 $20 $60 $58 $18
64C6: 18                         BYTE $18 $86 $86 $06 $05 $14 $50 $4A
64CE: A8                         BYTE $A8 $00 $00 $00 $00 $00 $00 $00
64D6: 00                         BYTE $00 $00 $00 $00 $80 $80 $80 $80
64DE: 00                         BYTE $00 $00 $00 $00 $00 $00 $00 $00
64E6: 00                         BYTE $00 $00 $00 $01 $01 $01 $01 $09
64EE: 0A                         BYTE $0A $00 $10 $10 $14 $54 $54 $45
64F6: 45                         BYTE $45 $41 $49 $09 $00 $00 $15 $5A
64FE: AA                         BYTE $AA $00 $00 $00 $00 $00 $00 $00
6506: 00                         BYTE $00 $00 $40 $40 $50 $50 $60 $A0
650E: 00                         BYTE $00 $00 $00 $00 $00 $00 $00 $00
6516: 00                         BYTE $00 $00 $00 $00 $00 $00 $00 $00
651E: 00                         BYTE $00 $00 $00 $01 $01 $01 $05 $05
6526: 14                         BYTE $14 $10 $10 $12 $52 $40 $40 $A5
652E: 0A                         BYTE $0A $00 $00 $00 $00 $00 $00 $40
6536: 40                         BYTE $40 $40 $40 $60 $58 $18 $18 $58
653E: A8                         BYTE $A8 $00 $00 $00 $00 $01 $01 $05
6546: 04                         BYTE $04 $14 $52 $52 $94 $25 $09 $02
654E: 00                         BYTE $00 $00 $20 $60 $60 $60 $60 $60
6556: 58                         BYTE $58 $18 $18 $18 $18 $18 $58 $58
655E: A8                         BYTE $A8 $28 $00 $00 $00 $00 $00 $00
6566: 00                         BYTE $00 $00 $00 $00 $00 $00 $00 $00
656E: 00                         BYTE $00 $00 $00 $00 $00 $01 $15 $10
6576: 14                         BYTE $14 $24 $05 $09 $01 $02 $02 $02
657E: 00                         BYTE $00 $00 $00 $00 $15 $51 $01 $05
6586: 06                         BYTE $06 $86 $86 $16 $18 $58 $60 $60
658E: 80                         BYTE $80 $80 $00 $00 $80 $80 $80 $80
6596: 00                         BYTE $00 $00 $00 $00 $00 $00 $00 $00
659E: 00                         BYTE $00 $00 $00 $01 $01 $01 $01 $01
65A6: 01                         BYTE $01 $01 $00 $00 $00 $00 $00 $00
65AE: 00                         BYTE $00 $00 $00 $40 $54 $05 $00 $00
65B6: 08                         BYTE $08 $49 $45 $46 $56 $58 $60 $80
65BE: 00                         BYTE $00 $00 $00 $00 $00 $40 $50 $10
65C6: 60                         BYTE $60 $60 $80 $00 $00 $00 $00 $00
65CE: 00                         BYTE $00 $00 $00 $00 $00 $00 $00 $00
65D6: 00                         BYTE $00 $00 $00 $00 $00 $00 $00 $00
65DE: 00                         BYTE $00 $00 $00 $00 $04 $04 $15 $11
65E6: 11                         BYTE $11 $10 $10 $52 $42 $40 $41 $55
65EE: 5A                         BYTE $5A $A0 $80 $00 $00 $00 $00 $00
65F6: 40                         BYTE $40 $40 $50 $10 $14 $14 $58 $A0
65FE: 00                         BYTE $00 $00 $81 $08 $00 $12 $29 $12
6606: 04                         BYTE $04 $00 $14 $05 $01 $01 $18 $20
660E: 08                         BYTE $08 $08 $00 $10 $58 $08 $54 $56
6616: 50                         BYTE $50 $25 $29 $14 $40 $84 $48 $40
661E: 00                         BYTE $00 $40 $00 $00 $00 $00 $00 $00
6626: 00                         BYTE $00 $00 $00 $00 $00 $00 $00 $00
662E: 00                         BYTE $00 $00 $08 $22 $22 $08 $24 $20
6636: 20                         BYTE $20 $80 $20 $00 $28 $01 $08 $00
663E: 00                         BYTE $00 $00 $00 $00 $A1 $18 $04 $01
6646: 00                         BYTE $00 $01 $02 $04 $09 $18 $88 $82
664E: 00                         BYTE $00 $00 $00 $00 $00 $00 $00 $00
6656: 00                         BYTE $00 $00 $00 $00 $00 $00 $00 $00
665E: 00                         BYTE $00 $00 $00 $42 $14 $10 $00 $80
6666: 80                         BYTE $80 $10 $10 $40 $10 $11 $0A $01
666E: 00                         BYTE $00 $00 $00 $01 $24 $08 $01 $00
6676: 00                         BYTE $00 $00 $00 $00 $00 $02 $02 $04
667E: 00                         BYTE $00 $00 $00 $00 $00 $00 $00 $00
6686: 00                         BYTE $00 $00 $00 $00 $00 $00 $00 $00
668E: 00                         BYTE $00 $00 $04 $10 $00 $40 $00 $00
6696: 00                         BYTE $00 $00 $00 $00 $40 $00 $40 $20
669E: 04                         BYTE $04 $02 $20 $04 $01 $00 $00 $00
66A6: 00                         BYTE $00 $00 $00 $00 $01 $01 $00 $00
66AE: 00                         BYTE $00 $00 $00 $00 $00 $00 $00 $00
66B6: 00                         BYTE $00 $00 $00 $00 $00 $00 $00 $00
66BE: 00                         BYTE $00 $00 $20 $02 $00 $04 $0A $04
66C6: 01                         BYTE $01 $00 $05 $01 $00 $00 $06 $08
66CE: 02                         BYTE $02 $02 $40 $04 $11 $82 $55 $98
66D6: 14                         BYTE $14 $09 $0A $45 $50 $61 $12 $10
66DE: 00                         BYTE $00 $10 $00 $00 $00 $00 $00 $00
66E6: 00                         BYTE $00 $40 $40 $00 $00 $00 $00 $00
66EE: 00                         BYTE $00 $00 $02 $08 $08 $02 $09 $08
66F6: 08                         BYTE $08 $20 $08 $00 $0A $00 $02 $00
66FE: 00                         BYTE $00 $00 $00 $80 $80 $06 $01 $00
6706: 00                         BYTE $00 $00 $00 $01 $02 $46 $22 $20
670E: 00                         BYTE $00 $00 $00 $00 $40 $00 $00 $40
6716: 00                         BYTE $00 $40 $80 $00 $40 $00 $00 $80
671E: 00                         BYTE $00 $00 $00 $10 $05 $04 $00 $20
6726: 20                         BYTE $20 $04 $04 $10 $04 $04 $02 $00
672E: 00                         BYTE $00 $00 $00 $80 $09 $02 $00 $00
6736: 00                         BYTE $00 $00 $00 $00 $00 $40 $80 $41
673E: 00                         BYTE $00 $00 $00 $40 $00 $00 $40 $00
6746: 00                         BYTE $00 $00 $00 $00 $00 $80 $80 $00
674E: 00                         BYTE $00 $00 $01 $04 $00 $10 $00 $00
6756: 00                         BYTE $00 $00 $00 $00 $10 $00 $10 $08
675E: 01                         BYTE $01 $00 $08 $01 $00 $00 $00 $00
6766: 00                         BYTE $00 $00 $00 $00 $00 $00 $00 $00
676E: 00                         BYTE $00 $80 $00 $00 $40 $00 $00 $00
6776: 00                         BYTE $00 $00 $00 $00 $40 $40 $00 $00
677E: 00                         BYTE $00 $00 $08 $00 $00 $01 $02 $01
6786: 00                         BYTE $00 $00 $01 $00 $00 $00 $01 $02
678E: 00                         BYTE $00 $00 $10 $81 $04 $20 $95 $26
6796: 45                         BYTE $45 $02 $42 $51 $14 $18 $84 $04
679E: 80                         BYTE $80 $84 $00 $00 $40 $80 $40 $00
67A6: 00                         BYTE $00 $50 $90 $40 $00 $40 $80 $00
67AE: 00                         BYTE $00 $00 $00 $02 $02 $00 $02 $02
67B6: 02                         BYTE $02 $08 $02 $00 $02 $00 $00 $00
67BE: 00                         BYTE $00 $00 $80 $20 $2A $81 $40 $00
67C6: 00                         BYTE $00 $00 $00 $00 $80 $11 $88 $08
67CE: 00                         BYTE $00 $00 $00 $00 $10 $80 $40 $10
67D6: 00                         BYTE $00 $10 $20 $40 $90 $80 $80 $20
67DE: 00                         BYTE $00 $00 $00 $04 $01 $01 $00 $08
67E6: 08                         BYTE $08 $01 $01 $04 $01 $01 $00 $00
67EE: 00                         BYTE $00 $00 $00 $20 $42 $00 $00 $00
67F6: 00                         BYTE $00 $00 $00 $00 $00 $10 $A0 $10
67FE: 00                         BYTE $00 $00 $00 $10 $40 $80 $10 $00
6806: 00                         BYTE $00 $00 $00 $00 $00 $20 $20 $40
680E: 00                         BYTE $00 $00 $00 $01 $00 $04 $00 $00
6816: 00                         BYTE $00 $00 $00 $00 $04 $00 $04 $02
681E: 00                         BYTE $00 $00 $42 $00 $00 $00 $00 $00
6826: 00                         BYTE $00 $00 $00 $00 $00 $00 $00 $00
682E: 40                         BYTE $40 $20 $00 $40 $10 $00 $00 $00
6836: 00                         BYTE $00 $00 $00 $00 $10 $10 $00 $00
683E: 00                         BYTE $00 $00 $02 $00 $00 $00 $00 $00
6846: 00                         BYTE $00 $00 $00 $00 $00 $00 $00 $00
684E: 00                         BYTE $00 $00 $04 $20 $01 $48 $A5 $49
6856: 11                         BYTE $11 $00 $50 $14 $05 $06 $61 $81
685E: 20                         BYTE $20 $21 $00 $40 $10 $20 $50 $80
6866: 40                         BYTE $40 $94 $A4 $50 $00 $10 $20 $00
686E: 00                         BYTE $00 $00 $00 $00 $00 $00 $00 $00
6876: 00                         BYTE $00 $02 $00 $00 $00 $00 $00 $00
687E: 00                         BYTE $00 $00 $20 $88 $8A $20 $90 $80
6886: 80                         BYTE $80 $00 $80 $00 $A0 $04 $22 $02
688E: 00                         BYTE $00 $00 $00 $00 $84 $60 $10 $04
6896: 00                         BYTE $00 $04 $08 $10 $24 $60 $20 $08
689E: 00                         BYTE $00 $00 $00 $01 $00 $00 $00 $02
68A6: 02                         BYTE $02 $00 $00 $01 $00 $00 $00 $00
68AE: 00                         BYTE $00 $00 $00 $08 $50 $40 $00 $00
68B6: 00                         BYTE $00 $40 $40 $00 $40 $44 $28 $04
68BE: 00                         BYTE $00 $00 $00 $04 $90 $20 $04 $00
68C6: 00                         BYTE $00 $00 $00 $00 $00 $08 $08 $10
68CE: 00                         BYTE $00 $00 $00 $00 $00 $01 $00 $00
68D6: 00                         BYTE $00 $00 $00 $00 $01 $00 $01 $00
68DE: 00                         BYTE $00 $00 $10 $40 $00 $00 $00 $00
68E6: 00                         BYTE $00 $00 $00 $00 $00 $00 $00 $80
68EE: 10                         BYTE $10 $08 $80 $10 $04 $00 $00 $00
68F6: 00                         BYTE $00 $00 $00 $00 $04 $04 $00 $00
68FE: 00                         BYTE $00 $00 $FC $F0 $F0 $C0 $C0 $C0
6906: C0                         BYTE $C0 $00 $00 $00 $00 $00 $00 $00
690E: 00                         BYTE $00 $00 $FF $3F $3F $0F $0F $0F
6916: 0F                         BYTE $0F $03 $03 $03 $03 $00 $00 $00
691E: 00                         BYTE $00 $03 $FF $FF $FF $FF $FF $FF
6926: FF                         BYTE $FF $FF $FF $FF $FF $FF $FF $FF
692E: FF                         BYTE $FF $FF $FC $F0 $F0 $F0 $F0 $F0
6936: F0                         BYTE $F0 $F0 $F0 $F0 $F0 $C0 $C0 $00
693E: 00                         BYTE $00 $C0 $3F $3F $3F $0F $0F $03
6946: 00                         BYTE $00 $00 $00 $00 $00 $00 $00 $00
694E: 00                         BYTE $00 $03 $FF $FF $FF $FF $FF $FF
6956: FF                         BYTE $FF $FF $FF $FF $3F $3F $3F $3F
695E: FF                         BYTE $FF $FF $FC $FC $FC $FC $FC $FC
6966: FC                         BYTE $FC $FF $FF $FF $FF $FC $F0 $C0
696E: C0                         BYTE $C0 $C0 $0F $03 $03 $00 $00 $00
6976: 00                         BYTE $00 $00 $00 $00 $C0 $00 $00 $00
697E: 00                         BYTE $00 $00 $FF $FF $FF $FF $FF $3F
6986: 0F                         BYTE $0F $0F $3F $3F $3F $0F $0F $0F
698E: 3F                         BYTE $3F $FF $FF $FF $FF $FF $FF $FF
6996: FF                         BYTE $FF $FF $FF $FF $FF $FF $FF $FC
699E: FC                         BYTE $FC $FC $03 $00 $00 $00 $00 $00
69A6: 00                         BYTE $00 $00 $00 $00 $00 $C0 $00 $00
69AE: 00                         BYTE $00 $00 $FF $FF $FF $3F $3F $0F
69B6: 0F                         BYTE $0F $0F $0F $0F $0F $03 $03 $03
69BE: 03                         BYTE $03 $0F $FC $F0 $F0 $C0 $C0 $C0
69C6: C0                         BYTE $C0 $00 $00 $00 $00 $00 $00 $00
69CE: 00                         BYTE $00 $00 $FF $3F $3F $0F $0F $0F
69D6: 0F                         BYTE $0F $03 $03 $03 $03 $00 $00 $00
69DE: 00                         BYTE $00 $03 $FF $FF $FF $FF $FF $FF
69E6: FF                         BYTE $FF $FF $FF $FF $FF $FF $FF $FF
69EE: FF                         BYTE $FF $FF $FF $FF $FC $F0 $F0 $C0
69F6: C0                         BYTE $C0 $C0 $C0 $F0 $C0 $00 $00 $00
69FE: C0                         BYTE $C0 $F0 $03 $03 $03 $03 $03 $03
6A06: 03                         BYTE $03 $03 $03 $03 $03 $03 $00 $00
6A0E: 00                         BYTE $00 $00 $FF $FF $FF $FF $FF $FF
6A16: FF                         BYTE $FF $FF $FF $FF $FF $FF $FF $3F
6A1E: 3F                         BYTE $3F $FF $FF $FF $FC $FC $F0 $F0
6A26: C0                         BYTE $C0 $C0 $C0 $F0 $F0 $C0 $C0 $C0
6A2E: F0                         BYTE $F0 $FC $00 $03 $00 $03 $00 $03
6A36: 00                         BYTE $00 $03 $00 $03 $00 $03 $00 $00
6A3E: 00                         BYTE $00 $00 $00 $FF $00 $FF $00 $FF
6A46: 00                         BYTE $00 $FF $00 $FF $FF $FF $FF $3F
6A4E: 0F                         BYTE $0F $0F $FF $FF $FF $FF $FF $FC
6A56: FC                         BYTE $FC $FC $00 $F0 $00 $F0 $00 $FC
6A5E: 00                         BYTE $00 $FF $00 $F0 $00 $C0 $00 $00
6A66: 00                         BYTE $00 $00 $00 $00 $00 $00 $00 $00
6A6E: 00                         BYTE $00 $C0 $00 $3F $3F $3F $3F $3F
6A76: 3F                         BYTE $3F $3F $FF $3F $0F $0F $03 $03
6A7E: 0F                         BYTE $0F $3F $00 $F0 $00 $F0 $00 $C0
6A86: 00                         BYTE $00 $00 $00 $00 $00 $00 $00 $00
6A8E: 00                         BYTE $00 $00 $00 $3F $00 $3F $00 $0F
6A96: 00                         BYTE $00 $03 $00 $03 $00 $00 $00 $00
6A9E: 00                         BYTE $00 $00 $FF $FF $FF $FF $FF $FF
6AA6: FF                         BYTE $FF $FF $00 $FF $00 $FF $00 $FF
6AAE: 00                         BYTE $00 $FF $00 $F0 $00 $F0 $00 $F0
6AB6: 00                         BYTE $00 $F0 $00 $C0 $00 $C0 $00 $C0
6ABE: 00                         BYTE $00 $C0 $00 $0F $03 $03 $00 $00
6AC6: 00                         BYTE $00 $00 $00 $00 $00 $00 $00 $00
6ACE: 00                         BYTE $00 $03 $02 $FF $02 $FF $02 $FF
6AD6: 02                         BYTE $02 $3F $02 $3F $02 $0F $02 $0F
6ADE: 02                         BYTE $02 $FF $02 $FF $02 $FC $02 $FC
6AE6: 02                         BYTE $02 $FC $02 $F0 $F0 $F0 $F0 $C0
6AEE: C0                         BYTE $C0 $F0 $03 $03 $00 $00 $00 $00
6AF6: 00                         BYTE $00 $00 $00 $00 $00 $00 $00 $00
6AFE: 00                         BYTE $00 $00 $00 $FF $00 $FF $00 $3F
6B06: 00                         BYTE $00 $3F $00 $0F $00 $03 $00 $03
6B0E: 00                         BYTE $00 $FF $00 $FF $FF $FF $FF $FF
6B16: FF                         BYTE $FF $FF $FF $FF $FC $FC $FC $FC
6B1E: FC                         BYTE $FC $FF $00 $F0 $00 $F0 $00 $C0
6B26: 00                         BYTE $00 $00 $00 $00 $00 $00 $00 $00
6B2E: 00                         BYTE $00 $F0 $00 $3F $00 $3F $00 $0F
6B36: 00                         BYTE $00 $0F $00 $03 $00 $00 $00 $00
6B3E: 00                         BYTE $00 $03 $FF $FC $FC $F0 $F0 $C0
6B46: C0                         BYTE $C0 $00 $00 $00 $00 $00 $00 $F0
6B4E: 00                         BYTE $00 $FF $00 $03 $00 $03 $00 $03
6B56: 00                         BYTE $00 $00 $00 $00 $00 $00 $00 $00
6B5E: 00                         BYTE $00 $00 $00 $FF $FF $FF $FF $FF
6B66: FF                         BYTE $FF $FF $FF $FF $FF $FF $FF $FF
6B6E: FF                         BYTE $FF $FF $00 $FF $00 $C0 $00 $00
6B76: 00                         BYTE $00 $00 $00 $C0 $00 $F0 $00 $F0
6B7E: 00                         BYTE $00 $FF $00 $C0 $00 $00 $00 $00
6B86: 00                         BYTE $00 $00 $00 $00 $00 $00 $03 $03
6B8E: 0F                         BYTE $0F $0F $FF $3F $0F $0F $0F $0F
6B96: 3F                         BYTE $3F $3F $00 $3F $00 $FF $00 $FF
6B9E: 00                         BYTE $00 $FF $00 $F0 $00 $F0 $00 $F0
6BA6: 00                         BYTE $00 $F0 $00 $FC $00 $FC $00 $FC
6BAE: 00                         BYTE $00 $FF $00 $03 $00 $00 $00 $00
6BB6: 00                         BYTE $00 $00 $00 $00 $00 $00 $03 $0F
6BBE: 3F                         BYTE $3F $FF $00 $FF $00 $0F $00 $03
6BC6: 00                         BYTE $00 $03 $00 $3F $00 $FF $00 $FF
6BCE: 00                         BYTE $00 $FF $00 $FF $00 $FF $00 $FF
6BD6: 00                         BYTE $00 $FF $00 $FC $FC $FC $FC $FC
6BDE: FC                         BYTE $FC $FC $F3 $C0 $C0 $00 $00 $00
6BE6: 00                         BYTE $00 $00 $00 $00 $00 $00 $00 $00
6BEE: 00                         BYTE $00 $0F $00 $FF $00 $3F $00 $0F
6BF6: 00                         BYTE $00 $03 $00 $00 $00 $00 $00 $0F
6BFE: 00                         BYTE $00 $FF $FF $08 $00 $6C $06 $6C
6C06: 4C        L_6C06           BYTE $4C $4A $6C $70 $70 $70 $42 $40
6C0E: 9C                         BYTE $9C $02 $02 $02 $02 $02 $02 $02
6C16: 02                         BYTE $02 $02 $02 $02 $02 $02 $02 $02
6C1E: 02                         BYTE $02 $02 $02 $02 $02 $02 $02 $D2
6C26: 00        L_6C26           BYTE $00 $6E $70 $70 $41 $00 $6D $2C
6C2E: 6F                         BYTE $6F $61 $64 $00 $25 $72 $72 $6F
6C36: 72                         BYTE $72 $0E $0E $30 $6C $65 $61 $73
6C3E: 65                         BYTE $65 $00 $32 $65 $0D $2C $6F $61
6C46: 64                         BYTE $64 $0E $43 $3A
6C4A: A9 0F                      lda #$0F
6C4C: 8D C4 02                   sta $02C4     ; COLOR0
6C4F: 8D C5 02                   sta $02C5     ; COLOR1
6C52: A9 00                      lda #$00
6C54: 8D C6 02                   sta $02C6     ; COLOR2
6C57: 8D C8 02                   sta $02C8     ; COLOR4
6C5A: AA                         tax
6C5B: 9D 40 9C  L_6C5B           sta $9C40,x
6C5E: 9D 40 9D                   sta $9D40,x
6C61: 9D 40 9E                   sta $9E40,x
6C64: 9D 00 9F                   sta $9F00,x
6C67: E8                         inx
6C68: D0 F1                      bne $6C5B     ; L_6C5B
6C6A: A2 00                      ldx #$00
6C6C: BD 09 6C  L_6C6C           lda $6C09,x   ; L_6C06+3
6C6F: 9D 80 06                   sta $0680,x
6C72: E8                         inx
6C73: E0 30                      cpx #$30
6C75: D0 F5                      bne $6C6C     ; L_6C6C
6C77: A9 07                      lda #$07
6C79: 8D FF 06                   sta $06FF
6C7C: A9 01                      lda #$01
6C7E: 8D F0 02                   sta $02F0     ; CRSINH
6C81: A2 80                      ldx #$80
6C83: A0 06                      ldy #$06
6C85: 8E 30 02                   stx $0230     ; SDLSTL
6C88: 8C 31 02                   sty $0231     ; SDLSTH
6C8B: A0 09                      ldy #$09
6C8D: A2 6D                      ldx #$6D
6C8F: A9 06                      lda #$06
6C91: 20 00 1F                   jsr $1F00     ; L_1F00
6C94: A2 10                      ldx #$10
6C96: A9 03                      lda #$03
6C98: 9D 42 03                   sta $0342,x   ; B0_ICCOM
6C9B: A9 07                      lda #$07
6C9D: 9D 4A 03                   sta $034A,x   ; B0_ICAX1
6CA0: A9 80                      lda #$80
6CA2: 9D 4B 03                   sta $034B,x   ; B0_ICAX2
6CA5: A9 48                      lda #$48
6CA7: 9D 44 03                   sta $0344,x   ; B0_ICBAL
6CAA: A9 6C                      lda #$6C
6CAC: 9D 45 03                   sta $0345,x   ; B0_ICBAH
6CAF: 20 56 E4                   jsr $E456     ; CIOV
6CB2: EA                         nop
6CB3: EA                         nop
6CB4: A9 07                      lda #$07
6CB6: 9D 42 03                   sta $0342,x   ; B0_ICCOM
6CB9: A9 00                      lda #$00
6CBB: 9D 44 03                   sta $0344,x   ; B0_ICBAL
6CBE: A9 10                      lda #$10
6CC0: 9D 45 03                   sta $0345,x   ; B0_ICBAH
6CC3: A9 FF                      lda #$FF
6CC5: 9D 49 03                   sta $0349,x   ; B0_ICBLH
6CC8: 20 56 E4                   jsr $E456     ; CIOV
6CCB: EA                         nop
6CCC: EA                         nop
6CCD: A9 0C                      lda #$0C
6CCF: 20 56 E4                   jsr $E456     ; CIOV
6CD2: EA                         nop
6CD3: EA                         nop
6CD4: A9 3C                      lda #$3C
6CD6: 8D 02 D3                   sta $D302     ; PACTL
6CD9: A0 5F                      ldy #$5F
6CDB: A2 E4                      ldx #$E4
6CDD: A9 06                      lda #$06
6CDF: 20 00 1F                   jsr $1F00     ; L_1F00
6CE2: 4C 00 35                   jmp $3500     ; L_3500
6CE5: A2 00                      ldx #$00
6CE7: BD 2D 6C  L_6CE7           lda $6C2D,x   ; L_6C26+7
6CEA: 9D D6 9D                   sta $9DD6,x
6CED: E8                         inx
6CEE: E0 1B                      cpx #$1B
6CF0: D0 F5                      bne $6CE7     ; L_6CE7
6CF2: A9 3C                      lda #$3C
6CF4: 8D 02 D3                   sta $D302     ; PACTL
6CF7: EE C5 02  L_6CF7           inc $02C5     ; COLOR1
6CFA: A0 00                      ldy #$00
6CFC: A2 00     L_6CFC           ldx #$00
6CFE: E8        L_6CFE           inx
6CFF: D0 FD                      bne $6CFE     ; L_6CFE
6D01: C8                         iny
6D02: C0 14                      cpy #$14
6D04: D0 F6                      bne $6CFC     ; L_6CFC
6D06: 4C F7 6C                   jmp $6CF7     ; L_6CF7
6D09: 48                         pha
6D0A: 98                         tya
6D0B: 48                         pha
6D0C: 8A                         txa
6D0D: 48                         pha
6D0E: A2 80                      ldx #$80
6D10: A0 06                      ldy #$06
6D12: 8E 02 D4                   stx $D402     ; DLISTL
6D15: 8C 03 D4                   sty $D403     ; DLISTH
6D18: A9 0F                      lda #$0F
6D1A: 8D 17 D0                   sta $D017     ; COLPF1
6D1D: AD FF 06                   lda $06FF
6D20: C9 04                      cmp #$04
6D22: 90 16                      bcc $6D3A     ; L_6D3A
6D24: AD 04 D4                   lda $D404     ; HSCROL
6D27: 29 F8                      and #$F8
6D29: 0D FF 06                   ora $06FF
6D2C: 8D 04 D4                   sta $D404     ; HSCROL
6D2F: CE FF 06  L_6D2F           dec $06FF
6D32: 68                         pla
6D33: AA                         tax
6D34: 68                         pla
6D35: A8                         tay
6D36: 68                         pla
6D37: 4C 5F E4                   jmp $E45F     ; SYSVBV
6D3A: AD 9D 06  L_6D3A           lda $069D
6D3D: C9 D6                      cmp #$D6
6D3F: D0 14                      bne $6D55     ; L_6D55
6D41: AD 9E 06                   lda $069E
6D44: C9 6F                      cmp #$6F
6D46: D0 0D                      bne $6D55     ; L_6D55
6D48: A9 00                      lda #$00
6D4A: 8D 9D 06                   sta $069D
6D4D: A9 6E                      lda #$6E
6D4F: 8D 9E 06                   sta $069E
6D52: 4C 62 6D                   jmp $6D62     ; L_6D62
6D55: AD 9D 06  L_6D55           lda $069D
6D58: C9 FF                      cmp #$FF
6D5A: D0 03                      bne $6D5F     ; L_6D5F
6D5C: EE 9E 06                   inc $069E
6D5F: EE 9D 06  L_6D5F           inc $069D
6D62: A9 07     L_6D62           lda #$07
6D64: 8D FF 06                   sta $06FF
6D67: AD 04 D4                   lda $D404     ; HSCROL
6D6A: 09 07                      ora #$07
6D6C: 8D 04 D4                   sta $D404     ; HSCROL
6D6F: 4C 2F 6D                   jmp $6D2F     ; L_6D2F
6D72: 00                         BYTE $00 $00 $00 $00 $00 $00 $00 $00
6D7A: 00        L_6D7A           BYTE $00 $00 $00 $00 $00 $00 $00 $00
6D82: 00                         BYTE $00 $00 $00 $00 $00 $00 $00 $00
6D8A: 00                         BYTE $00 $00 $00 $00 $00 $00 $00 $00
6D92: 00                         BYTE $00 $00 $00 $00 $00 $00 $00 $00
6D9A: 00                         BYTE $00 $00 $00 $00 $00 $00 $00 $00
6DA2: 00                         BYTE $00 $00 $00 $00 $00 $00 $00 $00
6DAA: 00                         BYTE $00 $00 $00 $00 $00 $00 $00 $00
6DB2: 00                         BYTE $00 $00 $00 $00 $00 $00 $00 $00
6DBA: 00                         BYTE $00 $00 $00 $00 $00 $00 $00 $00
6DC2: 00                         BYTE $00 $00 $00 $00 $00 $00 $00 $00
6DCA: 00                         BYTE $00 $00 $00 $00 $00 $00 $00 $00
6DD2: 00                         BYTE $00 $00 $00 $00 $00 $00 $00 $00
6DDA: 00                         BYTE $00 $00 $00 $00 $00 $00 $00 $00
6DE2: 00                         BYTE $00 $00 $00 $00 $00 $00 $00 $00
6DEA: 00                         BYTE $00 $00 $00 $00 $00 $00 $00 $00
6DF2: 00                         BYTE $00 $00 $00 $00 $00 $00 $00 $00
6DFA: 00        L_6DFA           BYTE $00 $00 $00 $00 $00 $00 $00 $00
6E02: 00                         BYTE $00 $00 $00 $00 $00 $00 $00 $00
6E0A: 00                         BYTE $00 $00 $00 $00 $00 $00 $00 $00
6E12: 00                         BYTE $00 $00 $00 $00 $00 $00 $00 $00
6E1A: 00                         BYTE $00 $00 $00 $00 $00 $00 $00 $00
6E22: 00                         BYTE $00 $00 $00 $00 $00 $00 $00 $00
6E2A: 00                         BYTE $00 $2E $6F $77 $00 $2C $6F $61
6E32: 64                         BYTE $64 $69 $6E $67 $00 $21 $72 $6B
6E3A: 61                         BYTE $61 $6E $6F $69 $64 $00 $08 $23
6E42: 09                         BYTE $09 $00 $11 $19 $18 $17 $00 $29
6E4A: 6D                         BYTE $6D $61 $67 $69 $6E $65 $00 $33
6E52: 6F                         BYTE $6F $66 $74 $77 $61 $72 $65 $0C
6E5A: 08                         BYTE $08 $23 $09 $00 $11 $19 $18 $17
6E62: 00                         BYTE $00 $34 $61 $69 $74 $6F $0E $00
6E6A: 00                         BYTE $00 $00 $34 $68 $65 $00 $65 $72
6E72: 61                         BYTE $61 $00 $61 $6E $64 $00 $74 $69
6E7A: 6D                         BYTE $6D $65 $00 $6F $66 $00 $74 $68
6E82: 69                         BYTE $69 $73 $00 $73 $74 $6F $72 $79
6E8A: 00                         BYTE $00 $61 $72 $65 $00 $75 $6E $6B
6E92: 6E                         BYTE $6E $6F $77 $6E $0E $00 $00 $00
6E9A: 21                         BYTE $21 $66 $74 $65 $72 $00 $74 $68
6EA2: 65                         BYTE $65 $00 $2D $6F $74 $68 $65 $72
6EAA: 73                         BYTE $73 $68 $69 $70 $00 $07 $21 $72
6EB2: 6B                         BYTE $6B $61 $6E $6F $69 $64 $07 $00
6EBA: 77                         BYTE $77 $61 $73 $00 $64 $65 $73 $74
6EC2: 72                         BYTE $72 $6F $79 $65 $64 $0C $61 $00
6ECA: 73                         BYTE $73 $70 $61 $63 $65 $63 $72 $61
6ED2: 66                         BYTE $66 $74 $00 $07 $36 $61 $75 $73
6EDA: 07                         BYTE $07 $00 $73 $63 $72 $61 $6D $62
6EE2: 6C                         BYTE $6C $65 $64 $00 $61 $77 $61 $79
6EEA: 00                         BYTE $00 $66 $72 $6F $6D $00 $69 $74
6EF2: 0C                         BYTE $0C $6F $6E $6C $79 $00 $74 $6F
6EFA: 00                         BYTE $00 $62 $65 $00 $74 $72 $61 $70
6F02: 70                         BYTE $70 $65 $64 $00 $69 $6E $00 $73
6F0A: 70                         BYTE $70 $61 $63 $65 $0C $77 $61 $72
6F12: 70                         BYTE $70 $65 $64 $00 $62 $79 $00 $73
6F1A: 6F                         BYTE $6F $6D $65 $6F $6E $65 $01 $00
6F22: 00                         BYTE $00 $00 $39 $6F $75 $00 $6D $75
6F2A: 73                         BYTE $73 $74 $00 $74 $61 $6B $65 $00
6F32: 63                         BYTE $63 $6F $6E $74 $72 $6F $6C $00
6F3A: 6F                         BYTE $6F $66 $00 $74 $68 $65 $00 $36
6F42: 61                         BYTE $61 $75 $73 $0C $61 $6E $64 $00
6F4A: 62                         BYTE $62 $61 $74 $74 $6C $65 $00 $79
6F52: 6F                         BYTE $6F $75 $72 $00 $77 $61 $79 $00
6F5A: 74                         BYTE $74 $68 $72 $6F $75 $67 $68 $00
6F62: 74                         BYTE $74 $68 $65 $00 $13 $12 $00 $6C
6F6A: 65                         BYTE $65 $76 $65 $6C $73 $00 $74 $6F
6F72: 00                         BYTE $00 $63 $6F $6E $66 $72 $6F $6E
6F7A: 74        L_6F7A           BYTE $74 $00 $74 $68 $65 $00 $24 $69
6F82: 6D                         BYTE $6D $65 $6E $73 $69 $6F $6E $00
6F8A: 23                         BYTE $23 $68 $61 $6E $67 $65 $72 $01
6F92: 00                         BYTE $00 $00 $00 $27 $61 $6D $65 $00
6F9A: 23                         BYTE $23 $6F $64 $69 $6E $67 $00 $62
6FA2: 79                         BYTE $79 $00 $2D $69 $6B $65 $00 $28
6FAA: 75                         BYTE $75 $74 $63 $68 $69 $6E $73 $6F
6FB2: 6E                         BYTE $6E $0E $00 $00 $21 $6C $73 $6F
6FBA: 00                         BYTE $00 $61 $76 $61 $69 $6C $61 $62
6FC2: 6C                         BYTE $6C $65 $00 $07 $27 $72 $65 $65
6FCA: 6E                         BYTE $6E $00 $22 $65 $72 $65 $74 $07
6FD2: 0E                         BYTE $0E $00 $00 $00 $00 $00 $00 $00
6FDA: 00                         BYTE $00 $00 $00 $00 $00 $00 $00 $00
6FE2: 00                         BYTE $00 $00 $00 $00 $00 $00 $00 $00
6FEA: 00                         BYTE $00 $00 $00 $00 $00 $00 $00 $00
6FF2: 00                         BYTE $00 $00 $00 $00 $00 $00 $00 $00
6FFA: 00                         BYTE $00 $00 $00 $00 $00 $00 $0D $0D
7002: 0D                         BYTE $0D $0D $ED $6D $6D $6D $6D $6D
700A: 0D                         BYTE $0D $0D $0D $0D $0D $0D $0D $0D
7012: 0D                         BYTE $0D $FF $0D $0D $61 $0C $61 $21
701A: 0B                         BYTE $0B $61 $21 $A1 $0A $61 $21 $A1
7022: 41                         BYTE $41 $09 $61 $21 $A1 $41 $61 $08
702A: 61                         BYTE $61 $21 $A1 $41 $61 $21 $07 $61
7032: 21                         BYTE $21 $A1 $41 $61 $21 $A1 $06 $61
703A: 21                         BYTE $21 $A1 $41 $61 $21 $A1 $41 $05
7042: 61                         BYTE $61 $21 $A1 $41 $61 $21 $A1 $41
704A: 61                         BYTE $61 $04 $61 $21 $A1 $41 $61 $21
7052: A1                         BYTE $A1 $41 $61 $21 $03 $61 $21 $A1
705A: 41                         BYTE $41 $61 $21 $A1 $41 $61 $21 $A1
7062: 02                         BYTE $02 $61 $21 $A1 $41 $61 $21 $A1
706A: 41                         BYTE $41 $61 $21 $A1 $41 $01 $EC $A1
7072: 0D                         BYTE $0D $0D $0D $0D $FF $0D $0D $0D
707A: 6D                         BYTE $6D $0D $63 $CA $0D $6D $0D $CA
7082: 63                         BYTE $63 $0D $6D $0D $63 $CA $0D $6D
708A: 0D                         BYTE $0D $CA $63 $0D $FF $0D $0D $0D
7092: 0D                         BYTE $0D $01 $A1 $41 $21 $E1 $A1 $01
709A: 21                         BYTE $21 $A1 $41 $21 $A1 $01 $01 $41
70A2: 21                         BYTE $21 $E1 $A1 $41 $01 $A1 $41 $21
70AA: A1                         BYTE $A1 $E1 $01 $01 $21 $E1 $A1 $41
70B2: 21                         BYTE $21 $01 $41 $21 $A1 $E1 $41 $01
70BA: 01                         BYTE $01 $E1 $A1 $41 $21 $A1 $01 $21
70C2: A1                         BYTE $A1 $E1 $41 $21 $01 $01 $A1 $41
70CA: 21                         BYTE $21 $A1 $41 $01 $A1 $E1 $41 $21
70D2: A1                         BYTE $A1 $01 $01 $41 $21 $A1 $41 $21
70DA: 01                         BYTE $01 $E1 $41 $21 $A1 $41 $01 $01
70E2: 21                         BYTE $21 $A1 $41 $21 $A1 $01 $41 $21
70EA: A1                         BYTE $A1 $41 $21 $01 $01 $A1 $41 $21
70F2: A1                         BYTE $A1 $E1 $01 $21 $A1 $41 $21 $A1
70FA: 01                         BYTE $01 $01 $41 $21 $A1 $E1 $41 $01
7102: A1                         BYTE $A1 $41 $21 $A1 $41 $01 $01 $21
710A: A1                         BYTE $A1 $E1 $41 $21 $01 $41 $21 $A1
7112: 41                         BYTE $41 $E1 $01 $01 $A1 $E1 $41 $21
711A: A1                         BYTE $A1 $01 $21 $A1 $41 $E1 $21 $01
7122: 01                         BYTE $01 $E1 $41 $21 $A1 $41 $01 $A1
712A: 41                         BYTE $41 $E1 $21 $A1 $01 $01 $41 $21
7132: A1                         BYTE $A1 $41 $21 $01 $41 $E1 $21 $A1
713A: 41                         BYTE $41 $01 $01 $21 $A1 $41 $21 $A1
7142: 01                         BYTE $01 $E1 $21 $A1 $41 $21 $01 $0D
714A: FF                         BYTE $FF $0D $0D $03 $61 $05 $61 $03
7152: 03                         BYTE $03 $61 $05 $61 $03 $04 $61 $03
715A: 61                         BYTE $61 $04 $04 $61 $03 $61 $04 $03
7162: E7                         BYTE $E7 $03 $03 $E7 $03 $02 $E2 $A1
716A: E3                         BYTE $E3 $A1 $E2 $02 $02 $E2 $A1 $E3
7172: A1                         BYTE $A1 $E2 $02 $01 $EB $01 $01 $EB
717A: 01                         BYTE $01 $01 $EB $01 $01 $E1 $01 $E7
7182: 01                         BYTE $01 $E1 $01 $01 $E1 $01 $E1 $05
718A: E1                         BYTE $E1 $01 $E1 $01 $01 $E1 $01 $E1
7192: 05                         BYTE $05 $E1 $01 $E1 $01 $04 $E2 $01
719A: E2                         BYTE $E2 $04 $04 $E2 $01 $E2 $04 $0D
71A2: FF                         BYTE $FF $0D $0D $0D $0D $A1 $01 $61
71AA: 01                         BYTE $01 $21 $01 $41 $01 $21 $01 $61
71B2: 01                         BYTE $01 $A1 $A1 $01 $61 $01 $21 $01
71BA: 41                         BYTE $41 $01 $21 $01 $61 $01 $A1 $A1
71C2: 01                         BYTE $01 $61 $01 $21 $01 $41 $01 $21
71CA: 01                         BYTE $01 $61 $01 $A1 $A1 $01 $61 $01
71D2: 21                         BYTE $21 $01 $41 $01 $21 $01 $61 $01
71DA: A1                         BYTE $A1 $A1 $01 $61 $01 $21 $01 $41
71E2: 01                         BYTE $01 $21 $01 $61 $01 $A1 $61 $01
71EA: C1                         BYTE $C1 $61 $C1 $61 $C1 $61 $C1 $61
71F2: C1                         BYTE $C1 $01 $61 $A1 $01 $61 $01 $21
71FA: 01                         BYTE $01 $41 $01 $21 $01 $61 $01 $A1
7202: A1                         BYTE $A1 $01 $61 $01 $21 $01 $41 $01
720A: 21                         BYTE $21 $01 $61 $01 $A1 $A1 $01 $61
7212: 01                         BYTE $01 $21 $01 $41 $01 $21 $01 $61
721A: 01                         BYTE $01 $A1 $A1 $01 $61 $01 $21 $01
7222: 41                         BYTE $41 $01 $21 $01 $61 $01 $A1 $61
722A: 01                         BYTE $01 $61 $01 $C1 $01 $61 $01 $C1
7232: 01                         BYTE $01 $61 $01 $61 $A1 $01 $61 $01
723A: 21                         BYTE $21 $01 $41 $01 $21 $01 $61 $01
7242: A1                         BYTE $A1 $0D $0D $0D $FF $0D $0D $0D
724A: 0D                         BYTE $0D $0D $05 $22 $61 $05 $04 $22
7252: 62                         BYTE $62 $41 $04 $03 $22 $62 $42 $A1
725A: 03                         BYTE $03 $03 $21 $62 $42 $A2 $03 $02
7262: 21                         BYTE $21 $62 $42 $A2 $22 $02 $02 $62
726A: 42                         BYTE $42 $A2 $23 $02 $02 $61 $42 $A2
7272: 24                         BYTE $24 $02 $02 $42 $A2 $24 $A1 $02
727A: 02                         BYTE $02 $41 $A2 $24 $A2 $02 $02 $A2
7282: 24                         BYTE $24 $A2 $41 $02 $03 $24 $A2 $41
728A: 03                         BYTE $03 $03 $23 $A2 $42 $03 $04 $21
7292: A2                         BYTE $A2 $42 $04 $05 $A1 $42 $05 $FF
729A: 0D        L_729A           BYTE $0D $0D $0D $0D $03 $C1 $01 $C1
72A2: 01                         BYTE $01 $C1 $01 $C1 $03 $01 $C1 $09
72AA: C1                         BYTE $C1 $01 $01 $C2 $01 $C1 $03 $C1
72B2: 01                         BYTE $01 $C2 $01 $06 $A1 $06 $01 $C1
72BA: 03                         BYTE $03 $C1 $61 $C1 $03 $C1 $01 $03
72C2: C1                         BYTE $C1 $02 $61 $02 $C1 $03 $06 $61
72CA: 06                         BYTE $06 $03 $C1 $02 $61 $02 $C1 $03
72D2: 01                         BYTE $01 $C1 $03 $C1 $61 $C1 $03 $C1
72DA: 01                         BYTE $01 $06 $61 $06 $01 $C2 $07 $C2
72E2: 01                         BYTE $01 $01 $C1 $09 $C1 $01 $03 $C1
72EA: 01                         BYTE $01 $C1 $01 $C1 $01 $C1 $03 $0D
72F2: 0D                         BYTE $0D $FF $0D $0D $01 $C1 $01 $C1
72FA: 05                         BYTE $05 $C1 $01 $C1 $01 $01 $C1 $61
7302: C1                         BYTE $C1 $05 $C1 $61 $C1 $01 $01 $C1
730A: 61                         BYTE $61 $C1 $05 $C1 $61 $C1 $01 $01
7312: C3                         BYTE $C3 $05 $C3 $01 $0D $04 $65 $04
731A: 04                         BYTE $04 $61 $A3 $61 $04 $04 $65 $04
7322: 04                         BYTE $04 $61 $A3 $61 $04 $04 $61 $A3
732A: 61                         BYTE $61 $04 $04 $61 $A3 $61 $04 $0D
7332: 0D                         BYTE $0D $0D $0D $0D $0D $FF $01 $C1
733A: 0B                         BYTE $0B $0D $01 $C1 $0B $01 $C1 $0B
7342: 01                         BYTE $01 $C1 $0B $01 $C1 $05 $61 $05
734A: 01                         BYTE $01 $C1 $04 $61 $41 $61 $04 $01
7352: C1                         BYTE $C1 $03 $61 $43 $61 $03 $01 $C1
735A: 02                         BYTE $02 $61 $45 $61 $02 $01 $C1 $01
7362: 61                         BYTE $61 $43 $C1 $43 $61 $01 $01 $C1
736A: 02                         BYTE $02 $61 $45 $61 $02 $01 $C1 $03
7372: 61                         BYTE $61 $43 $61 $03 $01 $C1 $04 $61
737A: 41                         BYTE $41 $61 $04 $01 $C1 $05 $61 $05
7382: 01                         BYTE $01 $C1 $0B $01 $C1 $0B $01 $C1
738A: 0B                         BYTE $0B $01 $CC $0D $FF $0D $0D $0D
7392: 0D                         BYTE $0D $01 $EB $01 $01 $E1 $09 $E1
739A: 01                         BYTE $01 $01 $E1 $01 $E7 $01 $E1 $01
73A2: 01                         BYTE $01 $E1 $01 $E1 $05 $E1 $01 $E1
73AA: 01                         BYTE $01 $01 $E1 $01 $E1 $01 $E3 $01
73B2: E1                         BYTE $E1 $01 $E1 $01 $01 $E1 $01 $E1
73BA: 01                         BYTE $01 $E1 $01 $E1 $01 $E1 $01 $E1
73C2: 01                         BYTE $01 $01 $E1 $01 $E1 $01 $E3 $01
73CA: E1                         BYTE $E1 $01 $E1 $01 $01 $E1 $01 $E1
73D2: 05                         BYTE $05 $E1 $01 $E1 $01 $01 $E1 $01
73DA: E7                         BYTE $E7 $01 $E1 $01 $01 $E1 $09 $E1
73E2: 01                         BYTE $01 $01 $EB $01 $0D $0D $0D $0D
73EA: FF                         BYTE $FF $0D $0D $0D $0D $CD $04 $C1
73F2: 05                         BYTE $05 $C1 $61 $01 $01 $C1 $61 $01
73FA: C1                         BYTE $C1 $05 $C1 $02 $01 $C1 $02 $C1
7402: 02                         BYTE $02 $C1 $02 $C1 $02 $01 $C1 $02
740A: C1                         BYTE $C1 $61 $01 $C1 $02 $C1 $02 $01
7412: C1                         BYTE $C1 $02 $C1 $02 $C1 $02 $C1 $02
741A: 01                         BYTE $01 $C1 $01 $61 $C1 $02 $C1 $01
7422: 61                         BYTE $61 $C1 $02 $01 $C1 $02 $C1 $02
742A: C1                         BYTE $C1 $02 $C1 $02 $01 $C1 $02 $C1
7432: 02                         BYTE $02 $C1 $02 $C1 $02 $01 $C1 $02
743A: C1                         BYTE $C1 $01 $61 $C1 $02 $C1 $02 $01
7442: C1                         BYTE $C1 $02 $C1 $02 $C1 $02 $C1 $02
744A: 01                         BYTE $01 $C1 $61 $04 $C1 $05 $01 $C1
7452: 05                         BYTE $05 $C1 $04 $61 $01 $CC $0D $FF
745A: 0D                         BYTE $0D $0D $0D $0D $01 $23 $01 $63
7462: 01                         BYTE $01 $23 $01 $01 $63 $01 $A3 $01
746A: 63                         BYTE $63 $01 $01 $63 $01 $A3 $01 $63
7472: 01                         BYTE $01 $01 $63 $01 $23 $01 $63 $01
747A: 01                         BYTE $01 $23 $01 $63 $01 $23 $01 $01
7482: 63                         BYTE $63 $01 $A3 $01 $63 $01 $01 $63
748A: 01                         BYTE $01 $A3 $01 $63 $01 $01 $63 $01
7492: 23                         BYTE $23 $01 $63 $01 $0D $0D $0D $0D
749A: 0D                         BYTE $0D $0D $0D $FF $0D $0D $0D $0D
74A2: 6D                         BYTE $6D $C1 $0B $C1 $6D $0D $A1 $EB
74AA: A1                         BYTE $A1 $C1 $0B $C1 $6D $0D $A1 $EB
74B2: A1                         BYTE $A1 $C1 $0B $C1 $6D $0D $6D $C1
74BA: 0B                         BYTE $0B $C1 $0D $FF $0D $0D $0D $0D
74C2: 0D                         BYTE $0D $41 $61 $C1 $67 $C1 $61 $41
74CA: 41                         BYTE $41 $61 $21 $C1 $65 $C1 $21 $61
74D2: 41                         BYTE $41 $41 $61 $22 $C1 $63 $C1 $22
74DA: 61                         BYTE $61 $41 $41 $61 $23 $C1 $61 $C1
74E2: 23                         BYTE $23 $61 $41 $41 $61 $24 $61 $24
74EA: 61                         BYTE $61 $41 $41 $61 $24 $61 $24 $61
74F2: 41                         BYTE $41 $41 $61 $24 $61 $24 $61 $41
74FA: 41                         BYTE $41 $E1 $24 $A1 $24 $E1 $41 $42
7502: E1                         BYTE $E1 $23 $A1 $23 $E1 $42 $43 $E1
750A: 22                         BYTE $22 $A1 $22 $E1 $43 $44 $E1 $21
7512: A1                         BYTE $A1 $21 $E1 $44 $45 $E1 $A1 $E1
751A: 45                         BYTE $45 $0D $0D $FF $0D $0D $0D $0D
7522: 06                         BYTE $06 $C1 $06 $04 $62 $01 $62 $04
752A: 02                         BYTE $02 $62 $02 $C1 $02 $62 $02 $62
7532: 02                         BYTE $02 $A2 $01 $A2 $02 $62 $02 $62
753A: 02                         BYTE $02 $C1 $02 $62 $02 $62 $02 $A2
7542: 01                         BYTE $01 $A2 $02 $62 $02 $62 $02 $C1
754A: 02                         BYTE $02 $62 $02 $62 $02 $A2 $01 $A2
7552: 02                         BYTE $02 $62 $02 $62 $02 $C1 $02 $62
755A: 02                         BYTE $02 $62 $02 $A2 $01 $A2 $02 $62
7562: 02                         BYTE $02 $62 $02 $C1 $02 $62 $02 $62
756A: 02                         BYTE $02 $A2 $01 $A2 $02 $62 $02 $62
7572: 05                         BYTE $05 $62 $02 $62 $09 $62 $0D $FF
757A: 0D                         BYTE $0D $0D $0D $0D $06 $E1 $06 $03
7582: A3                         BYTE $A3 $E1 $23 $03 $02 $63 $A3 $23
758A: 02                         BYTE $02 $02 $62 $A5 $22 $02 $01 $63
7592: A5                         BYTE $A5 $23 $01 $01 $63 $A5 $23 $01
759A: 01                         BYTE $01 $63 $A5 $23 $01 $01 $E1 $02
75A2: E1                         BYTE $E1 $01 $E1 $01 $E1 $02 $E1 $01
75AA: 06                         BYTE $06 $E1 $06 $06 $E1 $06 $06 $E1
75B2: 06                         BYTE $06 $04 $C1 $01 $C1 $06 $04 $C3
75BA: 06                         BYTE $06 $05 $C1 $07 $0D $FF $0D $0D
75C2: 0D                         BYTE $0D $0D $61 $01 $C1 $47 $C1 $01
75CA: 61                         BYTE $61 $61 $01 $C2 $45 $C2 $01 $61
75D2: 61                         BYTE $61 $01 $C1 $01 $C1 $43 $C1 $01
75DA: C1                         BYTE $C1 $01 $61 $61 $01 $C1 $01 $41
75E2: C1                         BYTE $C1 $41 $C1 $41 $01 $C1 $01 $61
75EA: 41                         BYTE $41 $01 $C1 $01 $41 $01 $E1 $01
75F2: 41                         BYTE $41 $01 $C1 $01 $41 $61 $01 $C1
75FA: 01                         BYTE $01 $41 $01 $21 $01 $41 $01 $C1
7602: 01                         BYTE $01 $61 $61 $01 $C1 $01 $41 $01
760A: 21                         BYTE $21 $01 $41 $01 $C1 $01 $61 $61
7612: 01                         BYTE $01 $C1 $01 $41 $01 $21 $01 $41
761A: 01                         BYTE $01 $C1 $01 $61 $61 $01 $C1 $01
7622: 41                         BYTE $41 $01 $21 $01 $41 $01 $C1 $01
762A: 61                         BYTE $61 $61 $C3 $41 $01 $21 $01 $41
7632: C3                         BYTE $C3 $61 $0D $0D $0D $0D $0D $FF
763A: 0D                         BYTE $0D $0D $0D $0D $02 $C9 $02 $02
7642: 21                         BYTE $21 $41 $61 $41 $C1 $41 $61 $41
764A: 21                         BYTE $21 $02 $02 $21 $41 $61 $41 $C1
7652: 41                         BYTE $41 $61 $41 $21 $02 $02 $21 $41
765A: 61                         BYTE $61 $41 $C1 $41 $61 $41 $21 $02
7662: 02                         BYTE $02 $21 $41 $61 $43 $61 $41 $21
766A: 02                         BYTE $02 $02 $21 $41 $61 $41 $C1 $41
7672: 61                         BYTE $61 $41 $21 $02 $02 $21 $41 $61
767A: 41                         BYTE $41 $C1 $41 $61 $41 $21 $02 $02
7682: 21                         BYTE $21 $41 $61 $41 $C1 $41 $61 $41
768A: 21                         BYTE $21 $02 $02 $C9 $02 $0D $0D $0D
7692: 0D                         BYTE $0D $0D $0D $FF $0D $0D $0D $0D
769A: C1                         BYTE $C1 $21 $C1 $61 $C1 $41 $C1 $21
76A2: C1                         BYTE $C1 $61 $C1 $61 $C1 $C1 $41 $C1
76AA: E1                         BYTE $E1 $C1 $E1 $C1 $E1 $C1 $E1 $C1
76B2: 21                         BYTE $21 $C1 $0D $C1 $61 $C1 $01 $C1
76BA: 01                         BYTE $01 $C1 $01 $C1 $01 $C1 $01 $C1
76C2: C1                         BYTE $C1 $01 $C1 $61 $C1 $01 $C1 $01
76CA: C1                         BYTE $C1 $01 $C1 $01 $C1 $C1 $01 $C1
76D2: 01                         BYTE $01 $C1 $61 $C1 $01 $C1 $01 $C1
76DA: 01                         BYTE $01 $C1 $C1 $01 $C1 $01 $C1 $01
76E2: C1                         BYTE $C1 $61 $C1 $01 $C1 $01 $C1 $C1
76EA: 01                         BYTE $01 $C1 $01 $C1 $01 $C1 $01 $C1
76F2: 61                         BYTE $61 $C1 $01 $C1 $0B $61 $01 $02
76FA: C1                         BYTE $C1 $01 $C1 $01 $C1 $01 $C1 $61
7702: C1                         BYTE $C1 $02 $02 $C1 $01 $C1 $01 $C1
770A: 61                         BYTE $61 $C1 $01 $C1 $02 $02 $C1 $01
7712: C1                         BYTE $C1 $61 $C1 $01 $C1 $01 $C1 $02
771A: 03                         BYTE $03 $61 $C1 $01 $C1 $01 $C1 $04
7722: 01                         BYTE $01 $61 $04 $C1 $06 $0D $FF $0D
772A: 0D                         BYTE $0D $0D $01 $C1 $69 $C1 $01 $01
7732: C1                         BYTE $C1 $09 $C1 $01 $01 $C1 $01 $C7
773A: 01                         BYTE $01 $C1 $01 $01 $C1 $01 $C1 $05
7742: C1                         BYTE $C1 $01 $C1 $01 $01 $C1 $01 $C1
774A: 05                         BYTE $05 $C1 $01 $C1 $01 $01 $C1 $01
7752: C1                         BYTE $C1 $01 $63 $01 $C1 $01 $C1 $01
775A: 01                         BYTE $01 $C1 $01 $C1 $01 $63 $01 $C1
7762: 01                         BYTE $01 $C1 $01 $01 $C1 $01 $C1 $01
776A: 63                         BYTE $63 $01 $C1 $01 $C1 $01 $01 $C1
7772: 01                         BYTE $01 $C1 $01 $63 $01 $C1 $01 $C1
777A: 01                         BYTE $01 $01 $C1 $01 $C1 $05 $C1 $01
7782: C1                         BYTE $C1 $01 $01 $C1 $01 $C1 $65 $C1
778A: 01                         BYTE $01 $C1 $01 $01 $C1 $09 $C1 $01
7792: 01                         BYTE $01 $C1 $09 $C1 $01 $01 $CB $01
779A: 0D                         BYTE $0D $0D $FF $0D $0D $0D $0D $6D
77A2: 6D                         BYTE $6D $0D $62 $C1 $01 $C1 $63 $C1
77AA: 01                         BYTE $01 $C1 $62 $62 $C1 $01 $C1 $63
77B2: C1                         BYTE $C1 $01 $C1 $62 $62 $C1 $01 $C1
77BA: 63                         BYTE $63 $C1 $01 $A1 $62 $62 $C1 $01
77C2: C1                         BYTE $C1 $63 $C1 $01 $C1 $62 $0D $6D
77CA: 6D                         BYTE $6D $0D $0D $0D $0D $0D $FF $0D
77D2: 0D                         BYTE $0D $0D $0D $6D $0D $02 $E3 $01
77DA: E3                         BYTE $E3 $01 $E3 $02 $E1 $A1 $E1 $01
77E2: E1                         BYTE $E1 $A1 $E1 $01 $E1 $A1 $E1 $02
77EA: E3                         BYTE $E3 $01 $E3 $01 $E3 $0D $01 $E3
77F2: 01                         BYTE $01 $E3 $01 $E3 $01 $01 $E1 $A1
77FA: E1                         BYTE $E1 $01 $E1 $A1 $E1 $01 $E1 $A1
7802: E1                         BYTE $E1 $01 $01 $E3 $01 $E3 $01 $E3
780A: 01                         BYTE $01 $0D $E3 $01 $E3 $01 $E3 $02
7812: E1                         BYTE $E1 $A1 $E1 $01 $E1 $A1 $E1 $01
781A: E1                         BYTE $E1 $A1 $E1 $02 $E3 $01 $E3 $01
7822: E3                         BYTE $E3 $02 $0D $0D $FF $0D $0D $0D
782A: 0D                         BYTE $0D $0D $0D $05 $63 $05 $05 $63
7832: 05                         BYTE $05 $05 $63 $05 $04 $65 $04 $04
783A: 61                         BYTE $61 $A1 $61 $A1 $61 $04 $03 $61
7842: A2                         BYTE $A2 $61 $A2 $61 $03 $03 $A7 $03
784A: 02                         BYTE $02 $A9 $02 $02 $A9 $02 $01 $AB
7852: 01                         BYTE $01 $AD $0D $0D $FF $0D $0D $0D
785A: 0D                         BYTE $0D $6D $6D $6D $C5 $E3 $C5 $C1
7862: 63                         BYTE $63 $C1 $03 $C1 $23 $C1 $C1 $63
786A: C1                         BYTE $C1 $03 $C1 $23 $C1 $C1 $0B $C1
7872: C1                         BYTE $C1 $0B $C1 $C1 $03 $C1 $63 $C1
787A: 03                         BYTE $03 $C1 $C1 $03 $C1 $63 $C1 $03
7882: C1                         BYTE $C1 $C1 $E3 $C5 $E3 $C1 $0D $0D
788A: 0D                         BYTE $0D $0D $FF $0D $0D $0D $0D $02
7892: C1                         BYTE $C1 $E3 $C1 $06 $01 $C1 $05 $C1
789A: 05                         BYTE $05 $C1 $02 $63 $02 $C1 $04 $C1
78A2: 01                         BYTE $01 $65 $01 $C1 $04 $C1 $01 $65
78AA: 01                         BYTE $01 $C1 $04 $C1 $02 $63 $02 $C1
78B2: 04                         BYTE $04 $01 $C1 $05 $C1 $05 $02 $C5
78BA: 06                         BYTE $06 $0D $0D $0D $0D $0D $0D $0D
78C2: FF                         BYTE $FF $0D $0D $0D $0D $0D $0D $0D
78CA: 0D                         BYTE $0D $0D $ED $6D $ED $0D $ED $6D
78D2: ED                         BYTE $ED $0D $0D $0D $FF $0D $0D $0D
78DA: 6D                         BYTE $6D $61 $C4 $41 $C1 $41 $C4 $61
78E2: 61                         BYTE $61 $C1 $09 $C1 $61 $61 $C1 $41
78EA: 07                         BYTE $07 $41 $C1 $61 $61 $C1 $42 $05
78F2: 42                         BYTE $42 $C1 $61 $61 $C1 $43 $03 $43
78FA: C1                         BYTE $C1 $61 $01 $61 $C1 $43 $01 $43
7902: C1                         BYTE $C1 $61 $01 $02 $61 $C1 $45 $C1
790A: 61                         BYTE $61 $02 $03 $61 $C1 $43 $C1 $61
7912: 03                         BYTE $03 $04 $61 $C1 $41 $C1 $61 $04
791A: 05                         BYTE $05 $61 $41 $61 $05 $06 $61 $06
7922: 0D                         BYTE $0D $0D $0D $0D $FF $0D $0D $0D
792A: 0D                         BYTE $0D $65 $C1 $01 $C1 $65 $65 $C1
7932: 01                         BYTE $01 $C1 $65 $C2 $61 $C3 $01 $C3
793A: 61                         BYTE $61 $C2 $65 $C1 $01 $C1 $65 $65
7942: C1                         BYTE $C1 $01 $C1 $65 $65 $C1 $01 $C1
794A: 65                         BYTE $65 $65 $C1 $01 $C1 $65 $E2 $41
7952: E2                         BYTE $E2 $C1 $01 $C1 $E2 $41 $E2 $65
795A: C1                         BYTE $C1 $01 $C1 $65 $65 $C1 $01 $C1
7962: 65                         BYTE $65 $0D $0D $0D $0D $0D $FF $0D
796A: 0D                         BYTE $0D $0D $0D $21 $41 $0B $21 $41
7972: 21                         BYTE $21 $41 $09 $21 $41 $21 $41 $21
797A: 41                         BYTE $41 $07 $21 $41 $21 $41 $21 $41
7982: 21                         BYTE $21 $41 $05 $21 $41 $21 $41 $21
798A: 41                         BYTE $41 $21 $41 $21 $41 $03 $E1 $41
7992: 21                         BYTE $21 $41 $21 $41 $21 $41 $21 $41
799A: 21                         BYTE $21 $41 $01 $01 $C1 $E1 $41 $21
79A2: 41                         BYTE $41 $21 $41 $21 $41 $21 $41 $21
79AA: 03                         BYTE $03 $C1 $E1 $41 $21 $41 $21 $41
79B2: 21                         BYTE $21 $41 $21 $05 $C1 $E1 $41 $21
79BA: 41                         BYTE $41 $21 $41 $21 $07 $C1 $E1 $41
79C2: 21                         BYTE $21 $41 $21 $09 $C1 $E1 $41 $21
79CA: 0B                         BYTE $0B $C1 $E1 $0D $0D $0D $FF $0D
79D2: 0D                         BYTE $0D $0D $0D $61 $01 $A1 $01 $21
79DA: 01                         BYTE $01 $41 $01 $61 $01 $A1 $01 $21
79E2: E1                         BYTE $E1 $01 $E1 $01 $E1 $01 $E1 $01
79EA: E1                         BYTE $E1 $01 $E1 $01 $E1 $01 $21 $01
79F2: A1                         BYTE $A1 $01 $61 $01 $41 $01 $21 $01
79FA: A1                         BYTE $A1 $01 $01 $E1 $01 $E1 $01 $E1
7A02: 01                         BYTE $01 $E1 $01 $E1 $01 $E1 $01 $41
7A0A: 01                         BYTE $01 $61 $01 $A1 $01 $21 $01 $A1
7A12: 01                         BYTE $01 $61 $01 $41 $E1 $01 $E1 $01
7A1A: E1                         BYTE $E1 $01 $E1 $01 $E1 $01 $E1 $01
7A22: E1                         BYTE $E1 $01 $A1 $01 $21 $01 $A1 $01
7A2A: 61                         BYTE $61 $01 $41 $01 $A1 $01 $01 $E1
7A32: 01                         BYTE $01 $E1 $01 $E1 $01 $E1 $01 $E1
7A3A: 01                         BYTE $01 $E1 $01 $61 $01 $41 $01 $61
7A42: 01                         BYTE $01 $A1 $01 $21 $01 $A1 $01 $61
7A4A: E1                         BYTE $E1 $01 $E1 $01 $E1 $01 $E1 $01
7A52: E1                         BYTE $E1 $01 $E1 $01 $E1 $01 $61 $01
7A5A: A1                         BYTE $A1 $01 $21 $01 $A1 $01 $61 $01
7A62: 41                         BYTE $41 $01 $01 $E1 $01 $E1 $01 $E1
7A6A: 01                         BYTE $01 $E1 $01 $E1 $01 $E1 $01 $61
7A72: 01                         BYTE $01 $A1 $01 $61 $01 $41 $01 $61
7A7A: 01                         BYTE $01 $21 $01 $A1 $E1 $01 $E1 $01
7A82: E1                         BYTE $E1 $01 $E1 $01 $E1 $01 $E1 $01
7A8A: E1                         BYTE $E1 $0D $FF $0D $0D $0D $0D $02
7A92: C1                         BYTE $C1 $01 $C1 $01 $C1 $01 $C1 $01
7A9A: C1                         BYTE $C1 $02 $02 $C1 $01 $C1 $01 $C1
7AA2: 01                         BYTE $01 $C1 $01 $C1 $02 $02 $C1 $01
7AAA: C1                         BYTE $C1 $01 $C1 $01 $C1 $62 $02 $02
7AB2: C1                         BYTE $C1 $01 $C1 $01 $C1 $01 $C1 $01
7ABA: C1                         BYTE $C1 $02 $02 $C1 $01 $C1 $01 $C1
7AC2: 64                         BYTE $64 $02 $02 $C1 $01 $C1 $01 $C1
7ACA: 01                         BYTE $01 $C1 $01 $C1 $02 $02 $C1 $01
7AD2: C1                         BYTE $C1 $66 $02 $02 $C1 $01 $C1 $01
7ADA: C1                         BYTE $C1 $01 $C1 $01 $C1 $02 $02 $C1
7AE2: 65                         BYTE $65 $C1 $62 $02 $02 $C1 $01 $C1
7AEA: 01                         BYTE $01 $C1 $01 $C1 $01 $C1 $02 $02
7AF2: 69                         BYTE $69 $02 $02 $69 $02 $0D $0D $0D
7AFA: FF                         BYTE $FF $00 $00 $00 $00 $00 $00 $00
7B02: 00                         BYTE $00 $00 $00 $00 $00 $00 $05 $00
7B0A: EF                         BYTE $EF $00 $75 $00 $46 $00 $3D $00
7B12: 65                         BYTE $65 $00 $00 $00 $00 $00 $00 $00
7B1A: 00                         BYTE $00 $00 $00 $00 $00 $00 $00 $00
7B22: 00                         BYTE $00 $00 $00 $00 $00 $00 $00 $00
7B2A: 0F                         BYTE $0F $00 $0F $00 $0E $EF $0F $EE
7B32: 0F                         BYTE $0F $EE $0F $EF $0E $EF $0F $EF
7B3A: 0F                         BYTE $0F $EF $0F $EF $0F $EF $0E $EE
7B42: 07                         BYTE $07 $BA $00 $00 $00 $00 $00 $00
7B4A: 00                         BYTE $00 $00 $00 $00 $00 $00 $00 $00
7B52: 75                         BYTE $75 $00 $00 $00 $0F $06 $00 $00
7B5A: EE                         BYTE $EE $00 $00 $00 $0F $06 $00 $00
7B62: 3A                         BYTE $3A $00 $00 $00 $44 $06 $00 $00
7B6A: 49                         BYTE $49 $00 $00 $00 $4D $06 $00 $00
7B72: 00                         BYTE $00 $00 $00 $00 $00 $00 $00 $00
7B7A: 09                         BYTE $09 $EF $06 $ED $06 $EE $06 $EF
7B82: 07                         BYTE $07 $EF $07 $EF $00 $EF $07 $EF
7B8A: 07                         BYTE $07 $EF $07 $EF $07 $EF $07 $EE
7B92: 06                         BYTE $06 $EF $07 $ED $00 $00 $00 $00
7B9A: 00                         BYTE $00 $00 $0F $00 $0F $00 $0F $00
7BA2: 0F                         BYTE $0F $00 $06 $00 $06 $00 $07 $EE
7BAA: 07                         BYTE $07 $EF $06 $00 $07 $00 $06 $00
7BB2: 06                         BYTE $06 $00 $07 $00 $07 $00 $07 $00
7BBA: 06                         BYTE $06 $00 $00 $00 $00 $00 $00 $00
7BC2: 00                         BYTE $00 $00 $00 $00 $EF $4D $EF $4C
7BCA: EF                         BYTE $EF $4C $EE $4A $EF $4B $EF $07
7BD2: EF                         BYTE $EF $4B $EF $4A $EF $4A $EF $4B
7BDA: EF                         BYTE $EF $06 $EF $4A $00 $00 $00 $00
7BE2: 00                         BYTE $00 $00 $00 $00 $00 $00 $00 $00
7BEA: 00                         BYTE $00 $00 $00 $00 $3D $03 $3C $00
7BF2: 3D                         BYTE $3D $EF $3C $EE $3C $EF $3D $EE
7BFA: 3D                         BYTE $3D $EF $24 $EF $06 $EF $10 $EF
7C02: 00                         BYTE $00 $EF $00 $EE $00 $EE $01 $EF
7C0A: 00                         BYTE $00 $00 $00 $00 $00 $00 $00 $00
7C12: 07                         BYTE $07 $06 $00 $07 $0C $07 $12 $0F
7C1A: EF                         BYTE $EF $07 $0F $07 $77 $00 $EF $06
7C22: 3B                         BYTE $3B $07 $0F $00 $00 $06 $00 $06
7C2A: 08                         BYTE $08 $07 $00 $00 $00 $00 $00 $00
7C32: 00                         BYTE $00 $00 $0A $06 $7B $06 $0F $06
7C3A: 00                         BYTE $00 $06 $00 $00 $0F $00 $0F $EF
7C42: 0F                         BYTE $0F $00 $0F $74 $0F $FE $0F $3A
7C4A: 00                         BYTE $00 $00 $00 $00 $00 $00 $00 $00
7C52: 00                         BYTE $00 $00 $00 $00 $01 $06 $00 $00
7C5A: 00                         BYTE $00 $06 $00 $07 $00 $07 $3A $07
7C62: 3B                         BYTE $3B $07 $3B $07 $3A $06 $3A $07
7C6A: 3B                         BYTE $3B $06 $3A $06 $3B $06 $3B $07
7C72: 00                         BYTE $00 $06 $00 $06 $00 $06 $00 $06
7C7A: 00                         BYTE $00 $00 $00 $00 $00 $00 $00 $00
7C82: 00                         BYTE $00 $00 $07 $00 $07 $00 $07 $00
7C8A: 06                         BYTE $06 $00 $07 $00 $07 $00 $07 $00
7C92: 07                         BYTE $07 $00 $07 $00 $07 $00 $07 $00
7C9A: 06                         BYTE $06 $00 $00 $00 $00 $00 $00 $00
7CA2: 00                         BYTE $00 $00 $00 $00 $00 $00 $00 $00
7CAA: 0A                         BYTE $0A $06 $EE $06 $0F $06 $00 $06
7CB2: 72                         BYTE $72 $06 $00 $06 $36 $07 $00 $07
7CBA: 00                         BYTE $00 $06 $EF $06 $08 $06 $0F $07
7CC2: 75                         BYTE $75 $07 $0B $06 $00 $00 $00 $00
7CCA: 00                         BYTE $00 $00 $00 $00 $00 $00 $0F $00
7CD2: 0E                         BYTE $0E $B8 $4D $0F $EF $00 $EF $00
7CDA: 0F                         BYTE $0F $4C $B9 $0F $0E $00 $00 $00
7CE2: 00                         BYTE $00 $00 $00 $00 $00 $00 $00 $00
7CEA: 00                         BYTE $00 $00 $00 $00 $00 $00 $00 $00
7CF2: 00                         BYTE $00 $00 $00 $00 $5A $00 $0A $07
7CFA: 4A                         BYTE $4A $00 $00 $00 $0B $FF $00 $07
7D02: 0F                         BYTE $0F $00 $00 $00 $0B $75 $00 $06
7D0A: EF                         BYTE $EF $00 $00 $00 $EF $00 $00 $06
7D12: 00                         BYTE $00 $00 $00 $0B $00 $00 $00 $00
7D1A: 00                         BYTE $00 $00 $00 $00 $0F $05 $0E $05
7D22: 0F                         BYTE $0F $05 $0F $05 $0E $00 $0E $00
7D2A: 0F                         BYTE $0F $00 $08 $0F $08 $0F $09 $0F
7D32: 08                         BYTE $08 $0F $09 $0F $00 $00 $00 $00
7D3A: 00                         BYTE $00 $00 $00 $00 $00 $00 $00 $00
7D42: 00                         BYTE $00 $05 $0F $00 $0F $04 $0E $EF
7D4A: EF                         BYTE $EF $04 $EE $0F $0F $04 $0F $74
7D52: 75                         BYTE $75 $05 $75 $EF $EF $04 $EF $3A
7D5A: 3A                         BYTE $3A $00 $3A $00 $00 $00 $00 $00
7D62: 00                         BYTE $00 $00 $00 $00 $00 $00 $0A $00
7D6A: 0A                         BYTE $0A $3B $3B $0F $3B $0F $3A $0F
7D72: 3B                         BYTE $3B $0F $3B $0F $09 $05 $08 $00
7D7A: 09                         BYTE $09 $00 $08 $00 $00 $04 $00 $04
7D82: 00                         BYTE $00 $05 $00 $00 $00 $00 $00 $00
7D8A: 00                         BYTE $00 $00 $00 $00 $EE $04 $EE $04
7D92: EE                         BYTE $EE $04 $EF $04 $09 $04 $EF $04
7D9A: EF                         BYTE $EF $04 $EE $04 $EF $04 $EF $04
7DA2: 00                         BYTE $00 $00 $00 $00 $00 $00 $00 $00
7DAA: 00                         BYTE $00 $00 $00 $00 $00 $00 $00 $00
7DB2: 00                         BYTE $00 $00 $07 $04 $EF $04 $EF $04
7DBA: EE                         BYTE $EE $04 $EE $00 $EF $04 $EE $04
7DC2: EF                         BYTE $EF $04 $00 $04 $00 $00 $00 $00
7DCA: 00                         BYTE $00 $00 $00 $00 $00 $00 $00 $00
7DD2: 00                         BYTE $00 $00 $00 $00 $00 $00 $00 $00
7DDA: EF                         BYTE $EF $04 $09 $04 $00 $00 $3A $04
7DE2: 3A                         BYTE $3A $04 $3A $04 $3A $04 $3B $04
7DEA: 3B                         BYTE $3B $00 $3B $04 $3B $04 $3A $04
7DF2: 3B                         BYTE $3B $04 $3B $04 $00 $00 $00 $00
7DFA: 00                         BYTE $00 $00 $00 $00 $EF $04 $00 $04
7E02: 00                         BYTE $00 $04 $00 $04 $00 $04 $EF $04
7E0A: 75                         BYTE $75 $04 $49 $04 $0F $04 $00 $04
7E12: 0F                         BYTE $0F $04 $00 $04 $00 $04 $00 $04
7E1A: 00                         BYTE $00 $00 $00 $00 $00 $00 $00 $00
7E22: 00                         BYTE $00 $00 $00 $00 $BA $00 $BB $00
7E2A: 00                         BYTE $00 $00 $2B $BA $2B $BA $2B $BB
7E32: 2B                         BYTE $2B $BB $00 $00 $77 $00 $76 $00
7E3A: 00                         BYTE $00 $00 $00 $00 $00 $00 $00 $00
7E42: 00                         BYTE $00 $00 $00 $00 $00 $00 $00 $00
7E4A: 00                         BYTE $00 $00 $0E $00 $00 $00 $09 $02
7E52: 08                         BYTE $08 $B9 $09 $00 $00 $00 $08 $00
7E5A: 08                         BYTE $08 $1A $08 $00 $00 $00 $08 $00
7E62: 08                         BYTE $08 $74 $08 $00 $00 $00 $00 $00
7E6A: 00                         BYTE $00 $00 $00 $00 $00 $00 $00 $00
7E72: 00                         BYTE $00 $00 $00 $00 $0F $00 $0F $00
7E7A: 0F                         BYTE $0F $00 $0F $00 $0F $74 $0F $74
7E82: 00                         BYTE $00 $74 $00 $74 $00 $74 $00 $74
7E8A: 0D                         BYTE $0D $75 $00 $00 $00 $00 $00 $00
7E92: 00                         BYTE $00 $00 $00 $00 $00 $00 $2C $00
7E9A: 0F                         BYTE $0F $00 $73 $03 $09 $AD $2D $AC
7EA2: 2D                         BYTE $2D $AC $00 $AC $00 $AA $CA $AD
7EAA: CA                         BYTE $CA $AA $09 $AB $00 $00 $00 $00
7EB2: 00                         BYTE $00 $00 $00 $00 $00 $00 $00 $00
7EBA: 00                         BYTE $00 $00 $00 $00 $08 $AC $00 $AC
7EC2: 0F                         BYTE $0F $AD $EF $AB $75 $AB $4B $AB
7ECA: 00                         BYTE $00 $AA $00 $AB $00 $00 $00 $00
7ED2: 00                         BYTE $00 $00 $00 $00 $00 $00 $00 $00
7EDA: 00                         BYTE $00 $00 $00 $00 $00 $00 $00 $00
7EE2: 00                         BYTE $00 $00 $00 $00 $00 $00 $00 $00
7EEA: 00                         BYTE $00 $00 $00 $00 $07 $03 $EF $00
7EF2: 06                         BYTE $06 $00 $00 $00 $06 $00 $1D $00
7EFA: 06                         BYTE $06 $00 $00 $00 $00 $00 $00 $00
7F02: 00                         BYTE $00 $00 $00 $00 $00 $00 $65 $02
7F0A: 65                         BYTE $65 $CF $64 $CF $65 $CF $65 $CF
7F12: 65                         BYTE $65 $CF $65 $CF $65 $CF $64 $CF
7F1A: 65                         BYTE $65 $CF $64 $00 $65 $00 $00 $00
7F22: 00                         BYTE $00 $00 $00 $00 $00 $00 $00 $00
7F2A: 00                         BYTE $00 $00 $00 $00 $00 $00 $EF $04
7F32: 47                         BYTE $47 $04 $0F $04 $65 $04 $35 $04
7F3A: B7                         BYTE $B7 $04 $0F $04 $09 $04 $16 $04
7F42: 0F                         BYTE $0F $04 $00 $00 $00 $00 $00 $00
7F4A: 00                         BYTE $00 $00 $00 $00 $00 $00 $00 $00
7F52: 00                         BYTE $00 $00 $00 $00 $00 $00 $00 $00
7F5A: 00                         BYTE $00 $00 $00 $00 $00 $00 $06 $04
7F62: 06                         BYTE $06 $FC $06 $FC $06 $FC $06 $FC
7F6A: 06                         BYTE $06 $FC $06 $FC $00 $00 $00 $00
7F72: 00                         BYTE $00 $00 $00 $00 $00 $00 $00 $00
7F7A: 00                         BYTE $00 $00 $EF $36 $06 $00 $EE $36
7F82: 06                         BYTE $06 $00 $47 $36 $06 $00 $EF $36
7F8A: 06                         BYTE $06 $00 $EF $36 $06 $00 $EF $18
7F92: 06                         BYTE $06 $00 $0F $18 $06 $00 $00 $00
7F9A: 00                         BYTE $00 $00 $00 $00 $00 $00 $00 $00
7FA2: FD                         BYTE $FD $DB $00 $DB $0F $DB $00 $DB
7FAA: 1F                         BYTE $1F $DB $00 $DB $65 $DB $00 $DB
7FB2: 0F                         BYTE $0F $DB $00 $DA $0F $00 $64 $00
7FBA: 00                         BYTE $00 $00 $00 $00 $00 $00 $00 $00
7FC2: 00                         BYTE $00 $00 $00 $00 $00 $00 $00 $00
7FCA: 00                         BYTE $00 $00 $00 $00 $00 $00 $00 $00
7FD2: 00                         BYTE $00 $00 $00 $00 $00 $00 $00 $00
7FDA: 00                         BYTE $00 $00 $00 $00 $00 $00 $00 $00
7FE2: 00                         BYTE $00 $00 $00 $00 $00 $00 $00 $00
7FEA: 00                         BYTE $00 $00 $00 $00 $00 $00 $00 $00
7FF2: 00                         BYTE $00 $00 $00 $00 $00 $00 $00 $00
7FFA: 00        L_7FFA           BYTE $00 $00 $00 $00 $03 $00 $00 $00
8002: 00                         BYTE $00 $00 $00 $00 $00 $00 $00 $03
800A: 0C                         BYTE $0C $03 $0F $0F $03 $00 $00 $C5
8012: 0F                         BYTE $0F $C5 $C5 $CF $C5 $00 $00 $55
801A: FF                         BYTE $FF $55 $55 $FF $55 $00 $00 $53
8022: F0                         BYTE $F0 $53 $53 $F3 $53 $00 $00 $C0
802A: 30                         BYTE $30 $C0 $F0 $F0 $C0 $00 $00 $00
8032: 00                         BYTE $00 $00 $00 $00 $00 $00 $00 $00
803A: 00                         BYTE $00 $00 $00 $00 $00 $00 $00 $00
8042: 00                         BYTE $00 $00 $00 $00 $00 $00 $00 $00
804A: 03                         BYTE $03 $00 $03 $03 $00 $00 $00 $F1
8052: 03                         BYTE $03 $F1 $F1 $F3 $F1 $00 $00 $55
805A: FF                         BYTE $FF $55 $55 $FF $55 $00 $00 $54
8062: FC                         BYTE $FC $54 $54 $FC $54 $00 $00 $F0
806A: 0C                         BYTE $0C $F0 $FC $FC $F0 $00 $00 $00
8072: 00                         BYTE $00 $00 $00 $00 $00 $00 $00 $00
807A: 00                         BYTE $00 $00 $00 $00 $00 $00 $00 $00
8082: 00                         BYTE $00 $00 $00 $00 $00 $00 $00 $00
808A: 00                         BYTE $00 $00 $00 $00 $00 $00 $00 $3C
8092: C0                         BYTE $C0 $3C $FC $FC $3C $00 $00 $55
809A: FF                         BYTE $FF $55 $55 $FF $55 $00 $00 $55
80A2: FF                         BYTE $FF $55 $55 $FF $55 $00 $00 $3C
80AA: 03                         BYTE $03 $3C $3F $3F $3C $00 $00 $00
80B2: 00                         BYTE $00 $00 $00 $00 $00 $00 $00 $00
80BA: 00                         BYTE $00 $00 $00 $00 $00 $00 $00 $00
80C2: 00                         BYTE $00 $00 $00 $00 $00 $00 $00 $00
80CA: 00                         BYTE $00 $00 $00 $00 $00 $00 $00 $0F
80D2: 30                         BYTE $30 $0F $3F $3F $0F $00 $00 $15
80DA: 3F                         BYTE $3F $15 $15 $3F $15 $00 $00 $55
80E2: FF                         BYTE $FF $55 $55 $FF $55 $00 $00 $4F
80EA: C0                         BYTE $C0 $4F $4F $CF $4F $00 $00 $00
80F2: C0                         BYTE $C0 $00 $C0 $C0 $00 $00 $00 $00
80FA: 00                         BYTE $00 $00 $00 $00 $00 $00 $00 $00
8102: 03                         BYTE $03 $00 $03 $03 $00 $00 $00 $F1
810A: 03                         BYTE $03 $F1 $F1 $F3 $F1 $00 $00 $55
8112: FF                         BYTE $FF $55 $55 $FF $55 $00 $00 $55
811A: FF                         BYTE $FF $55 $55 $FF $55 $00 $00 $55
8122: FF                         BYTE $FF $55 $55 $FF $55 $00 $00 $4F
812A: C0                         BYTE $C0 $4F $4F $CF $4F $00 $00 $00
8132: C0                         BYTE $C0 $00 $C0 $C0 $00 $00 $00 $00
813A: 00                         BYTE $00 $00 $00 $00 $00 $00 $00 $00
8142: 00                         BYTE $00 $00 $00 $00 $00 $00 $00 $3C
814A: C0                         BYTE $C0 $3C $FC $FC $3C $00 $00 $55
8152: FF                         BYTE $FF $55 $55 $FF $55 $00 $00 $55
815A: FF                         BYTE $FF $55 $55 $FF $55 $00 $00 $55
8162: FF                         BYTE $FF $55 $55 $FF $55 $00 $00 $53
816A: F0                         BYTE $F0 $53 $53 $F3 $53 $00 $00 $C0
8172: 30                         BYTE $30 $C0 $F0 $F0 $C0 $00 $00 $00
817A: 00                         BYTE $00 $00 $00 $00 $00 $00 $00 $00
8182: 00                         BYTE $00 $00 $00 $00 $00 $00 $00 $0F
818A: 30                         BYTE $30 $0F $3F $3F $0F $00 $00 $15
8192: 3F                         BYTE $3F $15 $15 $3F $15 $00 $00 $55
819A: FF                         BYTE $FF $55 $55 $FF $55 $00 $00 $55
81A2: FF                         BYTE $FF $55 $55 $FF $55 $00 $00 $54
81AA: FC                         BYTE $FC $54 $54 $FC $54 $00 $00 $F0
81B2: 0C                         BYTE $0C $F0 $FC $FC $F0 $00 $00 $00
81BA: 00                         BYTE $00 $00 $00 $00 $00 $00 $00 $00
81C2: 00                         BYTE $00 $00 $00 $00 $00 $00 $00 $03
81CA: 0C                         BYTE $0C $03 $0F $0F $03 $00 $00 $C5
81D2: 0F                         BYTE $0F $C5 $C5 $CF $C5 $00 $00 $55
81DA: FF                         BYTE $FF $55 $55 $FF $55 $00 $00 $55
81E2: FF                         BYTE $FF $55 $55 $FF $55 $00 $00 $55
81EA: FF                         BYTE $FF $55 $55 $FF $55 $00 $00 $3C
81F2: 03                         BYTE $03 $3C $3F $3F $3C $00 $00 $00
81FA: 00                         BYTE $00 $00 $00 $00 $00 $00 $00 $0F
8202: 30                         BYTE $30 $0F $3F $3F $0F $00 $00 $15
820A: 3F                         BYTE $3F $15 $15 $3F $15 $00 $00 $55
8212: FF                         BYTE $FF $55 $55 $FF $55 $00 $00 $55
821A: FF                         BYTE $FF $55 $55 $FF $55 $00 $00 $55
8222: FF                         BYTE $FF $55 $55 $FF $55 $00 $00 $55
822A: FF                         BYTE $FF $55 $55 $FF $55 $00 $00 $3C
8232: 03                         BYTE $03 $3C $3F $3F $3C $00 $00 $00
823A: 00                         BYTE $00 $00 $00 $00 $00 $00 $00 $03
8242: 0C                         BYTE $0C $03 $0F $0F $03 $00 $00 $C5
824A: 0F                         BYTE $0F $C5 $C5 $CF $C5 $00 $00 $55
8252: FF                         BYTE $FF $55 $55 $FF $55 $00 $00 $55
825A: FF                         BYTE $FF $55 $55 $FF $55 $00 $00 $55
8262: FF                         BYTE $FF $55 $55 $FF $55 $00 $00 $55
826A: FF                         BYTE $FF $55 $55 $FF $55 $00 $00 $4F
8272: C0                         BYTE $C0 $4F $4F $CF $4F $00 $00 $00
827A: C0                         BYTE $C0 $00 $C0 $C0 $00 $00 $00 $00
8282: 03                         BYTE $03 $00 $03 $03 $00 $00 $00 $F1
828A: 03                         BYTE $03 $F1 $F1 $F3 $F1 $00 $00 $55
8292: FF                         BYTE $FF $55 $55 $FF $55 $00 $00 $55
829A: FF                         BYTE $FF $55 $55 $FF $55 $00 $00 $55
82A2: FF                         BYTE $FF $55 $55 $FF $55 $00 $00 $55
82AA: FF                         BYTE $FF $55 $55 $FF $55 $00 $00 $53
82B2: F0                         BYTE $F0 $53 $53 $F3 $53 $00 $00 $C0
82BA: 30                         BYTE $30 $C0 $F0 $F0 $C0 $00 $00 $00
82C2: 00                         BYTE $00 $00 $00 $00 $00 $00 $00 $3C
82CA: C0                         BYTE $C0 $3C $FC $FC $3C $00 $00 $55
82D2: FF                         BYTE $FF $55 $55 $FF $55 $00 $00 $55
82DA: FF                         BYTE $FF $55 $55 $FF $55 $00 $00 $55
82E2: FF                         BYTE $FF $55 $55 $FF $55 $00 $00 $55
82EA: FF                         BYTE $FF $55 $55 $FF $55 $00 $00 $54
82F2: FC                         BYTE $FC $54 $54 $FC $54 $00 $00 $F0
82FA: 0C                         BYTE $0C $F0 $FC $FC $F0 $00 $00 $00
8302: 00                         BYTE $00 $00 $00 $00 $00 $00 $03 $0F
830A: 3C                         BYTE $3C $FF $FC $F1 $0C $00 $C0 $3F
8312: C0                         BYTE $C0 $FF $00 $55 $55 $00 $00 $FF
831A: 00                         BYTE $00 $FF $30 $31 $31 $00 $0F $F3
8322: 0C                         BYTE $0C $FF $00 $55 $54 $00 $00 $C0
832A: F0                         BYTE $F0 $FC $FC $3C $C0 $00 $00 $00
8332: 00                         BYTE $00 $00 $00 $00 $00 $00 $00 $00
833A: 00                         BYTE $00 $00 $00 $00 $00 $00 $00 $00
8342: 00                         BYTE $00 $00 $00 $00 $00 $00 $00 $03
834A: 0F                         BYTE $0F $3F $3F $3C $03 $00 $F0 $CF
8352: 30                         BYTE $30 $FF $00 $55 $15 $00 $00 $FF
835A: 00                         BYTE $00 $FF $0C $4C $4C $00 $03 $FC
8362: 03                         BYTE $03 $FF $00 $55 $55 $00 $C0 $F0
836A: 3C                         BYTE $3C $FF $3F $4F $30 $00 $00 $00
8372: 00                         BYTE $00 $00 $00 $00 $00 $00 $00 $00
837A: 00                         BYTE $00 $00 $00 $00 $00 $00 $00 $00
8382: 00                         BYTE $00 $00 $00 $00 $00 $00 $00 $00
838A: 03                         BYTE $03 $0F $0F $0F $00 $00 $3C $F3
8392: CC                         BYTE $CC $FF $C0 $15 $C5 $00 $00 $FF
839A: 00                         BYTE $00 $FF $03 $53 $53 $00 $00 $FF
83A2: 00                         BYTE $00 $FF $00 $15 $15 $00 $F0 $3C
83AA: CF                         BYTE $CF $FF $0F $53 $4C $00 $00 $00
83B2: 00                         BYTE $00 $C0 $C0 $C0 $00 $00 $00 $00
83BA: 00                         BYTE $00 $00 $00 $00 $00 $00 $00 $00
83C2: 00                         BYTE $00 $00 $00 $00 $00 $00 $00 $00
83CA: 00                         BYTE $00 $03 $03 $03 $00 $00 $0F $3C
83D2: F3                         BYTE $F3 $FF $F0 $C5 $31 $00 $00 $FF
83DA: 00                         BYTE $00 $FF $00 $54 $54 $00 $00 $FF
83E2: 00                         BYTE $00 $FF $C0 $C5 $C5 $00 $3C $CF
83EA: 33                         BYTE $33 $FF $03 $54 $53 $00 $00 $00
83F2: C0                         BYTE $C0 $F0 $F0 $F0 $00 $00 $00 $00
83FA: 00                         BYTE $00 $00 $00 $00 $00 $00 $FF $FF
8402: FF                         BYTE $FF $FF $FF $FF $FF $FF $FC $F0
840A: C0                         BYTE $C0 $C0 $C0 $C0 $F0 $FC $00 $00
8412: 00                         BYTE $00 $00 $00 $00 $00 $00 $00 $00
841A: 00                         BYTE $00 $00 $00 $00 $00 $00 $00 $00
8422: 00                         BYTE $00 $00 $00 $00 $00 $00 $3F $0F
842A: 03                         BYTE $03 $03 $03 $03 $0F $3F $FF $FF
8432: FF                         BYTE $FF $FF $FF $FF $FF $FF $FF $FF
843A: FF                         BYTE $FF $FF $FF $FF $FF $FF $FF $FF
8442: FF                         BYTE $FF $FF $FF $FF $FF $FF $FF $FC
844A: F0                         BYTE $F0 $F0 $F0 $F0 $FC $FF $00 $00
8452: 00                         BYTE $00 $00 $00 $00 $00 $00 $00 $00
845A: 00                         BYTE $00 $00 $00 $00 $00 $00 $00 $00
8462: 00                         BYTE $00 $00 $00 $00 $00 $00 $0F $03
846A: 00                         BYTE $00 $00 $00 $00 $03 $0F $FF $FF
8472: FF                         BYTE $FF $FF $FF $FF $FF $FF $FF $FF
847A: FF                         BYTE $FF $FF $FF $FF $FF $FF $FF $FF
8482: FF                         BYTE $FF $FF $FF $FF $FF $FF $FF $FF
848A: FC                         BYTE $FC $FC $FC $FC $FF $FF $C0 $00
8492: 00                         BYTE $00 $00 $00 $00 $00 $C0 $00 $00
849A: 00                         BYTE $00 $00 $00 $00 $00 $00 $00 $00
84A2: 00                         BYTE $00 $00 $00 $00 $00 $00 $03 $00
84AA: 00                         BYTE $00 $00 $00 $00 $00 $03 $FF $FF
84B2: 3F                         BYTE $3F $3F $3F $3F $FF $FF $FF $FF
84BA: FF                         BYTE $FF $FF $FF $FF $FF $FF $FF $FF
84C2: FF                         BYTE $FF $FF $FF $FF $FF $FF $FF $FF
84CA: FF                         BYTE $FF $FF $FF $FF $FF $FF $F0 $C0
84D2: 00                         BYTE $00 $00 $00 $00 $C0 $F0 $00 $00
84DA: 00                         BYTE $00 $00 $00 $00 $00 $00 $00 $00
84E2: 00                         BYTE $00 $00 $00 $00 $00 $00 $00 $00
84EA: 00                         BYTE $00 $00 $00 $00 $00 $00 $FF $3F
84F2: 0F                         BYTE $0F $0F $0F $0F $3F $FF $FF $FF
84FA: FF                         BYTE $FF $FF $FF $FF $FF $FF $FF $FC
8502: F0                         BYTE $F0 $F0 $F0 $F0 $FC $FF $00 $00
850A: 00                         BYTE $00 $00 $00 $00 $00 $00 $00 $00
8512: 00                         BYTE $00 $00 $00 $00 $00 $00 $00 $00
851A: 00                         BYTE $00 $00 $00 $00 $00 $00 $00 $00
8522: 00                         BYTE $00 $00 $00 $00 $00 $00 $00 $00
852A: 00                         BYTE $00 $00 $00 $00 $00 $00 $FF $3F
8532: 0F                         BYTE $0F $0F $0F $0F $3F $FF $FF $FF
853A: FF                         BYTE $FF $FF $FF $FF $FF $FF $FF $FF
8542: FC                         BYTE $FC $FC $FC $FC $FF $FF $C0 $00
854A: 00                         BYTE $00 $00 $00 $00 $00 $C0 $00 $00
8552: 00                         BYTE $00 $00 $00 $00 $00 $00 $00 $00
855A: 00                         BYTE $00 $00 $00 $00 $00 $00 $00 $00
8562: 00                         BYTE $00 $00 $00 $00 $00 $00 $00 $00
856A: 00                         BYTE $00 $00 $00 $00 $00 $00 $3F $0F
8572: 03                         BYTE $03 $03 $03 $03 $0F $3F $FF $FF
857A: FF                         BYTE $FF $FF $FF $FF $FF $FF $FF $FF
8582: FF                         BYTE $FF $FF $FF $FF $FF $FF $F0 $C0
858A: 00                         BYTE $00 $00 $00 $00 $C0 $F0 $00 $00
8592: 00                         BYTE $00 $00 $00 $00 $00 $00 $00 $00
859A: 00                         BYTE $00 $00 $00 $00 $00 $00 $00 $00
85A2: 00                         BYTE $00 $00 $00 $00 $00 $00 $00 $00
85AA: 00                         BYTE $00 $00 $00 $00 $00 $00 $0F $03
85B2: 00                         BYTE $00 $00 $00 $00 $03 $0F $FF $FF
85BA: FF                         BYTE $FF $FF $FF $FF $FF $FF $FF $FF
85C2: FF                         BYTE $FF $FF $FF $FF $FF $FF $FC $F0
85CA: C0                         BYTE $C0 $C0 $C0 $C0 $F0 $FC $00 $00
85D2: 00                         BYTE $00 $00 $00 $00 $00 $00 $00 $00
85DA: 00                         BYTE $00 $00 $00 $00 $00 $00 $00 $00
85E2: 00                         BYTE $00 $00 $00 $00 $00 $00 $00 $00
85EA: 00                         BYTE $00 $00 $00 $00 $00 $00 $03 $00
85F2: 00                         BYTE $00 $00 $00 $00 $00 $03 $FF $FF
85FA: 3F                         BYTE $3F $3F $3F $3F $FF $FF $F0 $C0
8602: 00                         BYTE $00 $00 $00 $00 $C0 $F0 $00 $00
860A: 00                         BYTE $00 $00 $00 $00 $00 $00 $00 $00
8612: 00                         BYTE $00 $00 $00 $00 $00 $00 $00 $00
861A: 00                         BYTE $00 $00 $00 $00 $00 $00 $00 $00
8622: 00                         BYTE $00 $00 $00 $00 $00 $00 $00 $00
862A: 00                         BYTE $00 $00 $00 $00 $00 $00 $03 $00
8632: 00                         BYTE $00 $00 $00 $00 $00 $03 $FF $FF
863A: 3F                         BYTE $3F $3F $3F $3F $FF $FF $FC $F0
8642: C0                         BYTE $C0 $C0 $C0 $C0 $F0 $FC $00 $00
864A: 00                         BYTE $00 $00 $00 $00 $00 $00 $00 $00
8652: 00                         BYTE $00 $00 $00 $00 $00 $00 $00 $00
865A: 00                         BYTE $00 $00 $00 $00 $00 $00 $00 $00
8662: 00                         BYTE $00 $00 $00 $00 $00 $00 $00 $00
866A: 00                         BYTE $00 $00 $00 $00 $00 $00 $00 $00
8672: 00                         BYTE $00 $00 $00 $00 $00 $00 $FF $3F
867A: 0F                         BYTE $0F $0F $0F $0F $3F $FF $FF $FC
8682: F0                         BYTE $F0 $F0 $F0 $F0 $FC $FF $00 $00
868A: 00                         BYTE $00 $00 $00 $00 $00 $00 $00 $00
8692: 00                         BYTE $00 $00 $00 $00 $00 $00 $00 $00
869A: 00                         BYTE $00 $00 $00 $00 $00 $00 $00 $00
86A2: 00                         BYTE $00 $00 $00 $00 $00 $00 $00 $00
86AA: 00                         BYTE $00 $00 $00 $00 $00 $00 $00 $00
86B2: 00                         BYTE $00 $00 $00 $00 $00 $00 $3F $0F
86BA: 03                         BYTE $03 $03 $03 $03 $0F $3F $FF $FF
86C2: FC                         BYTE $FC $FC $FC $FC $FF $FF $C0 $00
86CA: 00                         BYTE $00 $00 $00 $00 $00 $C0 $00 $00
86D2: 00                         BYTE $00 $00 $00 $00 $00 $00 $00 $00
86DA: 00                         BYTE $00 $00 $00 $00 $00 $00 $00 $00
86E2: 00                         BYTE $00 $00 $00 $00 $00 $00 $00 $00
86EA: 00                         BYTE $00 $00 $00 $00 $00 $00 $00 $00
86F2: 00                         BYTE $00 $00 $00 $00 $00 $00 $0F $03
86FA: 00                         BYTE $00 $00 $00 $00 $03 $0F $FF $FF
8702: FF                         BYTE $FF $FC $FC $FC $FF $FF $F0 $C0
870A: 00                         BYTE $00 $00 $00 $00 $00 $F3 $00 $00
8712: 00                         BYTE $00 $00 $00 $00 $00 $00 $00 $00
871A: 00                         BYTE $00 $00 $00 $00 $00 $00 $00 $00
8722: 00                         BYTE $00 $00 $00 $00 $00 $03 $3F $0F
872A: 03                         BYTE $03 $00 $00 $00 $03 $3F $FF $FF
8732: FF                         BYTE $FF $FF $FF $FF $FF $FF $FF $FF
873A: FF                         BYTE $FF $FF $FF $FF $FF $FF $FF $FF
8742: FF                         BYTE $FF $FF $FF $FF $FF $FF $FC $F0
874A: C0                         BYTE $C0 $00 $00 $00 $C0 $FC $00 $00
8752: 00                         BYTE $00 $00 $00 $00 $00 $C0 $00 $00
875A: 00                         BYTE $00 $00 $00 $00 $00 $00 $00 $00
8762: 00                         BYTE $00 $00 $00 $00 $00 $00 $0F $03
876A: 00                         BYTE $00 $00 $00 $00 $00 $CF $FF $FF
8772: FF                         BYTE $FF $3F $3F $3F $FF $FF $FF $FF
877A: FF                         BYTE $FF $FF $FF $FF $FF $FF $FF $FF
8782: FF                         BYTE $FF $FF $FF $FF $FF $FF $FF $FC
878A: F0                         BYTE $F0 $C0 $C0 $C0 $F0 $FF $00 $00
8792: 00                         BYTE $00 $00 $00 $00 $00 $30 $00 $00
879A: 00                         BYTE $00 $00 $00 $00 $00 $00 $00 $00
87A2: 00                         BYTE $00 $00 $00 $00 $00 $00 $03 $00
87AA: 00                         BYTE $00 $00 $00 $00 $00 $33 $FF $FF
87B2: 3F                         BYTE $3F $0F $0F $0F $3F $FF $FF $FF
87BA: FF                         BYTE $FF $FF $FF $FF $FF $FF $FF $FF
87C2: FF                         BYTE $FF $FF $FF $FF $FF $FF $FF $FF
87CA: FC                         BYTE $FC $F0 $F0 $F0 $FC $FF $C0 $00
87D2: 00                         BYTE $00 $00 $00 $00 $00 $CC $00 $00
87DA: 00                         BYTE $00 $00 $00 $00 $00 $00 $00 $00
87E2: 00                         BYTE $00 $00 $00 $00 $00 $00 $00 $00
87EA: 00                         BYTE $00 $00 $00 $00 $00 $0C $FF $3F
87F2: 0F                         BYTE $0F $03 $03 $03 $0F $FF $FF $FF
87FA: FF                         BYTE $FF $FF $FF $FF $FF $FF $00 $00
8802: 00                         BYTE $00 $00 $00 $00 $00 $00 $00 $3F
880A: 3F                         BYTE $3F $3F $3F $3F $3F $00 $00 $FC
8812: FC                         BYTE $FC $FC $FC $FC $FC $00 $00 $3F
881A: 3F                         BYTE $3F $3F $3F $3F $3F $00 $00 $FC
8822: FC                         BYTE $FC $FC $FC $FC $FC $00 $00 $15
882A: 15                         BYTE $15 $15 $15 $15 $15 $00 $00 $54
8832: 54                         BYTE $54 $54 $54 $54 $54 $00 $00 $2A
883A: 2A                         BYTE $2A $2A $2A $2A $2A $00 $00 $A8
8842: A8                         BYTE $A8 $A8 $A8 $A8 $A8 $00 $00 $3F
884A: 3F                         BYTE $3F $3F $3F $3F $3F $00 $00 $FC
8852: FC                         BYTE $FC $FC $FC $FD $FD $15 $00 $3F
885A: 3F                         BYTE $3F $3F $3F $3F $3F $01 $00 $FC
8862: FC                         BYTE $FC $FD $FD $FD $FD $55 $00 $3F
886A: 3F                         BYTE $3F $3F $3F $3F $3F $55 $00 $FD
8872: FD                         BYTE $FD $FD $FD $FD $FD $55 $55 $7F
887A: 7F                         BYTE $7F $7F $7F $7F $7F $55 $55 $FD
8882: FD                         BYTE $FD $FD $FD $FD $FD $55 $55 $55
888A: 55                         BYTE $55 $55 $55 $55 $55 $55 $55 $55
8892: 55                         BYTE $55 $55 $55 $55 $55 $55 $00 $00
889A: 00                         BYTE $00 $00 $01 $01 $01 $01 $00 $15
88A2: 55                         BYTE $55 $50 $40 $4A $2A $28 $00 $54
88AA: 55                         BYTE $55 $05 $01 $A1 $A8 $28 $00 $00
88B2: 00                         BYTE $00 $00 $40 $40 $40 $40 $00 $55
88BA: 55                         BYTE $55 $00 $00 $AA $AA $00 $02 $02
88C2: 02                         BYTE $02 $02 $00 $00 $00 $00 $14 $15
88CA: 85                         BYTE $85 $80 $A0 $AA $2A $00 $14 $54
88D2: 52                         BYTE $52 $02 $0A $AA $A8 $00 $80 $80
88DA: 80                         BYTE $80 $80 $00 $00 $00 $00 $00 $55
88E2: 55                         BYTE $55 $00 $00 $AA $AA $00 $00 $3F
88EA: 3F                         BYTE $3F $3F $3F $3F $3F $00 $00 $FC
88F2: FC                         BYTE $FC $FC $FC $FC $FC $00 $00 $00
88FA: 00                         BYTE $00 $00 $00 $00 $00 $00 $00 $00
8902: 00                         BYTE $00 $00 $00 $00 $00 $00 $00 $00
890A: 00                         BYTE $00 $00 $00 $00 $00 $00 $00 $01
8912: 00                         BYTE $00 $01 $05 $05 $05 $05 $00 $28
891A: 00                         BYTE $00 $28 $28 $28 $28 $28 $05 $00
8922: 05                         BYTE $05 $00 $05 $00 $05 $00 $28 $00
892A: 28                         BYTE $28 $00 $28 $00 $28 $00 $05 $05
8932: 05                         BYTE $05 $05 $01 $00 $01 $00 $28 $28
893A: 28                         BYTE $28 $28 $28 $00 $28 $00 $01 $01
8942: 01                         BYTE $01 $01 $01 $01 $01 $01 $28 $28
894A: 28                         BYTE $28 $28 $28 $28 $28 $28 $00 $14
8952: 00                         BYTE $00 $14 $14 $14 $14 $14 $00 $80
895A: 00                         BYTE $00 $80 $A0 $A0 $A0 $A0 $14 $00
8962: 14                         BYTE $14 $00 $14 $00 $14 $00 $A0 $00
896A: A0                         BYTE $A0 $00 $A0 $00 $A0 $00 $14 $14
8972: 14                         BYTE $14 $14 $14 $00 $14 $00 $A0 $A0
897A: A0                         BYTE $A0 $A0 $80 $00 $80 $00 $14 $14
8982: 14                         BYTE $14 $14 $14 $14 $14 $14 $80 $80
898A: 80                         BYTE $80 $80 $80 $80 $80 $80 $05 $15
8992: 2A                         BYTE $2A $00 $00 $2A $2A $0A $00 $14
899A: 28                         BYTE $28 $00 $00 $28 $28 $28 $50 $54
89A2: A8                         BYTE $A8 $00 $00 $A8 $A8 $A0 $05 $15
89AA: 2A                         BYTE $2A $00 $00 $2A $2A $0A $00 $14
89B2: 28                         BYTE $28 $00 $00 $28 $28 $28 $50 $54
89BA: A8                         BYTE $A8 $00 $00 $A8 $A8 $A0 $AA $AA
89C2: A8                         BYTE $A8 $A8 $A2 $00 $A2 $A2 $0A $20
89CA: 8A                         BYTE $8A $8A $A2 $A2 $08 $A0 $A2 $A2
89D2: 00                         BYTE $00 $80 $80 $00 $00 $00 $A0 $02
89DA: 02                         BYTE $02 $0A $0A $2A $20 $0A $A2 $A2
89E2: 00                         BYTE $00 $80 $80 $00 $00 $00 $A0 $00
89EA: 02                         BYTE $02 $02 $0A $0A $20 $0A $AA $AA
89F2: A8                         BYTE $A8 $A8 $A2 $00 $A2 $A2 $0A $20
89FA: 8A                         BYTE $8A $8A $A2 $A2 $08 $A0 $AA $AA
8A02: A8                         BYTE $A8 $A8 $A2 $00 $A2 $A2 $0A $20
8A0A: 8A                         BYTE $8A $8A $A2 $A2 $08 $A0 $A2 $A2
8A12: 00                         BYTE $00 $80 $80 $00 $00 $00 $A0 $00
8A1A: 02                         BYTE $02 $02 $0A $0A $20 $0A $A2 $A2
8A22: 00                         BYTE $00 $80 $80 $00 $00 $00 $A0 $08
8A2A: 02                         BYTE $02 $02 $0A $0A $20 $0A $AA $AA
8A32: A8                         BYTE $A8 $A8 $A2 $00 $A2 $A2 $0A $20
8A3A: 8A                         BYTE $8A $8A $A2 $A2 $08 $A0 $0A $20
8A42: 8A                         BYTE $8A $8A $A2 $A2 $08 $A0 $A0 $A3
8A4A: 0C                         BYTE $0C $83 $8F $0F $03 $00 $00 $C5
8A52: 0F                         BYTE $0F $C5 $C5 $CF $C5 $00 $00 $55
8A5A: FF                         BYTE $FF $55 $55 $FF $55 $00 $00 $53
8A62: F0                         BYTE $F0 $53 $53 $F3 $53 $00 $22 $C2
8A6A: 30                         BYTE $30 $C0 $F0 $F0 $C0 $00 $A0 $00
8A72: 02                         BYTE $02 $02 $0A $0A $20 $0A $AA $AA
8A7A: A8                         BYTE $A8 $A8 $A2 $00 $A2 $A2 $88 $22
8A82: 88                         BYTE $88 $20 $80 $00 $80 $22 $08 $20
8A8A: 88                         BYTE $88 $02 $80 $22 $08 $20 $80 $22
8A92: 00                         BYTE $00 $00 $80 $00 $00 $00 $80 $02
8A9A: 00                         BYTE $00 $02 $08 $22 $00 $02 $80 $22
8AA2: 00                         BYTE $00 $00 $80 $00 $00 $00 $80 $00
8AAA: 00                         BYTE $00 $02 $08 $02 $00 $02 $88 $22
8AB2: 88                         BYTE $88 $20 $80 $00 $80 $22 $08 $20
8ABA: 88                         BYTE $88 $02 $80 $22 $08 $20 $88 $22
8AC2: 88                         BYTE $88 $20 $80 $00 $80 $22 $08 $20
8ACA: 88                         BYTE $88 $02 $80 $22 $08 $20 $80 $22
8AD2: 00                         BYTE $00 $00 $80 $00 $00 $00 $80 $00
8ADA: 00                         BYTE $00 $02 $08 $02 $00 $02 $80 $22
8AE2: 00                         BYTE $00 $00 $80 $00 $00 $00 $80 $00
8AEA: 00                         BYTE $00 $02 $08 $02 $00 $02 $88 $22
8AF2: 88                         BYTE $88 $20 $80 $00 $80 $22 $08 $20
8AFA: 88                         BYTE $88 $02 $80 $22 $08 $20 $19 $19
8B02: 25                         BYTE $25 $A8 $68 $98 $64 $14 $A0 $00
8B0A: 02                         BYTE $02 $02 $0A $0A $20 $02 $05 $05
8B12: 0A                         BYTE $0A $00 $00 $00 $00 $00 $A0 $00
8B1A: 02                         BYTE $02 $42 $A2 $52 $68 $56 $66 $55
8B22: 25                         BYTE $25 $16 $16 $8A $2A $96 $56 $96
8B2A: 40                         BYTE $40 $00 $00 $00 $00 $00 $A0 $00
8B32: 02                         BYTE $02 $02 $0A $0A $20 $0A $00 $80
8B3A: 80                         BYTE $80 $00 $00 $00 $80 $80 $80 $00
8B42: 00                         BYTE $00 $00 $00 $00 $00 $00 $00 $32
8B4A: 32                         BYTE $32 $05 $06 $06 $05 $19 $19 $19
8B52: 25                         BYTE $25 $AA $6A $9A $65 $15 $A2 $A2
8B5A: 00                         BYTE $00 $80 $80 $00 $00 $00 $00 $00
8B62: 00                         BYTE $00 $80 $80 $80 $80 $60 $A1 $63
8B6A: A3                         BYTE $A3 $A8 $A8 $98 $58 $A1 $A0 $08
8B72: 02                         BYTE $02 $02 $0A $0A $20 $0A $AA $AA
8B7A: A8                         BYTE $A8 $A8 $A2 $00 $A2 $A2 $A2 $A2
8B82: 00                         BYTE $00 $80 $80 $00 $00 $00 $AA $AA
8B8A: A8                         BYTE $A8 $A8 $A2 $00 $A2 $A2 $00 $32
8B92: 32                         BYTE $32 $05 $06 $06 $05 $19 $19 $19
8B9A: 25                         BYTE $25 $AA $6A $9A $65 $15 $A2 $A2
8BA2: 00                         BYTE $00 $80 $80 $00 $00 $00 $00 $00
8BAA: 00                         BYTE $00 $80 $80 $80 $80 $60 $A1 $63
8BB2: A3                         BYTE $A3 $A8 $A8 $98 $58 $A1 $A0 $08
8BBA: 02                         BYTE $02 $02 $0A $0A $20 $0A $A2 $A2
8BC2: 00                         BYTE $00 $80 $80 $00 $00 $00 $AA $AA
8BCA: A8                         BYTE $A8 $A8 $A2 $00 $A2 $A2 $AA $AA
8BD2: A8                         BYTE $A8 $A8 $A2 $00 $A2 $A2 $00 $00
8BDA: 00                         BYTE $00 $00 $00 $00 $00 $00 $00 $00
8BE2: 00                         BYTE $00 $00 $00 $00 $00 $00 $00 $00
8BEA: 00        L_8BEA           BYTE $00 $00 $00 $00 $00 $00 $04 $11
8BF2: 11        L_8BF2           BYTE $11 $04 $11 $11 $04 $11 $00 $00
8BFA: 00                         BYTE $00 $00 $00 $00 $00 $00 $00 $00
8C02: 00                         BYTE $00 $00 $00 $00 $00 $00 $00 $1C
8C0A: 22                         BYTE $22 $5D $51 $5D $22 $1C $00 $00
8C12: 00                         BYTE $00 $00 $00 $00 $00 $00 $00 $00
8C1A: 06                         BYTE $06 $0C $18 $30 $60 $C0 $00 $08
8C22: 0C                         BYTE $0C $7E $7F $7E $0C $08 $00 $00
8C2A: 00                         BYTE $00 $00 $00 $00 $00 $00 $00 $00
8C32: 00                         BYTE $00 $00 $00 $00 $00 $00 $00 $00
8C3A: 00                         BYTE $00 $00 $00 $00 $00 $00 $00 $00
8C42: 00                         BYTE $00 $00 $00 $00 $00 $00 $00 $00
8C4A: 00                         BYTE $00 $00 $00 $00 $00 $00 $00 $00
8C52: 00                         BYTE $00 $00 $00 $00 $00 $00 $00 $00
8C5A: 00                         BYTE $00 $00 $00 $00 $00 $00 $00 $00
8C62: 00                         BYTE $00 $00 $00 $00 $00 $00 $00 $00
8C6A: 00                         BYTE $00 $00 $00 $00 $00 $00 $00 $00
8C72: 00                         BYTE $00 $00 $00 $00 $00 $00 $00 $00
8C7A: 00                         BYTE $00 $00 $00 $00 $00 $00 $00 $7C
8C82: FE                         BYTE $FE $C6 $C6 $C6 $FE $7C $00 $38
8C8A: 38                         BYTE $38 $18 $18 $18 $3C $3C $00 $FC
8C92: FE                         BYTE $FE $CE $1C $38 $7E $FE $00 $7C
8C9A: FE                         BYTE $FE $C6 $0C $C6 $FE $7C $00 $C0
8CA2: C0                         BYTE $C0 $CC $FE $7E $0C $0C $00 $FE
8CAA: FE                         BYTE $FE $C0 $7C $06 $FE $FC $00 $7C
8CB2: FE                         BYTE $FE $C0 $FC $C6 $FE $7C $00 $FC
8CBA: FE                         BYTE $FE $06 $06 $06 $06 $06 $00 $7C
8CC2: FE                         BYTE $FE $C6 $7C $C6 $FE $7C $00 $7C
8CCA: FE                         BYTE $FE $C6 $7E $06 $7E $7C $00 $00
8CD2: 00                         BYTE $00 $00 $00 $00 $00 $00 $00 $00
8CDA: 00                         BYTE $00 $00 $00 $00 $00 $00 $00 $00
8CE2: 00                         BYTE $00 $00 $00 $00 $00 $00 $00 $00
8CEA: 00                         BYTE $00 $00 $00 $00 $00 $00 $00 $00
8CF2: 00                         BYTE $00 $00 $00 $00 $00 $00 $00 $00
8CFA: 00                         BYTE $00 $00 $00 $00 $00 $00 $00 $00
8D02: 00                         BYTE $00 $00 $00 $00 $00 $00 $00 $FC
8D0A: FE                         BYTE $FE $06 $DE $C6 $C6 $C6 $00 $FC
8D12: FE                         BYTE $FE $06 $DC $C6 $C6 $FC $00 $FC
8D1A: FE                         BYTE $FE $06 $C0 $C6 $FE $FC $00 $FC
8D22: FE                         BYTE $FE $06 $C6 $C6 $FE $FC $00 $FE
8D2A: FE                         BYTE $FE $00 $F0 $C0 $FE $FE $00 $FE
8D32: FE                         BYTE $FE $00 $F0 $C0 $C0 $C0 $00 $FC
8D3A: FE                         BYTE $FE $00 $CE $C6 $FE $FC $00 $C6
8D42: C6                         BYTE $C6 $06 $DE $C6 $C6 $C6 $00 $3C
8D4A: 3C                         BYTE $3C $00 $18 $18 $3C $3C $00 $1E
8D52: 1E                         BYTE $1E $00 $06 $C6 $FE $7C $00 $C6
8D5A: C6                         BYTE $C6 $0C $F8 $CC $C6 $C6 $00 $C0
8D62: C0                         BYTE $C0 $00 $C0 $C0 $FE $FE $00 $EE
8D6A: FE                         BYTE $FE $16 $D6 $C6 $C6 $C6 $00 $FC
8D72: FE                         BYTE $FE $06 $C6 $C6 $C6 $C6 $00 $FC
8D7A: FE                         BYTE $FE $06 $C6 $C6 $FE $7C $00 $FC
8D82: FE                         BYTE $FE $06 $C6 $FC $E0 $E0 $00 $FC
8D8A: FE                         BYTE $FE $06 $C6 $FE $7C $0E $00 $FC
8D92: FE                         BYTE $FE $06 $FE $FC $CE $C6 $00 $FC
8D9A: FE                         BYTE $FE $00 $FC $06 $FE $FC $00 $FE
8DA2: FE                         BYTE $FE $00 $38 $38 $38 $38 $00 $C6
8DAA: C6                         BYTE $C6 $06 $C6 $C6 $FE $7C $00 $C6
8DB2: C6                         BYTE $C6 $06 $C6 $C6 $7C $38 $00 $C6
8DBA: C6                         BYTE $C6 $06 $D6 $FE $FE $EE $00 $C6
8DC2: C6                         BYTE $C6 $6C $38 $6C $C6 $C6 $00 $C6
8DCA: C6                         BYTE $C6 $06 $EE $7C $38 $38 $00 $FE
8DD2: FE                         BYTE $FE $00 $38 $70 $FE $FE $00 $00
8DDA: 00                         BYTE $00 $00 $00 $00 $18 $18 $00 $66
8DE2: 66                         BYTE $66 $66 $00 $00 $00 $00 $00 $18
8DEA: 18                         BYTE $18 $18 $18 $18 $00 $18 $00 $7C
8DF2: FE                         BYTE $FE $C6 $06 $0C $00 $0C $00 $10
8DFA: 30                         BYTE $30 $7F $7F $30 $10 $00
8E00: AD 7F 36                   lda $367F     ; L_367B+4
8E03: F0 0B                      beq $8E10     ; L_8E10
8E05: C9 06                      cmp #$06
8E07: F0 0E                      beq $8E17     ; L_8E17
8E09: A2 7A                      ldx #$7A
8E0B: A0 8E                      ldy #$8E
8E0D: 4C 1B 8E                   jmp $8E1B     ; L_8E1B
8E10: A2 24     L_8E10           ldx #$24
8E12: A0 8E                      ldy #$8E
8E14: 4C 1B 8E                   jmp $8E1B     ; L_8E1B
8E17: A2 37     L_8E17           ldx #$37
8E19: A0 8E                      ldy #$8E
8E1B: 8E 3F 45  L_8E1B           stx $453F     ; L_453E+1
8E1E: 8C 40 45                   sty $4540     ; L_453E+2
8E21: 4C 3C 3A                   jmp $3A3C     ; L_3A3C
8E24: 20 D4 8E                   jsr $8ED4     ; L_8ED4
8E27: AE 01 2E                   ldx $2E01     ; L_2DFB+6
8E2A: 20 BD 8E                   jsr $8EBD     ; L_8EBD
8E2D: 8D 09 44                   sta $4409     ; L_4405+4
8E30: BD 7C 02                   lda $027C,x   ; PTRIG0
8E33: 8D 17 45                   sta $4517     ; L_4517
8E36: 60                         rts
8E37: 20 A7 8E                   jsr $8EA7     ; L_8EA5+2
8E3A: AD FC 02                   lda $02FC     ; CH
8E3D: 29 3F                      and #$3F
8E3F: C9 17                      cmp #$17
8E41: F0 2D                      beq $8E70     ; L_8E70
8E43: C9 16                      cmp #$16
8E45: F0 2E                      beq $8E75     ; L_8E75
8E47: A9 0F                      lda #$0F
8E49: AE F1 02  L_8E49           ldx $02F1     ; KEYDEL
8E4C: E0 03                      cpx #$03
8E4E: F0 05                      beq $8E55     ; L_8E55
8E50: A2 FF                      ldx #$FF
8E52: 8E FC 02                   stx $02FC     ; CH
8E55: AE 0F D2  L_8E55           ldx $D20F     ; SKSTAT
8E58: E0 F7                      cpx #$F7
8E5A: F0 0C                      beq $8E68     ; L_8E68
8E5C: E0 F3                      cpx #$F3
8E5E: F0 08                      beq $8E68     ; L_8E68
8E60: A2 01                      ldx #$01
8E62: 8E 17 45                   stx $4517     ; L_4517
8E65: 4C 89 8E                   jmp $8E89     ; L_8E89
8E68: A2 00     L_8E68           ldx #$00
8E6A: 8E 17 45                   stx $4517     ; L_4517
8E6D: 4C 89 8E                   jmp $8E89     ; L_8E89
8E70: A9 0B     L_8E70           lda #$0B
8E72: 4C 49 8E                   jmp $8E49     ; L_8E49
8E75: A9 07     L_8E75           lda #$07
8E77: 4C 49 8E                   jmp $8E49     ; L_8E49
8E7A: 20 A7 8E                   jsr $8EA7     ; L_8EA5+2
8E7D: AE 01 2E                   ldx $2E01     ; L_2DFB+6
8E80: BD 84 02                   lda $0284,x   ; STRIG0
8E83: 8D 17 45                   sta $4517     ; L_4517
8E86: BD 78 02                   lda $0278,x   ; STICK0
8E89: C9 0B     L_8E89           cmp #$0B
8E8B: F0 0F                      beq $8E9C     ; L_8E9C
8E8D: C9 07                      cmp #$07
8E8F: D0 08                      bne $8E99     ; L_8E99
8E91: AE 09 44                   ldx $4409     ; L_4405+4
8E94: EC A6 8E                   cpx $8EA6     ; L_8EA5+1
8E97: 10 0B                      bpl $8EA4     ; L_8EA4
8E99: 4C C0 45  L_8E99           jmp $45C0     ; L_45C0
8E9C: AE 09 44  L_8E9C           ldx $4409     ; L_4405+4
8E9F: EC A5 8E                   cpx $8EA5     ; L_8EA5
8EA2: 10 F5                      bpl $8E99     ; L_8E99
8EA4: 60        L_8EA4           rts
8EA5: 1E 72 A2  L_8EA5           asl $A272,x
8EA8: 1E A0 72                   asl $72A0,x   ; L_729A+6
8EAB: AD 03 4A                   lda $4A03     ; L_4A01+2
8EAE: C9 1A                      cmp #$1A
8EB0: F0 04                      beq $8EB6     ; L_8EB6
8EB2: A2 21                      ldx #$21
8EB4: A0 6C                      ldy #$6C
8EB6: 8E A5 8E  L_8EB6           stx $8EA5     ; L_8EA5
8EB9: 8C A6 8E                   sty $8EA6     ; L_8EA5+1
8EBC: 60                         rts
8EBD: BD 70 02  L_8EBD           lda $0270,x   ; PADDL0
8EC0: 49 FF                      eor #$FF
8EC2: CD A5 8E                   cmp $8EA5     ; L_8EA5
8EC5: B0 04                      bcs $8ECB     ; L_8ECB
8EC7: AD A5 8E                   lda $8EA5     ; L_8EA5
8ECA: 60                         rts
8ECB: CD A6 8E  L_8ECB           cmp $8EA6     ; L_8EA5+1
8ECE: 90 03                      bcc $8ED3     ; L_8ED3
8ED0: AD A6 8E                   lda $8EA6     ; L_8EA5+1
8ED3: 60        L_8ED3           rts
8ED4: A2 1A     L_8ED4           ldx #$1A
8ED6: A0 72                      ldy #$72
8ED8: AD 03 4A                   lda $4A03     ; L_4A01+2
8EDB: C9 1A                      cmp #$1A
8EDD: F0 04                      beq $8EE3     ; L_8EE3
8EDF: A2 1F                      ldx #$1F
8EE1: A0 6C                      ldy #$6C
8EE3: 8E A5 8E  L_8EE3           stx $8EA5     ; L_8EA5
8EE6: 8C A6 8E                   sty $8EA6     ; L_8EA5+1
8EE9: 60                         rts
8EEA: 00                         BYTE $00 $00 $00 $00 $00 $00 $00 $00
8EF2: 00                         BYTE $00 $00 $00 $00 $00 $00 $00 $00
8EFA: 00                         BYTE $00 $00 $00 $00 $00 $00 $10 $10
8F02: 10                         BYTE $10 $10 $10 $10 $00 $00 $00 $00
8F0A: 00        L_8F0A           BYTE $00 $00 $00 $00 $00 $00 $00
8F11: EE F4 31                   inc $31F4     ; LIVES
8F14: AD F4 31                   lda $31F4     ; LIVES
8F17: C9 09                      cmp #$09
8F19: 90 02                      bcc $8F1D     ; L_8F1D
8F1B: A9 09                      lda #$09
8F1D: 18        L_8F1D           clc
8F1E: 69 10                      adc #$10
8F20: 8D 7D 9F                   sta $9F7D
8F23: A9 00                      lda #$00
8F25: 8D 04 4E                   sta $4E04     ; L_4E04
8F28: 8D 02 50                   sta $5002     ; L_4FFE+4
8F2B: 60                         rts
8F2C: A9 00     L_8F2C           lda #$00
8F2E: 8D 81 8F                   sta $8F81     ; L_8F81
8F31: A0 50                      ldy #$50
8F33: A2 8F                      ldx #$8F
8F35: A9 07                      lda #$07
8F37: 20 00 1F                   jsr $1F00     ; L_1F00
8F3A: A9 7E                      lda #$7E
8F3C: 8D E2 9E                   sta $9EE2
8F3F: 8D 0A 9F                   sta $9F0A
8F42: 8D 32 9F                   sta $9F32
8F45: A9 02                      lda #$02
8F47: 8D 02 50                   sta $5002     ; L_4FFE+4
8F4A: A9 01                      lda #$01
8F4C: 8D 10 8F                   sta $8F10     ; L_8F0A+6
8F4F: 60                         rts
8F50: 48                         pha
8F51: 8A                         txa
8F52: 48                         pha
8F53: 98                         tya
8F54: 48                         pha
8F55: EE 81 8F                   inc $8F81     ; L_8F81
8F58: AD 81 8F                   lda $8F81     ; L_8F81
8F5B: C9 02                      cmp #$02
8F5D: 90 1A                      bcc $8F79     ; L_8F79
8F5F: A9 00                      lda #$00
8F61: 8D 81 8F                   sta $8F81     ; L_8F81
8F64: A2 00                      ldx #$00
8F66: AD F7 8B                   lda $8BF7     ; L_8BF2+5
8F69: A8                         tay
8F6A: A2 07                      ldx #$07
8F6C: BD EF 8B  L_8F6C           lda $8BEF,x   ; L_8BEA+5
8F6F: 9D F0 8B                   sta $8BF0,x   ; L_8BEA+6
8F72: CA                         dex
8F73: D0 F7                      bne $8F6C     ; L_8F6C
8F75: 98                         tya
8F76: 8D F0 8B                   sta $8BF0     ; L_8BEA+6
8F79: 68        L_8F79           pla
8F7A: A8                         tay
8F7B: 68                         pla
8F7C: AA                         tax
8F7D: 68                         pla
8F7E: 4C 62 E4                   jmp $E462     ; XITVBV
8F81: 00        L_8F81           brk
8F82: AD 10 8F                   lda $8F10     ; L_8F0A+6
8F85: F0 07                      beq $8F8E     ; L_8F8E
8F87: AD 09 44                   lda $4409     ; L_4405+4
8F8A: C9 70                      cmp #$70
8F8C: 10 03                      bpl $8F91     ; L_8F91
8F8E: 4C 00 38  L_8F8E           jmp $3800     ; L_3800
8F91: AD 25 3C  L_8F91           lda $3C25     ; TIMER_MAYBE
8F94: F0 FB                      beq $8F91     ; L_8F91
8F96: 20 3D 28                   jsr $283D     ; L_283D
8F99: C9 83                      cmp #$83
8F9B: F0 18                      beq $8FB5     ; L_8FB5
8F9D: EE 09 44                   inc $4409     ; L_4405+4
8FA0: 20 CB 44                   jsr $44CB     ; L_44CB
8FA3: 20 F1 44                   jsr $44F1     ; L_44F1
8FA6: A2 00                      ldx #$00
8FA8: A0 00     L_8FA8           ldy #$00
8FAA: C8        L_8FAA           iny
8FAB: D0 FD                      bne $8FAA     ; L_8FAA
8FAD: E8                         inx
8FAE: E0 16                      cpx #$16
8FB0: D0 F6                      bne $8FA8     ; L_8FA8
8FB2: 4C 91 8F                   jmp $8F91     ; L_8F91
8FB5: A9 00     L_8FB5           lda #$00
8FB7: 8D 10 8F                   sta $8F10     ; L_8F0A+6
8FBA: 4C 22 38                   jmp $3822     ; L_3822
8FBD: 00                         BYTE $00 $00 $00 $4E $5B $40 $8C $62
8FC5: 51                         BYTE $51 $62 $07 $22 $28 $48 $08 $48
8FCD: 5B                         BYTE $5B $94 $48 $43 $38 $39 $17 $1A
8FD5: 51                         BYTE $51 $5E $4B $42 $13 $4E $40 $5C
8FDD: 4E                         BYTE $4E $5C $25 $00 $00 $00 $00 $00
8FE5: 00                         BYTE $00 $00 $00 $00 $00 $00 $00 $00
8FED: 00                         BYTE $00 $00 $00 $00 $00 $00 $00 $00
8FF5: 00                         BYTE $00 $00 $00 $00 $00 $00 $00 $00
8FFD: 00                         BYTE $00 $00 $00 $AA $AA $A8 $A8 $A2
9005: 00                         BYTE $00 $A2 $A2 $0A $20 $8A $8A $A2
900D: A2                         BYTE $A2 $08 $A0 $A2 $A2 $00 $80 $80
9015: 00                         BYTE $00 $00 $00 $A0 $02 $02 $0A $0A
901D: 2A                         BYTE $2A $20 $0A $A2 $A2 $00 $80 $80
9025: 00                         BYTE $00 $00 $00 $A0 $00 $02 $02 $0A
902D: 0A                         BYTE $0A $20 $0A $AA $AA $A8 $A8 $A2
9035: 00                         BYTE $00 $A2 $A2 $0A $20 $8A $8A $A2
903D: A2                         BYTE $A2 $08 $A0 $AA $AA $A8 $A8 $A2
9045: 00                         BYTE $00 $A2 $A2 $0A $20 $8A $8A $A2
904D: A2                         BYTE $A2 $08 $A0 $A2 $A2 $00 $80 $80
9055: 00                         BYTE $00 $00 $00 $A0 $00 $02 $02 $0A
905D: 0A                         BYTE $0A $20 $0A $A2 $A2 $00 $80 $80
9065: 00                         BYTE $00 $00 $00 $A0 $08 $02 $02 $0A
906D: 0A                         BYTE $0A $20 $0A $AA $AA $A8 $A8 $A2
9075: 00                         BYTE $00 $A2 $A2 $0A $20 $8A $8A $A2
907D: A2                         BYTE $A2 $08 $A0 $A8 $55 $09 $09 $24
9085: 24                         BYTE $24 $92 $91 $00 $82 $69 $14 $21
908D: 98                         BYTE $98 $46 $06 $90 $42 $69 $14 $80
9095: 60                         BYTE $60 $6A $05 $29 $94 $42 $09 $24
909D: 24                         BYTE $24 $90 $40 $24 $00 $90 $90 $91
90A5: 91                         BYTE $91 $91 $24 $06 $18 $18 $61 $80
90AD: 81                         BYTE $81 $80 $60 $00 $14 $69 $82 $88
90B5: 88                         BYTE $88 $62 $62 $18 $06 $46 $90 $24
90BD: 24                         BYTE $24 $90 $90 $24 $09 $09 $24 $90
90C5: 26                         BYTE $26 $06 $06 $50 $A4 $09 $02 $50
90CD: A5                         BYTE $A5 $0A $10 $60 $18 $58 $A6 $02
90D5: 02                         BYTE $02 $62 $62 $90 $90 $24 $24 $49
90DD: 49                         BYTE $49 $64 $65 $18 $18 $61 $61 $60
90E5: 60                         BYTE $60 $18 $60 $64 $48 $80 $86 $18
90ED: 60                         BYTE $60 $61 $00 $60 $18 $18 $18 $18
90F5: 60                         BYTE $60 $86 $66 $24 $09 $09 $09 $24
90FD: 90                         BYTE $90 $24 $24 $15 $1A $1A $1A $1A
9105: 1A                         BYTE $1A $55 $00 $55 $AA $AA $AA $AA
910D: AA                         BYTE $AA $55 $00 $51 $91 $91 $91 $91
9115: 90                         BYTE $90 $50 $00 $55 $A9 $A9 $A9 $55
911D: 10                         BYTE $10 $15 $00 $55 $AA $AA $AA $AA
9125: AA                         BYTE $AA $AA $56 $50 $91 $91 $91 $90
912D: 91                         BYTE $91 $91 $91 $54 $64 $A4 $65 $64
9135: 64                         BYTE $64 $A5 $54 $55 $6A $6A $6A $6A
913D: 6A                         BYTE $6A $6A $55 $06 $06 $06 $06 $06
9145: 06                         BYTE $06 $06 $06 $90 $91 $91 $90 $91
914D: 91                         BYTE $91 $90 $90 $00 $55 $6A $6A $6A
9155: 6A                         BYTE $6A $6A $6A $00 $55 $A9 $A9 $A9
915D: A9                         BYTE $A9 $A9 $A9 $06 $05 $00 $15 $1A
9165: 1A                         BYTE $1A $15 $00 $90 $50 $00 $54 $A4
916D: A4                         BYTE $A4 $54 $00 $6A $6A $6A $6A $66
9175: 6A                         BYTE $6A $55 $00 $A9 $99 $55 $55 $99
917D: A9                         BYTE $A9 $55 $00 $00 $15 $10 $15 $06
9185: 06                         BYTE $06 $06 $06 $00 $81 $81 $81 $81
918D: 81                         BYTE $81 $81 $81 $40 $90 $20 $A0 $00
9195: 00                         BYTE $00 $00 $00 $18 $18 $18 $18 $18
919D: 18                         BYTE $18 $18 $18 $06 $06 $06 $06 $06
91A5: 06                         BYTE $06 $05 $05 $81 $81 $96 $AA $00
91AD: 00                         BYTE $00 $90 $10 $54 $A9 $0A $00 $05
91B5: 0A                         BYTE $0A $00 $05 $18 $58 $A8 $18 $58
91BD: A8                         BYTE $A8 $18 $58 $55 $AA $00 $AA $00
91C5: 55                         BYTE $55 $00 $00 $90 $00 $02 $09 $00
91CD: 64                         BYTE $64 $64 $A0 $00 $00 $80 $60 $00
91D5: 19                         BYTE $19 $19 $0A $A9 $0A $00 $16 $18
91DD: 19                         BYTE $19 $18 $00 $05 $04 $04 $04 $04
91E5: 04                         BYTE $04 $04 $54 $AA $A8 $21 $2A $15
91ED: 10                         BYTE $10 $15 $15 $AA $2A $68 $A8 $50
91F5: 01                         BYTE $01 $55 $55 $14 $14 $54 $54 $40
91FD: 54                         BYTE $54 $40 $55 $FF $F0 $C0 $00 $00
9205: 00                         BYTE $00 $00 $00 $00 $00 $00 $00 $00
920D: 00                         BYTE $00 $00 $FF $FF $0F $03 $03 $03
9215: 03                         BYTE $03 $03 $03 $03 $03 $03 $03 $03
921D: 0F                         BYTE $0F $FF $FF $FF $FF $FF $FF $FF
9225: FF                         BYTE $FF $FF $FF $FF $FF $FF $FF $FF
922D: FF                         BYTE $FF $FF $FF $FC $F0 $C0 $00 $00
9235: 00                         BYTE $00 $00 $00 $00 $00 $00 $00 $C0
923D: C0                         BYTE $C0 $F0 $F0 $0F $03 $00 $00 $00
9245: 00                         BYTE $00 $00 $00 $00 $00 $00 $00 $00
924D: 03                         BYTE $03 $03 $0F $FF $FF $FF $FF $FF
9255: FF                         BYTE $FF $FF $FF $FF $FF $FF $FF $FF
925D: FF                         BYTE $FF $FF $FF $FF $FC $F0 $C0 $C0
9265: C0                         BYTE $C0 $C0 $C0 $C0 $C0 $C0 $F0 $F0
926D: F0                         BYTE $F0 $FC $FF $03 $00 $00 $00 $00
9275: 00                         BYTE $00 $00 $00 $00 $00 $00 $00 $00
927D: 03                         BYTE $03 $03 $0F $FF $FF $FF $3F $3F
9285: 3F                         BYTE $3F $3F $3F $3F $3F $3F $FF $FF
928D: FF                         BYTE $FF $FF $FF $FF $FF $FF $FC $FC
9295: FC                         BYTE $FC $F0 $F0 $F0 $FC $FC $FC $FC
929D: FF                         BYTE $FF $FF $FF $FF $00 $00 $00 $00
92A5: 00                         BYTE $00 $00 $00 $00 $00 $00 $00 $00
92AD: 00                         BYTE $00 $03 $CF $FF $3F $3F $3F $3F
92B5: 0F                         BYTE $0F $0F $0F $0F $0F $3F $3F $3F
92BD: FF                         BYTE $FF $FF $FF $FC $F0 $F0 $C0 $00
92C5: 00                         BYTE $00 $00 $00 $00 $00 $00 $00 $00
92CD: 00                         BYTE $00 $C0 $FC $FF $3F $3F $0F $0F
92D5: 03                         BYTE $03 $03 $03 $03 $03 $03 $03 $0F
92DD: 0F                         BYTE $0F $0F $3F $FF $FF $FF $FF $FF
92E5: FF                         BYTE $FF $FF $FF $FF $FF $FF $FF $FF
92ED: FF                         BYTE $FF $FF $FF $C3 $00 $00 $00 $00
92F5: 00                         BYTE $00 $00 $00 $00 $00 $00 $00 $C0
92FD: F0                         BYTE $F0 $FF $FF $FF $3F $03 $00 $00
9305: 00                         BYTE $00 $00 $00 $00 $00 $00 $00 $00
930D: 00                         BYTE $00 $00 $C3 $FF $FF $FF $FF $FF
9315: FF                         BYTE $FF $FF $FF $FF $FF $FF $FF $FF
931D: FF                         BYTE $FF $FF $FF $FF $F3 $C0 $C0 $C0
9325: C0                         BYTE $C0 $C0 $C0 $C0 $C0 $C0 $C0 $F0
932D: FF                         BYTE $FF $FF $FF $FF $C3 $00 $00 $00
9335: 00                         BYTE $00 $00 $00 $00 $00 $00 $00 $00
933D: C0                         BYTE $C0 $FF $FF $FF $FF $FF $3F $3F
9345: 3F                         BYTE $3F $3F $3F $3F $3F $3F $3F $3F
934D: 3F                         BYTE $3F $FF $FF $FF $FC $F0 $F0 $F0
9355: F0                         BYTE $F0 $F0 $F0 $F0 $F0 $F0 $F0 $F0
935D: FC                         BYTE $FC $FF $FF $FF $00 $00 $00 $00
9365: 00                         BYTE $00 $00 $00 $00 $00 $00 $00 $00
936D: 00                         BYTE $00 $FF $FF $FF $FF $3F $0F $0F
9375: 0F                         BYTE $0F $0F $0F $0F $0F $0F $0F $3F
937D: FF                         BYTE $FF $FF $FF $F0 $C0 $C0 $C0 $C0
9385: C0                         BYTE $C0 $00 $00 $00 $00 $00 $00 $00
938D: 00                         BYTE $00 $C3 $FF $0F $03 $03 $03 $03
9395: 03                         BYTE $03 $00 $00 $00 $00 $00 $00 $00
939D: 00                         BYTE $00 $C3 $FF $FF $FF $FF $FF $FF
93A5: FF                         BYTE $FF $FF $3F $3F $3F $3F $3F $3F
93AD: 3F                         BYTE $3F $FF $FF $FC $F0 $C0 $C0 $C0
93B5: C0                         BYTE $C0 $C0 $C0 $C0 $C0 $C0 $C0 $F0
93BD: FC                         BYTE $FC $FF $FF $3F $0F $03 $03 $03
93C5: 03                         BYTE $03 $00 $00 $00 $00 $00 $00 $00
93CD: 00                         BYTE $00 $C3 $FF $FF $FF $FF $FF $FF
93D5: FF                         BYTE $FF $FF $3F $3F $3F $3F $3F $3F
93DD: 3F                         BYTE $3F $FF $FF $FF $FF $FC $F0 $F0
93E5: F0                         BYTE $F0 $F0 $F0 $FC $FC $FC $FC $FF
93ED: FF                         BYTE $FF $FF $FF $FF $0F $03 $00 $00
93F5: 00                         BYTE $00 $00 $03 $00 $00 $00 $00 $00
93FD: 00                         BYTE $00 $C0 $F3 $FF $FF $FF $FF $FF
9405: FF                         BYTE $FF $FF $FF $3F $0F $0F $0F $0F
940D: 3F                         BYTE $3F $FF $FF $FF $FF $FC $F0 $F0
9415: F0                         BYTE $F0 $F0 $FC $FC $FF $FF $FF $FF
941D: FF                         BYTE $FF $FF $FF $FF $03 $00 $00 $00
9425: 00                         BYTE $00 $00 $00 $00 $00 $00 $00 $00
942D: C0                         BYTE $C0 $F0 $FF $FF $FF $3F $0F $0F
9435: 03                         BYTE $03 $03 $03 $03 $0F $0F $0F $0F
943D: 3F                         BYTE $3F $FF $FF $FF $C3 $00 $00 $00
9445: 00                         BYTE $00 $00 $00 $C0 $C0 $C0 $C0 $F0
944D: FC                         BYTE $FC $FF $FF $FF $C3 $00 $00 $00
9455: 00                         BYTE $00 $00 $00 $03 $03 $03 $03 $0F
945D: 3F                         BYTE $3F $FF $FF $FF $FF $FF $3F $3F
9465: 3F                         BYTE $3F $3F $3F $FF $FF $FF $FF $FF
946D: FF                         BYTE $FF $FF $FF $FF $FF $FF $F0 $C0
9475: 00                         BYTE $00 $00 $00 $00 $00 $00 $00 $00
947D: C0                         BYTE $C0 $F0 $FF $FF $FF $0F $03 $00
9485: 00                         BYTE $00 $00 $00 $03 $0F $0F $0F $0F
948D: 3F                         BYTE $3F $FF $FF $FF $FF $FF $FF $FF
9495: FF                         BYTE $FF $FF $FF $FF $FF $FF $FF $FF
949D: FF                         BYTE $FF $FF $FF $FF $FF $FF $FF $FC
94A5: FC                         BYTE $FC $FC $F0 $F0 $C0 $C0 $C0 $C0
94AD: F0                         BYTE $F0 $FC $FF $FF $F0 $C0 $00 $00
94B5: 00                         BYTE $00 $00 $00 $00 $00 $00 $03 $03
94BD: 0F                         BYTE $0F $3F $FF $FF $FF $3F $0F $0F
94C5: 0F                         BYTE $0F $0F $0F $0F $3F $FF $FF $FF
94CD: FF                         BYTE $FF $FF $FF $FF $FF $FF $FF $FF
94D5: FF                         BYTE $FF $FC $F0 $F0 $F0 $F0 $F0 $FC
94DD: FF                         BYTE $FF $FF $FF $F0 $C0 $00 $00 $00
94E5: 00                         BYTE $00 $00 $00 $00 $00 $00 $00 $00
94ED: 0F                         BYTE $0F $FF $FF $FF $3F $0F $0F $0F
94F5: 0F                         BYTE $0F $0F $0F $0F $0F $0F $3F $FF
94FD: FF                         BYTE $FF $FF $FF $FC $F0 $F0 $C0 $C0
9505: C0                         BYTE $C0 $C0 $00 $00 $00 $00 $00 $00
950D: 00                         BYTE $00 $00 $00 $FF $3F $3F $0F $0F
9515: 0F                         BYTE $0F $0F $03 $03 $03 $03 $00 $00
951D: 00                         BYTE $00 $00 $03 $FF $FF $FF $FF $FF
9525: FF                         BYTE $FF $FF $FF $FF $FF $FF $FF $FF
952D: FF                         BYTE $FF $FF $FF $FC $F0 $F0 $F0 $F0
9535: F0                         BYTE $F0 $F0 $F0 $F0 $F0 $F0 $C0 $C0
953D: 00                         BYTE $00 $00 $C0 $3F $3F $3F $0F $0F
9545: 03                         BYTE $03 $00 $00 $00 $00 $00 $00 $00
954D: 00                         BYTE $00 $00 $03 $FF $FF $FF $FF $FF
9555: FF                         BYTE $FF $FF $FF $FF $FF $3F $3F $3F
955D: 3F                         BYTE $3F $FF $FF $FC $FC $FC $FC $FC
9565: FC                         BYTE $FC $FC $FF $FF $FF $FF $FC $F0
956D: C0                         BYTE $C0 $C0 $C0 $0F $03 $03 $00 $00
9575: 00                         BYTE $00 $00 $00 $00 $00 $C0 $00 $00
957D: 00                         BYTE $00 $00 $00 $FF $FF $FF $FF $FF
9585: 3F                         BYTE $3F $0F $0F $3F $3F $3F $0F $0F
958D: 0F                         BYTE $0F $3F $FF $FF $FF $FF $FF $FF
9595: FF                         BYTE $FF $FF $FF $FF $FF $FF $FF $FF
959D: FC                         BYTE $FC $FC $FC $03 $00 $00 $00 $00
95A5: 00                         BYTE $00 $00 $00 $00 $00 $00 $C0 $00
95AD: 00                         BYTE $00 $00 $00 $FF $FF $FF $3F $3F
95B5: 0F                         BYTE $0F $0F $0F $0F $0F $0F $03 $03
95BD: 03                         BYTE $03 $03 $0F $FC $F0 $F0 $C0 $C0
95C5: C0                         BYTE $C0 $C0 $00 $00 $00 $00 $00 $00
95CD: 00                         BYTE $00 $00 $00 $FF $3F $3F $0F $0F
95D5: 0F                         BYTE $0F $0F $03 $03 $03 $03 $00 $00
95DD: 00                         BYTE $00 $00 $03 $FF $FF $FF $FF $FF
95E5: FF                         BYTE $FF $FF $FF $FF $FF $FF $FF $FF
95ED: FF                         BYTE $FF $FF $FF $FF $FF $FC $F0 $F0
95F5: C0                         BYTE $C0 $C0 $C0 $C0 $F0 $C0 $00 $00
95FD: 00                         BYTE $00 $C0 $F0 $03 $03 $03 $03 $03
9605: 03                         BYTE $03 $03 $03 $03 $03 $03 $03 $00
960D: 00                         BYTE $00 $00 $00 $FF $FF $FF $FF $FF
9615: FF                         BYTE $FF $FF $FF $FF $FF $FF $FF $FF
961D: 3F                         BYTE $3F $3F $FF $FF $FF $FC $FC $F0
9625: F0                         BYTE $F0 $C0 $C0 $C0 $F0 $F0 $C0 $C0
962D: C0                         BYTE $C0 $F0 $FC $03 $03 $03 $03 $03
9635: 03                         BYTE $03 $03 $03 $03 $03 $0F $03 $00
963D: 00                         BYTE $00 $00 $00 $FF $FF $FF $FF $FF
9645: FF                         BYTE $FF $FF $FF $FF $FF $FF $FF $FF
964D: 3F                         BYTE $3F $0F $0F $FF $FF $FF $FF $FF
9655: FC                         BYTE $FC $FC $FC $FC $F0 $F0 $F0 $F0
965D: FC                         BYTE $FC $FF $FF $FC $F0 $F0 $C0 $C0
9665: 00                         BYTE $00 $00 $00 $00 $00 $00 $00 $00
966D: 00                         BYTE $00 $00 $C0 $FF $3F $3F $3F $3F
9675: 3F                         BYTE $3F $3F $3F $FF $3F $0F $0F $03
967D: 03                         BYTE $03 $0F $3F $FC $F0 $F0 $F0 $C0
9685: C0                         BYTE $C0 $C0 $00 $00 $00 $00 $00 $00
968D: 00                         BYTE $00 $00 $00 $FF $3F $3F $3F $0F
9695: 0F                         BYTE $0F $0F $03 $03 $03 $00 $00 $00
969D: 00                         BYTE $00 $00 $00 $FF $FF $FF $FF $FF
96A5: FF                         BYTE $FF $FF $FF $FF $FF $FF $FF $FF
96AD: FF                         BYTE $FF $FF $FF $FC $F0 $F0 $F0 $F0
96B5: F0                         BYTE $F0 $F0 $F0 $F0 $C0 $C0 $C0 $C0
96BD: C0                         BYTE $C0 $C0 $C0 $3F $0F $03 $03 $00
96C5: 00                         BYTE $00 $00 $00 $00 $00 $00 $00 $00
96CD: 00                         BYTE $00 $00 $03 $FF $FF $FF $FF $FF
96D5: FF                         BYTE $FF $FF $3F $3F $3F $0F $0F $0F
96DD: 0F                         BYTE $0F $3F $FF $FF $FF $FF $FC $FC
96E5: FC                         BYTE $FC $FC $FC $FC $F0 $F0 $F0 $F0
96ED: C0                         BYTE $C0 $C0 $F0 $03 $03 $00 $00 $00
96F5: 00                         BYTE $00 $00 $00 $00 $00 $00 $00 $00
96FD: 00                         BYTE $00 $00 $00 $FF $FF $FF $FF $FF
9705: 3F                         BYTE $3F $3F $3F $0F $0F $03 $03 $03
970D: 03                         BYTE $03 $0F $FF $FF $FF $FF $FF $FF
9715: FF                         BYTE $FF $FF $FF $FF $FF $FC $FC $FC
971D: FC                         BYTE $FC $FC $FF $FC $F0 $F0 $F0 $C0
9725: C0                         BYTE $C0 $00 $00 $00 $00 $00 $00 $00
972D: 00                         BYTE $00 $00 $F0 $FF $3F $3F $3F $3F
9735: 0F                         BYTE $0F $0F $0F $0F $03 $00 $00 $00
973D: 00                         BYTE $00 $00 $03 $FF $FC $FC $F0 $F0
9745: C0                         BYTE $C0 $C0 $00 $00 $00 $00 $00 $C0
974D: F0                         BYTE $F0 $FC $FF $03 $03 $03 $03 $03
9755: 03                         BYTE $03 $00 $00 $00 $00 $00 $00 $00
975D: 00                         BYTE $00 $00 $00 $FF $FF $FF $FF $FF
9765: FF                         BYTE $FF $FF $FF $FF $FF $FF $FF $FF
976D: FF                         BYTE $FF $FF $FF $FF $FF $FC $C0 $00
9775: 00                         BYTE $00 $00 $00 $C0 $C0 $F0 $F0 $F0
977D: F0                         BYTE $F0 $FC $FF $FF $C0 $00 $00 $00
9785: 00                         BYTE $00 $00 $00 $00 $00 $00 $00 $03
978D: 03                         BYTE $03 $0F $0F $FF $3F $0F $0F $0F
9795: 0F                         BYTE $0F $3F $3F $3F $3F $FF $FF $FF
979D: FF                         BYTE $FF $FF $FF $FC $F0 $F0 $F0 $F0
97A5: F0                         BYTE $F0 $F0 $F0 $FC $FC $FC $FC $FC
97AD: FC                         BYTE $FC $FC $FF $3F $03 $00 $00 $00
97B5: 00                         BYTE $00 $00 $00 $00 $00 $00 $00 $03
97BD: 0F                         BYTE $0F $3F $FF $FF $FF $3F $0F $03
97C5: 03                         BYTE $03 $03 $03 $0F $3F $FF $FF $FF
97CD: FF                         BYTE $FF $FF $FF $FF $FF $FF $FF $FF
97D5: FF                         BYTE $FF $FF $FF $FC $FC $FC $FC $FC
97DD: FC                         BYTE $FC $FC $FC $F3 $C0 $C0 $00 $00
97E5: 00                         BYTE $00 $00 $00 $00 $00 $00 $00 $00
97ED: 00                         BYTE $00 $00 $0F $FF $FF $FF $3F $3F
97F5: 0F                         BYTE $0F $0F $03 $03 $00 $00 $00 $03
97FD: 0F                         BYTE $0F $FF $FF $00 $30 $C0 $00 $00
9805: 00                         BYTE $00 $F0 $C0 $00 $C0 $C0 $C0 $00
980D: 00                         BYTE $00 $00 $C0 $3F $03 $00 $00 $00
9815: 03                         BYTE $03 $00 $00 $00 $00 $00 $00 $00
981D: 03                         BYTE $03 $0F $0C $FF $FF $FF $FF $FF
9825: FF                         BYTE $FF $FF $FF $FF $FF $FF $FF $FF
982D: FF                         BYTE $FF $FF $FF $C0 $00 $00 $C0 $00
9835: 03                         BYTE $03 $03 $03 $03 $0F $00 $C0 $C0
983D: F0                         BYTE $F0 $FF $FF $19 $0C $00 $00 $C0
9845: F0                         BYTE $F0 $F0 $F0 $F0 $C0 $C0 $00 $00
984D: 00                         BYTE $00 $30 $FF $FF $FF $FF $FF $FF
9855: FF                         BYTE $FF $FF $FF $FF $FF $FF $FF $FF
985D: FF                         BYTE $FF $FF $FF $3C $00 $00 $03 $0F
9865: 0F                         BYTE $0F $0F $03 $03 $0F $00 $00 $C0
986D: F0                         BYTE $F0 $FC $FF $FC $00 $00 $C0 $F0
9875: FC                         BYTE $FC $FC $FF $FF $FC $FC $30 $30
987D: 00                         BYTE $00 $F3 $FF $FF $FF $FF $FF $FF
9885: FF                         BYTE $FF $FF $FF $FF $FF $FF $FF $FF
988D: FF                         BYTE $FF $FF $FF $C3 $03 $0F $0F $3F
9895: FF                         BYTE $FF $FF $FF $FF $3F $0F $0F $0F
989D: 03                         BYTE $03 $C0 $F0 $03 $C0 $F0 $FC $FF
98A5: FF                         BYTE $FF $FF $FF $FF $FC $F0 $F0 $CC
98AD: 03                         BYTE $03 $F3 $CF $FF $FF $FF $FF $FF
98B5: FF                         BYTE $FF $FF $FF $FF $FF $FF $FF $FF
98BD: FF                         BYTE $FF $FF $FF $C0 $CC $F0 $C0 $C0
98C5: C0                         BYTE $C0 $FC $F0 $C0 $F0 $F0 $F0 $C0
98CD: C0                         BYTE $C0 $C0 $F0 $0F $00 $00 $00 $00
98D5: 00                         BYTE $00 $00 $00 $00 $00 $00 $00 $00
98DD: 00                         BYTE $00 $00 $03 $FF $FF $3F $3F $3F
98E5: FF                         BYTE $FF $3F $3F $3F $3F $3F $3F $3F
98ED: FF                         BYTE $FF $FF $3F $F0 $C0 $C0 $F0 $C0
98F5: C0                         BYTE $C0 $C0 $C0 $C0 $C3 $C0 $F0 $F0
98FD: FC                         BYTE $FC $FF $FF $3F $03 $00 $00 $30
9905: FC                         BYTE $FC $FC $FC $FC $F0 $30 $00 $00
990D: 00                         BYTE $00 $CC $FF $FF $3F $3F $3F $3F
9915: 3F                         BYTE $3F $3F $3F $3F $3F $3F $3F $3F
991D: 3F                         BYTE $3F $3F $FF $CF $C0 $C0 $C0 $C3
9925: C3                         BYTE $C3 $C3 $C0 $C0 $C3 $C0 $C0 $F0
992D: FC                         BYTE $FC $FF $FF $3F $00 $00 $F0 $FC
9935: FF                         BYTE $FF $FF $FF $FF $FF $3F $0C $0C
993D: 00                         BYTE $00 $3C $FF $3F $3F $3F $3F $3F
9945: 3F                         BYTE $3F $3F $FF $FF $3F $3F $3F $3F
994D: 3F                         BYTE $3F $FF $FF $F0 $C0 $C3 $C3 $CF
9955: FF                         BYTE $FF $FF $FF $FF $CF $C3 $C3 $C3
995D: C0                         BYTE $C0 $F0 $FC $C0 $F0 $FC $FF $FF
9965: FF                         BYTE $FF $FF $FF $FF $FF $FC $FC $F3
996D: C0                         BYTE $C0 $3C $33 $FF $3F $3F $3F $FF
9975: FF                         BYTE $FF $FF $FF $FF $3F $3F $3F $3F
997D: FF                         BYTE $FF $FF $FF $F0 $F3 $FC $F0 $F0
9985: F0                         BYTE $F0 $FF $FC $F0 $FC $FC $FC $F0
998D: F0                         BYTE $F0 $F0 $FC $03 $00 $00 $00 $00
9995: 00                         BYTE $00 $00 $00 $00 $00 $00 $00 $00
999D: 00                         BYTE $00 $00 $00 $FF $3F $0F $0F $0F
99A5: 3F                         BYTE $3F $0F $0F $0F $0F $0F $0F $0F
99AD: 3F                         BYTE $3F $FF $CF $FC $F0 $F0 $FC $F0
99B5: F0                         BYTE $F0 $F0 $F0 $F0 $F0 $F0 $FC $FC
99BD: FF                         BYTE $FF $FF $FF $0F $00 $00 $00 $0C
99C5: 3F                         BYTE $3F $3F $3F $3F $FC $0C $00 $00
99CD: 00                         BYTE $00 $F3 $FF $FF $CF $0F $0F $0F
99D5: 0F                         BYTE $0F $0F $0F $0F $0F $0F $0F $0F
99DD: 0F                         BYTE $0F $0F $FF $F3 $F0 $F0 $F0 $F0
99E5: F0                         BYTE $F0 $F0 $F0 $F0 $F0 $F0 $F0 $FC
99ED: FF                         BYTE $FF $FF $FF $CF $00 $00 $3C $FF
99F5: FF                         BYTE $FF $FF $3F $3F $FF $0F $03 $03
99FD: 00                         BYTE $00 $CF $FF $CF $0F $0F $0F $0F
9A05: CF                         BYTE $CF $CF $FF $FF $CF $CF $0F $0F
9A0D: 0F                         BYTE $0F $3F $FF $FC $F0 $F0 $F0 $F3
9A15: FF                         BYTE $FF $FF $FF $FF $F3 $F0 $F0 $F0
9A1D: F0                         BYTE $F0 $FC $FF $30 $3C $FF $FF $FF
9A25: FF                         BYTE $FF $FF $FF $FF $FF $FF $FF $FC
9A2D: 30                         BYTE $30 $0F $0C $3F $0F $0F $CF $FF
9A35: FF                         BYTE $FF $FF $FF $FF $CF $0F $0F $CF
9A3D: 3F                         BYTE $3F $3F $FF $FC $FC $FF $FC $FC
9A45: FC                         BYTE $FC $FF $FF $FC $FF $FF $FF $FC
9A4D: FC                         BYTE $FC $FC $FF $00 $C0 $00 $00 $00
9A55: 00                         BYTE $00 $C0 $00 $00 $00 $00 $00 $00
9A5D: 00                         BYTE $00 $00 $00 $FF $0F $03 $03 $03
9A65: 0F                         BYTE $0F $03 $03 $03 $03 $03 $03 $03
9A6D: 0F                         BYTE $0F $3F $33 $FF $FC $FC $FF $FC
9A75: FC                         BYTE $FC $FC $FC $FC $FC $FC $FF $FF
9A7D: FF                         BYTE $FF $FF $FF $03 $00 $00 $00 $03
9A85: 0F                         BYTE $0F $0F $0F $0F $3F $03 $00 $00
9A8D: C0                         BYTE $C0 $FC $FF $FF $33 $03 $03 $03
9A95: C3                         BYTE $C3 $C3 $C3 $C3 $03 $03 $03 $03
9A9D: 03                         BYTE $03 $C3 $FF $FC $FC $FC $FC $FC
9AA5: FC                         BYTE $FC $FC $FC $FC $FC $FC $FC $FF
9AAD: FF                         BYTE $FF $FF $FF $F3 $00 $00 $0F $3F
9AB5: 3F                         BYTE $3F $3F $0F $0F $3F $03 $00 $00
9ABD: C0                         BYTE $C0 $F3 $FF $F3 $03 $03 $03 $C3
9AC5: F3                         BYTE $F3 $F3 $FF $FF $F3 $F3 $C3 $C3
9ACD: 03                         BYTE $03 $CF $FF $FF $FC $FC $FC $FC
9AD5: FF                         BYTE $FF $FF $FF $FF $FC $FC $FC $FC
9ADD: FC                         BYTE $FC $FF $FF $0C $0F $3F $3F $FF
9AE5: FF                         BYTE $FF $FF $FF $FF $FF $3F $3F $3F
9AED: 0C                         BYTE $0C $03 $C3 $0F $03 $C3 $F3 $FF
9AF5: FF                         BYTE $FF $FF $FF $FF $F3 $C3 $C3 $33
9AFD: 0F                         BYTE $0F $CF $3F


; BLOCK 3 Arkanoid.xex

02E0: 00 35                      WORD $3500    ; L_3500
