

; BLOCK 1 stac.xex

9000: 18        clc
9001: 60        rts
9002: A2 F0     ldx #$F0
9004: A0 D9     ldy #$D9
9006: A9 00     lda #$00
9008: 8D C6 02  sta $02C6      ; COLOR2
900B: A9 3A     lda #$3A
900D: 8D C4 02  sta $02C4      ; COLOR0
9010: 8E 30 02  stx $0230      ; SDLSTL
9013: 8C 31 02  sty $0231      ; SDLSTH
9016: A9 FD     lda #$FD
9018: 85 14     sta $14        ; RTCLOK+2
901A: A5 14     lda $14        ; RTCLOK+2
901C: D0 FC     bne $901A      ; L_901A
901E: 60        rts
901F: 18        clc
9020: A9 C0     lda #$C0
9022: 85 6A     sta $6A        ; RAMTOP
9024: A9 C8     lda #$C8
9026: 85 3D     sta $3D        ; BPTR
9028: 85 3E     sta $3E        ; FTYPE
902A: A4 0C     ldy $0C        ; DOSINI
902C: 84 34     sty $34        ; BFENLO
902E: 80 D0     nop #$D0
9030: B7 0D     lax $0D,x      ; DOSINI+1
9032: 98        tya
9033: FF FB 03  ins $03FB,x    ; CHLINK
9036: 85 3F     sta $3F        ; FEOF
9038: 20 08 D8  jsr $D808      ; PDIRQV
903B: 20 21 D9  jsr $D921
903E: D0 41     bne $9081
9040: 20 21 D9  jsr $D921
9043: 48        pha
9044: 20 21 D9  jsr $D921
9047: A8        tay
9048: 68        pla
9049: 30 06     bmi $9051      ; L_9051
904B: 20 BA D8  jsr $D8BA
904E: 4C 41 D8  jmp $D841
9051: 29 7F     and #$7F
9053: 85 82     sta $82        ; VNTP
9055: 84 81     sty $81        ; LOMEM+1
9057: 20 21 D9  jsr $D921
905A: D0 09     bne $9065      ; L_9065
905C: 18        clc
905D: A5 82     lda $82        ; VNTP
905F: 65 84     adc $84        ; VNTD
9061: 85 84     sta $84        ; VNTD
9063: 90 2D     bcc $9092
9065: A0 00     ldy #$00
9067: F0 07     beq $9070      ; L_9070
9069: 91 83     sta ($83),y    ; VNTP+1
906B: C8        iny
906C: D0 FB     bne $9069      ; L_9069
906E: E6 84     inc $84        ; VNTD
9070: C6 82     dec $82        ; VNTP
9072: 10 F5     bpl $9069      ; L_9069
9074: C4 81     cpy $81        ; LOMEM+1
9076: F0 1A     beq $9092
9078: 91 83     sta ($83),y    ; VNTP+1


; BLOCK 2 stac.xex

0400: 78        sei
0401: AC 13 D0  ldy $D013      ; TRIG3
0404: D0 FE     bne $0404      ; WAIT
0406: 8C 0E D4  sty $D40E      ; NMIEN
0409: 84 85     sty $85        ; SRC
040B: 84 87     sty $87        ; DST
040D: 88        dey
040E: 8C 01 D3  sty $D301      ; PORTB
0411: 8C F8 03  sty $03F8      ; BASICF
0414: A9 E0     lda #$E0
0416: A0 98     ldy #$98
0418: A2 04     ldx #$04
041A: 20 64 04  jsr $0464      ; Move $400  bytes from $E000 to $9800 - $E000->$E3FF is set to 0 / MOVE_MEM
041D: CE 01 D3  dec $D301      ; PORTB
0420: A9 90     lda #$90
0422: A0 D8     ldy #$D8
0424: 20 62 04  jsr $0462      ; Move $1000 bytes from $9000 -> $D800 - $9000->$9FFF is set to 0 / MOVE_MEM_4K
0427: A9 90     lda #$90
0429: A0 C0     ldy #$C0
042B: 20 62 04  jsr $0462      ; Move $1000 bytes from $9000 -> $C000 - $C000->$CFFF is set to 0 ? / MOVE_MEM_4K
042E: A9 C1     lda #$C1
0430: 8D FA FF  sta $FFFA
0433: A9 DA     lda #$DA
0435: 8D FB FF  sta $FFFB      ; Set NMI pointer to $DAC1
0438: A9 40     lda #$40
043A: 8D 0E D4  sta $D40E      ; NMIEN
043D: A0 53     ldy #$53       ; ths is later used to build $30 + $53 = $83
043F: A9 AF     lda #$AF
0441: 38        sec
0442: A2 50     ldx #$50
0444: FF 0D DA  ins $DA0D,x    ; INC + SBC -- $DA0D,X += (1 - $AF) carry included
0447: CA        dex
0448: 10 FA     bpl $0444      ; UNLOCK1
044A: 97 30     sax $30,y      ; write A & X to $83 / STATUS
044C: A9 27     lda #$27
044E: 18        clc
044F: A2 3B     ldx #$3B
0451: DF 85 DA  dcm $DA85,x    ; DEC $DAB5,X
0454: 18        clc
0455: 04 30     nop $30        ; STATUS
0457: 7D 85 DA  adc $DA85,x
045A: CA        dex
045B: 10 F4     bpl $0451      ; UNLOCK2
045D: 97 31     sax $31,y      ; CHKSUM
045F: 4C 25 D8  jmp $D825      ; Exec the loader
0462: A2 10     ldx #$10
0464: 85 86     sta $86        ; SRC+1
0466: 84 88     sty $88        ; DST+1
0468: A0 00     ldy #$00
046A: B1 85     lda ($85),y    ; SRC
046C: 91 87     sta ($87),y    ; DST
046E: A9 00     lda #$00
0470: 91 85     sta ($85),y    ; SRC
0472: C8        iny
0473: D0 F5     bne $046A      ; MOVE_NEXT
0475: E6 88     inc $88        ; DST+1
0477: E6 86     inc $86        ; SRC+1
0479: CA        dex
047A: D0 EE     bne $046A      ; MOVE_NEXT
047C: 60        rts
047D: 00        brk
047E: 00        brk
047F: 00        brk
